

HI-TECH Software PIC PRO Macro Assembler V9.83 build 10920 
                                                                                               Fri Nov 10 16:52:41 2017

HI-TECH Software Omniscient Code Generator (PRO mode) build 10920
     1                           	processor	89F6385
     2                           	opt	pw 120
     3                           	opt	pm
     4                           	psect	idataBANK0,global,class=CODE,delta=2
     5                           	psect	stringtext,global,reloc=256,class=STRCODE,delta=2
     6                           	psect	cinit,global,class=CODE,delta=2
     7                           	psect	bitbssCOMMON,global,bit,class=COMMON,space=1,delta=1
     8                           	psect	bssCOMMON,global,class=COMMON,space=1,delta=1
     9                           	psect	bssBANK0,global,class=BANK0,space=1,delta=1
    10                           	psect	dataBANK0,global,class=BANK0,space=1,delta=1
    11                           	psect	bssBANK1,global,class=BANK1,space=1,delta=1
    12                           	psect	bssBANK3,global,class=BANK3,space=1,delta=1
    13                           	psect	bssBANK2,global,class=BANK2,space=1,delta=1
    14                           	psect	clrtext,global,class=CODE,delta=2
    15                           	psect	cstackCOMMON,global,class=COMMON,space=1,delta=1
    16                           	psect	cstackBANK0,global,class=BANK0,space=1,delta=1
    17                           	psect	maintext,global,class=CODE,delta=2
    18                           	psect	text1269,local,class=CODE,delta=2
    19                           	psect	text1271,local,class=CODE,delta=2
    20                           	psect	text1278,local,class=CODE,delta=2
    21                           	psect	text1280,local,class=CODE,delta=2
    22                           	psect	text1292,local,class=CODE,delta=2
    23                           	psect	text1293,local,class=CODE,delta=2
    24                           	psect	text1294,local,class=CODE,delta=2
    25                           	psect	text1295,local,class=CODE,delta=2
    26                           	psect	text1296,local,class=CODE,delta=2
    27                           	psect	text1297,local,class=CODE,delta=2
    28                           	psect	text1298,local,class=CODE,delta=2
    29                           	psect	text1299,local,class=CODE,delta=2
    30                           	psect	text1302,local,class=CODE,delta=2
    31                           	psect	intentry,global,class=CODE,delta=2
    32                           	psect	text1305,local,class=CODE,delta=2
    33                           	psect	pa_nodes,global,class=CODE,delta=2
    34                           	dabs	1,0x7E,2
    35  000A                     
    36                           	psect	idataBANK0
    37  0000                     __pidataBANK0:	
    38                           
    39                           	psect	stringtext
    40  1000                     __pstringtext:	
    41  1000                     stringtab:	
    42                           ;	global	stringtab,__stringbase
    43                           
    44                           
    45                           ;	String table - string pointers are 2 bytes each
    46  1000  1BFF               	btfsc	btemp+1,7
    47  1001  280A               	ljmp	stringcode
    48  1002  1383               	bcf	3,7
    49  1003  187F               	btfsc	btemp+1,0
    50  1004  1783               	bsf	3,7
    51  1005  0800               	movf	0,w
    52  1006  0A84               	incf	4,f
    53  1007  1903               	skipnz
    54  1008  0AFF               	incf	btemp+1,f
    55  1009  0008               	return
    56  100A                     stringcode:	
    57  100A  087F               	movf	btemp+1,w
    58  100B  397F               	andlw	127
    59  100C  008A               	movwf	10
    60  100D  0804               	movf	4,w
    61  100E  0A84               	incf	4,f
    62  100F  1903               	skipnz
    63  1010  0AFF               	incf	btemp+1,f
    64  1011  0082               	movwf	2
    65  1012                     __stringbase:	
    66  1012                     _TempTab:	
    67  1012  34AB               	retlw	171
    68  1013  3401               	retlw	1
    69  1014  34BF               	retlw	191
    70  1015  3401               	retlw	1
    71  1016  34BF               	retlw	191
    72  1017  3401               	retlw	1
    73  1018  34D7               	retlw	215
    74  1019  3401               	retlw	1
    75  101A  34D7               	retlw	215
    76  101B  3401               	retlw	1
    77  101C  34F0               	retlw	240
    78  101D  3401               	retlw	1
    79  101E  34F0               	retlw	240
    80  101F  3401               	retlw	1
    81  1020  340A               	retlw	10
    82  1021  3402               	retlw	2
    83  1022  340A               	retlw	10
    84  1023  3402               	retlw	2
    85  1024  3424               	retlw	36
    86  1025  3402               	retlw	2
    87  1026  3425               	retlw	37
    88  1027  3402               	retlw	2
    89  1028  343C               	retlw	60
    90  1029  3402               	retlw	2
    91  102A  343D               	retlw	61
    92  102B  3402               	retlw	2
    93  102C  3451               	retlw	81
    94  102D  3402               	retlw	2
    95  102E  3452               	retlw	82
    96  102F  3402               	retlw	2
    97  1030  3466               	retlw	102
    98  1031  3402               	retlw	2
    99  1032  3467               	retlw	103
   100  1033  3402               	retlw	2
   101  1034  347C               	retlw	124
   102  1035  3402               	retlw	2
   103  1036  347D               	retlw	125
   104  1037  3402               	retlw	2
   105  1038  3493               	retlw	147
   106  1039  3402               	retlw	2
   107  103A  3493               	retlw	147
   108  103B  3402               	retlw	2
   109  103C  34AC               	retlw	172
   110  103D  3402               	retlw	2
   111  103E  34AC               	retlw	172
   112  103F  3402               	retlw	2
   113  1040  34C7               	retlw	199
   114  1041  3402               	retlw	2
   115  1042  34C8               	retlw	200
   116  1043  3402               	retlw	2
   117  1044  34E3               	retlw	227
   118  1045  3402               	retlw	2
   119  1046  34E4               	retlw	228
   120  1047  3402               	retlw	2
   121  1048  3400               	retlw	0
   122  1049  3403               	retlw	3
   123  104A  3400               	retlw	0
   124  104B  3403               	retlw	3
   125  104C  341D               	retlw	29
   126  104D  3403               	retlw	3
   127  104E  341E               	retlw	30
   128  104F  3403               	retlw	3
   129  1050  343C               	retlw	60
   130  1051  3403               	retlw	3
   131  1052  343C               	retlw	60
   132  1053  3403               	retlw	3
   133  1054  345B               	retlw	91
   134  1055  3403               	retlw	3
   135  1056  345C               	retlw	92
   136  1057  3403               	retlw	3
   137  1058  347B               	retlw	123
   138  1059  3403               	retlw	3
   139  105A  347B               	retlw	123
   140  105B  3403               	retlw	3
   141  105C  349B               	retlw	155
   142  105D  3403               	retlw	3
   143  105E  349B               	retlw	155
   144  105F  3403               	retlw	3
   145  1060  34BC               	retlw	188
   146  1061  3403               	retlw	3
   147  1062  34BD               	retlw	189
   148  1063  3403               	retlw	3
   149  1064  34DE               	retlw	222
   150  1065  3403               	retlw	3
   151  1066  34DE               	retlw	222
   152  1067  3403               	retlw	3
   153  1068  3400               	retlw	0
   154  1069  3404               	retlw	4
   155  106A  3401               	retlw	1
   156  106B  3404               	retlw	4
   157  106C  3423               	retlw	35
   158  106D  3404               	retlw	4
   159  106E  3423               	retlw	35
   160  106F  3404               	retlw	4
   161  1070  3446               	retlw	70
   162  1071  3404               	retlw	4
   163  1072  3447               	retlw	71
   164  1073  3404               	retlw	4
   165  1074  346B               	retlw	107
   166  1075  3404               	retlw	4
   167  1076  346B               	retlw	107
   168  1077  3404               	retlw	4
   169  1078  348E               	retlw	142
   170  1079  3404               	retlw	4
   171  107A  348F               	retlw	143
   172  107B  3404               	retlw	4
   173  107C  34B3               	retlw	179
   174  107D  3404               	retlw	4
   175  107E  34B4               	retlw	180
   176  107F  3404               	retlw	4
   177  1080  34D9               	retlw	217
   178  1081  3404               	retlw	4
   179  1082  34D9               	retlw	217
   180  1083  3404               	retlw	4
   181  1084  34FE               	retlw	254
   182  1085  3404               	retlw	4
   183  1086  34FE               	retlw	254
   184  1087  3404               	retlw	4
   185  1088  3424               	retlw	36
   186  1089  3405               	retlw	5
   187  108A  3424               	retlw	36
   188  108B  3405               	retlw	5
   189  108C  344A               	retlw	74
   190  108D  3405               	retlw	5
   191  108E  344B               	retlw	75
   192  108F  3405               	retlw	5
   193  1090  3472               	retlw	114
   194  1091  3405               	retlw	5
   195  1092  3472               	retlw	114
   196  1093  3405               	retlw	5
   197  1094  3499               	retlw	153
   198  1095  3405               	retlw	5
   199  1096  349A               	retlw	154
   200  1097  3405               	retlw	5
   201  1098  34C1               	retlw	193
   202  1099  3405               	retlw	5
   203  109A  34C1               	retlw	193
   204  109B  3405               	retlw	5
   205  109C  34E9               	retlw	233
   206  109D  3405               	retlw	5
   207  109E  34E9               	retlw	233
   208  109F  3405               	retlw	5
   209  10A0  3411               	retlw	17
   210  10A1  3406               	retlw	6
   211  10A2  3411               	retlw	17
   212  10A3  3406               	retlw	6
   213  10A4  3438               	retlw	56
   214  10A5  3406               	retlw	6
   215  10A6  3439               	retlw	57
   216  10A7  3406               	retlw	6
   217  10A8  3461               	retlw	97
   218  10A9  3406               	retlw	6
   219  10AA  3461               	retlw	97
   220  10AB  3406               	retlw	6
   221  10AC  3488               	retlw	136
   222  10AD  3406               	retlw	6
   223  10AE  3489               	retlw	137
   224  10AF  3406               	retlw	6
   225  10B0  34B1               	retlw	177
   226  10B1  3406               	retlw	6
   227  10B2  34B1               	retlw	177
   228  10B3  3406               	retlw	6
   229  10B4  34D9               	retlw	217
   230  10B5  3406               	retlw	6
   231  10B6  34DA               	retlw	218
   232  10B7  3406               	retlw	6
   233  10B8  3402               	retlw	2
   234  10B9  3407               	retlw	7
   235  10BA  3402               	retlw	2
   236  10BB  3407               	retlw	7
   237  10BC  342B               	retlw	43
   238  10BD  3407               	retlw	7
   239  10BE  342B               	retlw	43
   240  10BF  3407               	retlw	7
   241  10C0  3453               	retlw	83
   242  10C1  3407               	retlw	7
   243  10C2  3454               	retlw	84
   244  10C3  3407               	retlw	7
   245  10C4  347C               	retlw	124
   246  10C5  3407               	retlw	7
   247  10C6  347C               	retlw	124
   248  10C7  3407               	retlw	7
   249  10C8  34A4               	retlw	164
   250  10C9  3407               	retlw	7
   251  10CA  34A5               	retlw	165
   252  10CB  3407               	retlw	7
   253  10CC  34CD               	retlw	205
   254  10CD  3407               	retlw	7
   255  10CE  34CD               	retlw	205
   256  10CF  3407               	retlw	7
   257  10D0  34F5               	retlw	245
   258  10D1  3407               	retlw	7
   259  10D2  34F6               	retlw	246
   260  10D3  3407               	retlw	7
   261  10D4  341E               	retlw	30
   262  10D5  3408               	retlw	8
   263  10D6  341E               	retlw	30
   264  10D7  3408               	retlw	8
   265  10D8  3447               	retlw	71
   266  10D9  3408               	retlw	8
   267  10DA  3445               	retlw	69
   268  10DB  3408               	retlw	8
   269  10DC  346F               	retlw	111
   270  10DD  3408               	retlw	8
   271  10DE  346C               	retlw	108
   272  10DF  3408               	retlw	8
   273  10E0  3496               	retlw	150
   274  10E1  3408               	retlw	8
   275  10E2  3493               	retlw	147
   276  10E3  3408               	retlw	8
   277  10E4  34BE               	retlw	190
   278  10E5  3408               	retlw	8
   279  10E6  34B9               	retlw	185
   280  10E7  3408               	retlw	8
   281  10E8  34E5               	retlw	229
   282  10E9  3408               	retlw	8
   283  10EA  34DF               	retlw	223
   284  10EB  3408               	retlw	8
   285  10EC  340B               	retlw	11
   286  10ED  3409               	retlw	9
   287  10EE  3405               	retlw	5
   288  10EF  3409               	retlw	9
   289  10F0  3432               	retlw	50
   290  10F1  3409               	retlw	9
   291  10F2  342A               	retlw	42
   292  10F3  3409               	retlw	9
   293  10F4  3457               	retlw	87
   294  10F5  3409               	retlw	9
   295  10F6  344F               	retlw	79
   296  10F7  3409               	retlw	9
   297  10F8  347D               	retlw	125
   298  10F9  3409               	retlw	9
   299  10FA  3473               	retlw	115
   300  10FB  3409               	retlw	9
   301  10FC  34A1               	retlw	161
   302  10FD  3409               	retlw	9
   303  10FE  3497               	retlw	151
   304  10FF  3409               	retlw	9
   305  1100  34C6               	retlw	198
   306  1101  3409               	retlw	9
   307  1102  34BB               	retlw	187
   308  1103  3409               	retlw	9
   309  1104  34E9               	retlw	233
   310  1105  3409               	retlw	9
   311  1106  34DD               	retlw	221
   312  1107  3409               	retlw	9
   313  1108  340C               	retlw	12
   314  1109  340A               	retlw	10
   315  110A  34FF               	retlw	255
   316  110B  3409               	retlw	9
   317  110C  342E               	retlw	46
   318  110D  340A               	retlw	10
   319  110E  3421               	retlw	33
   320  110F  340A               	retlw	10
   321  1110  3450               	retlw	80
   322  1111  340A               	retlw	10
   323  1112  3442               	retlw	66
   324  1113  340A               	retlw	10
   325  1114  3471               	retlw	113
   326  1115  340A               	retlw	10
   327  1116  3462               	retlw	98
   328  1117  340A               	retlw	10
   329  1118  3492               	retlw	146
   330  1119  340A               	retlw	10
   331  111A  3483               	retlw	131
   332  111B  340A               	retlw	10
   333  111C  34B3               	retlw	179
   334  111D  340A               	retlw	10
   335  111E  34A3               	retlw	163
   336  111F  340A               	retlw	10
   337  1120  34D3               	retlw	211
   338  1121  340A               	retlw	10
   339  1122  34C2               	retlw	194
   340  1123  340A               	retlw	10
   341  1124  34F2               	retlw	242
   342  1125  340A               	retlw	10
   343  1126  34E1               	retlw	225
   344  1127  340A               	retlw	10
   345  1128  3411               	retlw	17
   346  1129  340B               	retlw	11
   347  112A  34FF               	retlw	255
   348  112B  340A               	retlw	10
   349  112C  342F               	retlw	47
   350  112D  340B               	retlw	11
   351  112E  341C               	retlw	28
   352  112F  340B               	retlw	11
   353  1130  344C               	retlw	76
   354  1131  340B               	retlw	11
   355  1132  3439               	retlw	57
   356  1133  340B               	retlw	11
   357  1134  3469               	retlw	105
   358  1135  340B               	retlw	11
   359  1136  3455               	retlw	85
   360  1137  340B               	retlw	11
   361  1138  3485               	retlw	133
   362  1139  340B               	retlw	11
   363  113A  3471               	retlw	113
   364  113B  340B               	retlw	11
   365  113C  34A0               	retlw	160
   366  113D  340B               	retlw	11
   367  113E  348C               	retlw	140
   368  113F  340B               	retlw	11
   369  1140  34BB               	retlw	187
   370  1141  340B               	retlw	11
   371  1142  34A8               	retlw	168
   372  1143  340B               	retlw	11
   373  1144  34D7               	retlw	215
   374  1145  340B               	retlw	11
   375  1146  34C3               	retlw	195
   376  1147  340B               	retlw	11
   377  1148  34F2               	retlw	242
   378  1149  340B               	retlw	11
   379  114A  34DE               	retlw	222
   380  114B  340B               	retlw	11
   381  114C  340C               	retlw	12
   382  114D  340C               	retlw	12
   383  114E  34F8               	retlw	248
   384  114F  340B               	retlw	11
   385  1150  3426               	retlw	38
   386  1151  340C               	retlw	12
   387  1152  3411               	retlw	17
   388  1153  340C               	retlw	12
   389  1154  343F               	retlw	63
   390  1155  340C               	retlw	12
   391  1156  342A               	retlw	42
   392  1157  340C               	retlw	12
   393  1158  3458               	retlw	88
   394  1159  340C               	retlw	12
   395  115A  3442               	retlw	66
   396  115B  340C               	retlw	12
   397  115C  346F               	retlw	111
   398  115D  340C               	retlw	12
   399  115E  3459               	retlw	89
   400  115F  340C               	retlw	12
   401  1160  3487               	retlw	135
   402  1161  340C               	retlw	12
   403  1162  3470               	retlw	112
   404  1163  340C               	retlw	12
   405  1164  349D               	retlw	157
   406  1165  340C               	retlw	12
   407  1166  3487               	retlw	135
   408  1167  340C               	retlw	12
   409  1168  34B3               	retlw	179
   410  1169  340C               	retlw	12
   411  116A  349D               	retlw	157
   412  116B  340C               	retlw	12
   413  116C  34C9               	retlw	201
   414  116D  340C               	retlw	12
   415  116E  34B2               	retlw	178
   416  116F  340C               	retlw	12
   417  1170  34DE               	retlw	222
   418  1171  340C               	retlw	12
   419  1172  34C7               	retlw	199
   420  1173  340C               	retlw	12
   421  1174  34F2               	retlw	242
   422  1175  340C               	retlw	12
   423  1176  34DC               	retlw	220
   424  1177  340C               	retlw	12
   425  1178  3407               	retlw	7
   426  1179  340D               	retlw	13
   427  117A  34F0               	retlw	240
   428  117B  340C               	retlw	12
   429  117C  341A               	retlw	26
   430  117D  340D               	retlw	13
   431  117E  3403               	retlw	3
   432  117F  340D               	retlw	13
   433  1180  342D               	retlw	45
   434  1181  340D               	retlw	13
   435  1182  3416               	retlw	22
   436  1183  340D               	retlw	13
   437  1184  3440               	retlw	64
   438  1185  340D               	retlw	13
   439  1186  3429               	retlw	41
   440  1187  340D               	retlw	13
   441  1188  3452               	retlw	82
   442  1189  340D               	retlw	13
   443  118A  343B               	retlw	59
   444  118B  340D               	retlw	13
   445  118C  3464               	retlw	100
   446  118D  340D               	retlw	13
   447  118E  344D               	retlw	77
   448  118F  340D               	retlw	13
   449  1190  3475               	retlw	117
   450  1191  340D               	retlw	13
   451  1192  345E               	retlw	94
   452  1193  340D               	retlw	13
   453  1194  3486               	retlw	134
   454  1195  340D               	retlw	13
   455  1196  346F               	retlw	111
   456  1197  340D               	retlw	13
   457  1198  3496               	retlw	150
   458  1199  340D               	retlw	13
   459  119A  347F               	retlw	127
   460  119B  340D               	retlw	13
   461  119C  34A5               	retlw	165
   462  119D  340D               	retlw	13
   463  119E  348F               	retlw	143
   464  119F  340D               	retlw	13
   465  11A0  34B5               	retlw	181
   466  11A1  340D               	retlw	13
   467  11A2  349E               	retlw	158
   468  11A3  340D               	retlw	13
   469  11A4  34C3               	retlw	195
   470  11A5  340D               	retlw	13
   471  11A6  34AD               	retlw	173
   472  11A7  340D               	retlw	13
   473  11A8  34D2               	retlw	210
   474  11A9  340D               	retlw	13
   475  11AA  34BC               	retlw	188
   476  11AB  340D               	retlw	13
   477  11AC  34E1               	retlw	225
   478  11AD  340D               	retlw	13
   479  11AE  34CB               	retlw	203
   480  11AF  340D               	retlw	13
   481  11B0  34EF               	retlw	239
   482  11B1  340D               	retlw	13
   483  11B2  34D9               	retlw	217
   484  11B3  340D               	retlw	13
   485  11B4  34FD               	retlw	253
   486  11B5  340D               	retlw	13
   487  11B6  34E7               	retlw	231
   488  11B7  340D               	retlw	13
   489  11B8  340A               	retlw	10
   490  11B9  340E               	retlw	14
   491  11BA                     _LCDCode:	
   492  11BA  343F               	retlw	63
   493  11BB  3406               	retlw	6
   494  11BC  345B               	retlw	91
   495  11BD  344F               	retlw	79
   496  11BE  3466               	retlw	102
   497  11BF  346D               	retlw	109
   498  11C0  347D               	retlw	125
   499  11C1  3407               	retlw	7
   500  11C2  347F               	retlw	127
   501  11C3  346F               	retlw	111
   502  11C4  3400               	retlw	0
   503  11C5  3479               	retlw	121
   504  11C6  3439               	retlw	57
   505  11C7                     _Table_KeyCap:	
   506  11C7  3412               	retlw	18
   507  11C8  3412               	retlw	18
   508  11C9  3412               	retlw	18
   509  11CA  3412               	retlw	18
   510  11CB  3412               	retlw	18
   511  11CC  3412               	retlw	18
   512  11CD  3412               	retlw	18
   513  11CE  3412               	retlw	18
   514  11CF  3412               	retlw	18
   515  11D0  3412               	retlw	18
   516  11D1  3412               	retlw	18
   517  11D2  3412               	retlw	18
   518  11D3                     _Table_KeyChannel:	
   519  11D3  345A               	retlw	90
   520  11D4  345B               	retlw	91
   521  11D5  345C               	retlw	92
   522  11D6  345E               	retlw	94
   523  11D7  345D               	retlw	93
   524  11D8  345F               	retlw	95
   525  11D9  3451               	retlw	81
   526  11DA  3454               	retlw	84
   527  11DB  3453               	retlw	83
   528  11DC  3455               	retlw	85
   529  11DD  3452               	retlw	82
   530  11DE  3450               	retlw	80
   531  11DF                     _Table_KeyDown:	
   532  11DF  3405               	retlw	5
   533  11E0  3405               	retlw	5
   534  11E1  3405               	retlw	5
   535  11E2  3405               	retlw	5
   536  11E3  3405               	retlw	5
   537  11E4  3405               	retlw	5
   538  11E5  3405               	retlw	5
   539  11E6  3405               	retlw	5
   540  11E7  3405               	retlw	5
   541  11E8  3405               	retlw	5
   542  11E9  3405               	retlw	5
   543  11EA  3405               	retlw	5
   544  11EB                     _Table_KeyFalg:	
   545  11EB  3401               	retlw	1
   546  11EC  3402               	retlw	2
   547  11ED  3404               	retlw	4
   548  11EE  3408               	retlw	8
   549  11EF  3410               	retlw	16
   550  11F0  3420               	retlw	32
   551  11F1  3440               	retlw	64
   552  11F2  3480               	retlw	128
   553  001F                     _ADCON0	set	31
   554  001E                     _ADRESH	set	30
   555  000B                     _INTCON	set	11
   556  000C                     _PIR1	set	12
   557  0012                     _T2CON	set	18
   558  00F9                     _GODONE	set	249
   559  002E                     _RA6	set	46
   560  002F                     _RA7	set	47
   561  0031                     _RB1	set	49
   562  0058                     _RBIF	set	88
   563  0038                     _RC0	set	56
   564  0039                     _RC1	set	57
   565  003A                     _RC2	set	58
   566  003B                     _RC3	set	59
   567  003C                     _RC4	set	60
   568  003D                     _RC5	set	61
   569  003E                     _RC6	set	62
   570  0049                     _RE1	set	73
   571  004A                     _RE2	set	74
   572  004B                     _RE3	set	75
   573  0061                     _TMR2IF	set	97
   574  009F                     _ADCON1	set	159
   575  009E                     _ADRESL	set	158
   576  0096                     _IOCB	set	150
   577  0081                     _OPTION_REG	set	129
   578  008F                     _OSCCON	set	143
   579  008C                     _PIE1	set	140
   580  0092                     _PR2	set	146
   581  0085                     _TRISA	set	133
   582  0086                     _TRISB	set	134
   583  0087                     _TRISC	set	135
   584  0089                     _TRISE	set	137
   585  0095                     _WPUB	set	149
   586  0113                     _KEYCON0	set	275
   587  0114                     _KEYCON1	set	276
   588  0116                     _KEYDATAH	set	278
   589  0115                     _KEYDATAL	set	277
   590  0105                     _WDTCON	set	261
   591  0197                     _COMEN	set	407
   592  0192                     _LCDADD	set	402
   593  0190                     _LCDCON0	set	400
   594                           
   595                           	psect	cinit
   596  140F                     start_initialization:	
   597  140F  3020               	movlw	low __pbssBANK0
   598                           
   599                           ; Clear objects allocated to BITCOMMON
   600  1410  01F0               	clrf	(__pbitbssCOMMON/(0+8))& (0+127)
   601  1411  01F1               	clrf	((__pbitbssCOMMON/(0+8)+1))& (0+127)
   602  1412  01F2               	clrf	((__pbitbssCOMMON/(0+8)+2))& (0+127)
   603  1413  01F3               	clrf	((__pbitbssCOMMON/(0+8)+3))& (0+127)
   604                           
   605                           ; Clear objects allocated to COMMON
   606  1414  01FA               	clrf	__pbssCOMMON& (0+127)
   607  1415  01FB               	clrf	(__pbssCOMMON+1)& (0+127)
   608  1416  01FC               	clrf	(__pbssCOMMON+2)& (0+127)
   609                           
   610                           ; Clear objects allocated to BANK0
   611  1417  1383               	bcf	3,7	;select IRP bank0
   612  1418  0084               	movwf	4
   613  1419  305D               	movlw	low (__pbssBANK0+61)
   614  141A  120A  118A  27F4   	fcall	clear_ram
      +       160A  118A         
   615                           
   616                           ; Clear objects allocated to BANK1
   617  141F  30A0               	movlw	low __pbssBANK1
   618  1420  0084               	movwf	4
   619  1421  30EF               	movlw	low (__pbssBANK1+79)
   620  1422  120A  118A  27F4   	fcall	clear_ram
      +       160A  118A         
   621  1427  3098               	movlw	low __pbssBANK3
   622                           
   623                           ; Clear objects allocated to BANK3
   624  1428  1783               	bsf	3,7	;select IRP bank2
   625  1429  0084               	movwf	4
   626  142A  30E6               	movlw	low (__pbssBANK3+78)
   627  142B  120A  118A  27F4   	fcall	clear_ram
      +       160A  118A         
   628                           
   629                           ; Clear objects allocated to BANK2
   630  1430  3020               	movlw	low __pbssBANK2
   631  1431  0084               	movwf	4
   632  1432  305C               	movlw	low (__pbssBANK2+60)
   633  1433  120A  118A  27F4   	fcall	clear_ram
   634                           
   635                           ;initializer for _BuzzerTime
   636  1436  3028               	movlw	40
   637  1437  00ED               	movwf	__pdataBANK0& (0+127)
   638                           
   639                           ;initializer for _Temperature_Dat
   640  1438  3032               	movlw	50
   641  1439  00EE               	movwf	(__pdataBANK0+1)& (0+127)
   642                           
   643                           ;initializer for _Water_Temp
   644  143A  305F               	movlw	95
   645  143B  00EF               	movwf	(__pdataBANK0+2)& (0+127)
   646  143C                     end_of_initialization:	
   647                           ;End of C runtime variable initialization code
   648                           
   649  143C  0183               	clrf	3
   650  143D  160A  118A  2CD2   	ljmp	_main	;jump to C main() function
   651                           
   652                           	psect	bitbssCOMMON
   653  0380                     __pbitbssCOMMON:	
   654  0380                     _B_MainLoop:	
   655  0380                     	ds	1
   656  0381                     _Buzzer_CFlag:	
   657  0381                     	ds	1
   658  0382                     _Flag_Ntc_OneAd:	
   659  0382                     	ds	1
   660  0383                     _Flag_RT_High:	
   661  0383                     	ds	1
   662  0384                     _Flag_RT_Open:	
   663  0384                     	ds	1
   664  0385                     _Flag_RT_Short:	
   665  0385                     	ds	1
   666  0386                     _Key_120_Z_Lock:	
   667  0386                     	ds	1
   668  0387                     _Key_210_Z_Lock:	
   669  0387                     	ds	1
   670  0388                     _Key_420_Z_Lock:	
   671  0388                     	ds	1
   672  0389                     _Key_80_Z_Lock:	
   673  0389                     	ds	1
   674  038A                     _Key_Add_3S_ON:	
   675  038A                     	ds	1
   676  038B                     _Key_Add_Lock:	
   677  038B                     	ds	1
   678  038C                     _Key_Bold_Lock:	
   679  038C                     	ds	1
   680  038D                     _Key_Iced_Lock:	
   681  038D                     	ds	1
   682  038E                     _Key_Option_Lock:	
   683  038E                     	ds	1
   684  038F                     _Key_Reduce_3S_ON:	
   685  038F                     	ds	1
   686  0390                     _Key_Reduce_Lock:	
   687  0390                     	ds	1
   688  0391                     _Key_Regular_Lock:	
   689  0391                     	ds	1
   690  0392                     _Key_Start_Lock:	
   691  0392                     	ds	1
   692  0393                     _Key_Tea_Lock:	
   693  0393                     	ds	1
   694  0394                     _LCD_Flash_Bool:	
   695  0394                     	ds	1
   696  0395                     _LED_Flash_Bool:	
   697  0395                     	ds	1
   698  0396                     _No_AC:	
   699  0396                     	ds	1
   700  0397                     _Time_Temp_Dis:	
   701  0397                     	ds	1
   702  0398                     _b_kclr:	
   703  0398                     	ds	1
   704  0399                     _b_kerr:	
   705  0399                     	ds	1
   706  039A                     _b_kover:	
   707  039A                     	ds	1
   708  039B                     _b_kover1:	
   709  039B                     	ds	1
   710  039C                     _bool_TimeChange:	
   711  039C                     	ds	1
   712  039D                     _bool_WaterTempChange:	
   713  039D                     	ds	1
   714  039E                     _old_LHResult:	
   715  039E                     	ds	1
   716                           
   717                           	psect	bssCOMMON
   718  007A                     __pbssCOMMON:	
   719  007A                     _ANNULUS_LIGHT_Flash_Times:	
   720  007A                     	ds	1
   721  007B                     _LED_Flash_HZ:	
   722  007B                     	ds	1
   723  007C                     _com_count:	
   724  007C                     	ds	1
   725                           
   726                           	psect	bssBANK0
   727  0020                     __pbssBANK0:	
   728  0020                     _display:	
   729  0020                     	ds	5
   730  0025                     _Temp_595:	
   731  0025                     	ds	3
   732  0028                     NtcAD_Testing@admax:	
   733  0028                     	ds	2
   734  002A                     NtcAD_Testing@admin:	
   735  002A                     	ds	2
   736  002C                     _AdResult_12bit:	
   737  002C                     	ds	2
   738  002E                     _KeyData:	
   739  002E                     	ds	2
   740  0030                     _KeyFlag:	
   741  0030                     	ds	2
   742  0032                     _KeyOldData:	
   743  0032                     	ds	2
   744  0034                     NtcAD_Testing@TAB_pos:	
   745  0034                     	ds	1
   746  0035                     NtcAD_Testing@adtimes:	
   747  0035                     	ds	1
   748  0036                     NtcAD_Testing@range:	
   749  0036                     	ds	1
   750  0037                     _ANNULUS_LIGHT_State:	
   751  0037                     	ds	1
   752  0038                     _Add:	
   753  0038                     	ds	1
   754  0039                     _BG_LED_ON_Time:	
   755  0039                     	ds	1
   756  003A                     _BG_LED_State:	
   757  003A                     	ds	1
   758  003B                     _Bold:	
   759  003B                     	ds	1
   760  003C                     _BreakTimeOut:	
   761  003C                     	ds	1
   762  003D                     _HOT_MAJOR_State:	
   763  003D                     	ds	1
   764  003E                     _Hour:	
   765  003E                     	ds	1
   766  003F                     _Iced:	
   767  003F                     	ds	1
   768  0040                     _KeyCounter:	
   769  0040                     	ds	1
   770  0041                     _LED10_State:	
   771  0041                     	ds	1
   772  0042                     _LED11_State:	
   773  0042                     	ds	1
   774  0043                     _LED1_Flash_Times:	
   775  0043                     	ds	1
   776  0044                     _LED1_State:	
   777  0044                     	ds	1
   778  0045                     _LED2_State:	
   779  0045                     	ds	1
   780  0046                     _LED3_State:	
   781  0046                     	ds	1
   782  0047                     _LED4_State:	
   783  0047                     	ds	1
   784  0048                     _LED5_State:	
   785  0048                     	ds	1
   786  0049                     _LED6_State:	
   787  0049                     	ds	1
   788  004A                     _LED7_State:	
   789  004A                     	ds	1
   790  004B                     _LED8_State:	
   791  004B                     	ds	1
   792  004C                     _LED9_State:	
   793  004C                     	ds	1
   794  004D                     _MainTime:	
   795  004D                     	ds	1
   796  004E                     _Minute:	
   797  004E                     	ds	1
   798  004F                     _Option:	
   799  004F                     	ds	1
   800  0050                     _Rbeep:	
   801  0050                     	ds	1
   802  0051                     _Reduce:	
   803  0051                     	ds	1
   804  0052                     _Regular:	
   805  0052                     	ds	1
   806  0053                     _SHOW_LIGHT_State:	
   807  0053                     	ds	1
   808  0054                     _Solenoid_State:	
   809  0054                     	ds	1
   810  0055                     _Start:	
   811  0055                     	ds	1
   812  0056                     _Tea:	
   813  0056                     	ds	1
   814  0057                     _WorkMinute:	
   815  0057                     	ds	1
   816  0058                     _WorkSecond:	
   817  0058                     	ds	1
   818  0059                     __120_z:	
   819  0059                     	ds	1
   820  005A                     __210_z:	
   821  005A                     	ds	1
   822  005B                     __420_z:	
   823  005B                     	ds	1
   824  005C                     __80_z:	
   825  005C                     	ds	1
   826                           
   827                           	psect	dataBANK0
   828  006D                     __pdataBANK0:	
   829  006D                     _BuzzerTime:	
   830  006D                     	ds	1
   831  006E                     _Temperature_Dat:	
   832  006E                     	ds	1
   833  006F                     _Water_Temp:	
   834  006F                     	ds	1
   835                           
   836                           	psect	bssBANK1
   837  00A0                     __pbssBANK1:	
   838  00A0                     _Display_Temp:	
   839  00A0                     	ds	5
   840  00A5                     NtcAD_Testing@adsum:	
   841  00A5                     	ds	2
   842  00A7                     _BG_LED_ON_Times:	
   843  00A7                     	ds	2
   844  00A9                     _HOT_MAJOR_OFF_Time:	
   845  00A9                     	ds	2
   846  00AB                     _HOT_MAJOR_OFF_Times:	
   847  00AB                     	ds	2
   848  00AD                     _HOT_MAJOR_ON_Time:	
   849  00AD                     	ds	2
   850  00AF                     _HOT_MAJOR_ON_Times:	
   851  00AF                     	ds	2
   852  00B1                     _Key_ON_Times:	
   853  00B1                     	ds	2
   854  00B3                     _LED5_On_Times:	
   855  00B3                     	ds	2
   856  00B5                     _LED6_On_Times:	
   857  00B5                     	ds	2
   858  00B7                     _LH_Count:	
   859  00B7                     	ds	2
   860  00B9                     _PATTERN_WORK_TIME:	
   861  00B9                     	ds	2
   862  00BB                     _Pattern_LED_Crt:	
   863  00BB                     	ds	2
   864  00BD                     _Pattern_Work_Time:	
   865  00BD                     	ds	2
   866  00BF                     _Solenoid_OFF_Time:	
   867  00BF                     	ds	2
   868  00C1                     _Solenoid_OFF_Times:	
   869  00C1                     	ds	2
   870  00C3                     _Solenoid_ON_Time:	
   871  00C3                     	ds	2
   872  00C5                     _Solenoid_ON_Times:	
   873  00C5                     	ds	2
   874  00C7                     _Solenoid_Stop_Time:	
   875  00C7                     	ds	2
   876  00C9                     _Solenoid_Work_Time:	
   877  00C9                     	ds	2
   878  00CB                     _Time_Temp_Counter:	
   879  00CB                     	ds	2
   880  00CD                     _Timer_3S_Times:	
   881  00CD                     	ds	2
   882  00CF                     CheckKeyOldValue@counter:	
   883  00CF                     	ds	1
   884  00D0                     TurnKeyFlags@KeyHaveTimes:	
   885  00D0                     	ds	1
   886  00D1                     TurnKeyFlags@KeyNoTimes:	
   887  00D1                     	ds	1
   888  00D2                     _AdResult_8bit:	
   889  00D2                     	ds	1
   890  00D3                     _BG_LED_Flash_Times:	
   891  00D3                     	ds	1
   892  00D4                     _KeyMaxSub:	
   893  00D4                     	ds	1
   894  00D5                     _LCD_AUTO_Flash_Times:	
   895  00D5                     	ds	1
   896  00D6                     _LCD_COL_Flash_Times:	
   897  00D6                     	ds	1
   898  00D7                     _LCD_Flash_HZ:	
   899  00D7                     	ds	1
   900  00D8                     _LCD_HOUR_Flash_Times:	
   901  00D8                     	ds	1
   902  00D9                     _LCD_MINUTE_Flash_Times:	
   903  00D9                     	ds	1
   904  00DA                     _LCD_State:	
   905  00DA                     	ds	1
   906  00DB                     _LCD_TEMP_Flash_Times:	
   907  00DB                     	ds	1
   908  00DC                     _LCD_TIMER_Flash_Times:	
   909  00DC                     	ds	1
   910  00DD                     _LED10_Flash_Times:	
   911  00DD                     	ds	1
   912  00DE                     _LED11_Flash_Times:	
   913  00DE                     	ds	1
   914  00DF                     _LED12_Flash_Times:	
   915  00DF                     	ds	1
   916  00E0                     _LED12_State:	
   917  00E0                     	ds	1
   918  00E1                     _LED2_Flash_Times:	
   919  00E1                     	ds	1
   920  00E2                     _LED3_Flash_Times:	
   921  00E2                     	ds	1
   922  00E3                     _LED4_Flash_Times:	
   923  00E3                     	ds	1
   924  00E4                     _LED5_Flash_Times:	
   925  00E4                     	ds	1
   926  00E5                     _LED6_Flash_Times:	
   927  00E5                     	ds	1
   928  00E6                     _LED7_Flash_Times:	
   929  00E6                     	ds	1
   930  00E7                     _LED8_Flash_Times:	
   931  00E7                     	ds	1
   932  00E8                     _LED9_Flash_Times:	
   933  00E8                     	ds	1
   934  00E9                     _Pattern_State:	
   935  00E9                     	ds	1
   936  00EA                     _Pattern_Work_State:	
   937  00EA                     	ds	1
   938  00EB                     _Pattern_Work_Times:	
   939  00EB                     	ds	1
   940  00EC                     _SHOW_LIGHT_Flash_Times:	
   941  00EC                     	ds	1
   942  00ED                     _Second:	
   943  00ED                     	ds	1
   944  00EE                     _TimeCounter:	
   945  00EE                     	ds	1
   946                           
   947                           	psect	bssBANK3
   948  0198                     __pbssBANK3:	
   949  0198                     _KeyOldValue1:	
   950  0198                     	ds	24
   951  01B0                     _KeyReference:	
   952  01B0                     	ds	24
   953  01C8                     _KeyResSum:	
   954  01C8                     	ds	24
   955  01E0                     CheckValidTime@validtime:	
   956  01E0                     	ds	2
   957  01E2                     KeyServer@KeyOldFlag:	
   958  01E2                     	ds	2
   959  01E4                     _WortTimeCount:	
   960  01E4                     	ds	2
   961                           
   962                           	psect	bssBANK2
   963  0120                     __pbssBANK2:	
   964  0120                     _KeyOldValue0:	
   965  0120                     	ds	24
   966  0138                     _KeyOldValue2:	
   967  0138                     	ds	24
   968  0150                     _KeyUpShake:	
   969  0150                     	ds	12
   970                           
   971                           	psect	clrtext
   972  07F4                     clear_ram:	
   973                           ;	Called with FSR containing the base address, and
   974                           ;	W with the last address+1
   975                           
   976  07F4  0064               	clrwdt	;clear the watchdog before getting into this loop
   977  07F5                     clrloop:	
   978  07F5  0180               	clrf	0	;clear RAM location pointed to by FSR
   979  07F6  0A84               	incf	4,f	;increment pointer
   980  07F7  0604               	xorwf	4,w	;XOR with final address
   981  07F8  1903               	btfsc	3,2	;have we reached the end yet?
   982  07F9  3400               	retlw	0	;all done for this memory range, return
   983  07FA  0604               	xorwf	4,w	;XOR again to restore value
   984  07FB  2FF5               	goto	clrloop	;do the next byte
   985                           
   986                           	psect	cstackCOMMON
   987  0074                     __pcstackCOMMON:	
   988  0074                     ?__74HC595_SET:	
   989  0074                     ?_Set_Disp:	
   990                           ; 0 bytes @ 0x0
   991                           
   992  0074                     ?_AcTestZero:	
   993                           ; 0 bytes @ 0x0
   994                           
   995  0074                     ?_ShutDowm_Device:	
   996                           ; 0 bytes @ 0x0
   997                           
   998  0074                     ?_CheckTouchKey:	
   999                           ; 0 bytes @ 0x0
  1000                           
  1001  0074                     ?_Pattern:	
  1002                           ; 0 bytes @ 0x0
  1003                           
  1004  0074                     ?_LCD_FState:	
  1005                           ; 0 bytes @ 0x0
  1006                           
  1007  0074                     ?_CheckBuzzer:	
  1008                           ; 0 bytes @ 0x0
  1009                           
  1010  0074                     ?_LED_State:	
  1011                           ; 0 bytes @ 0x0
  1012                           
  1013  0074                     ?_Solenoid_State_F:	
  1014                           ; 0 bytes @ 0x0
  1015                           
  1016  0074                     ?_HOT_MAJOR_State_F:	
  1017                           ; 0 bytes @ 0x0
  1018                           
  1019  0074                     ?_NtcAD_Testing:	
  1020                           ; 0 bytes @ 0x0
  1021                           
  1022  0074                     ?_LED_Crt:	
  1023                           ; 0 bytes @ 0x0
  1024                           
  1025  0074                     ?_Init_System:	
  1026                           ; 0 bytes @ 0x0
  1027                           
  1028  0074                     ?_KeyServer:	
  1029                           ; 0 bytes @ 0x0
  1030                           
  1031  0074                     ?_Isr_Timer:	
  1032                           ; 0 bytes @ 0x0
  1033                           
  1034  0074                     ?_main:	
  1035                           ; 0 bytes @ 0x0
  1036                           
  1037  0074                     ?_Hex_To_Temp:	
  1038                           ; 0 bytes @ 0x0
  1039                           
  1040  0074                     ?_KeyClearOne:	
  1041                           ; 0 bytes @ 0x0
  1042                           
  1043  0074                     ?_KeyClearIn:	
  1044                           ; 0 bytes @ 0x0
  1045                           
  1046  0074                     ?_KeyStopClear:	
  1047                           ; 0 bytes @ 0x0
  1048                           
  1049  0074                     ?_ClearResSum:	
  1050                           ; 0 bytes @ 0x0
  1051                           
  1052  0074                     ?_GetTouchKeyValue:	
  1053                           ; 0 bytes @ 0x0
  1054                           
  1055  0074                     ?_CheckOnceResult:	
  1056                           ; 0 bytes @ 0x0
  1057                           
  1058  0074                     ?_CheckKeyOldValue:	
  1059                           ; 0 bytes @ 0x0
  1060                           
  1061  0074                     ?_TurnKeyFlags:	
  1062                           ; 0 bytes @ 0x0
  1063                           
  1064  0074                     ?_CheckValidTime:	
  1065                           ; 0 bytes @ 0x0
  1066                           
  1067  0074                     ?i1__74HC595_SET:	
  1068                           ; 0 bytes @ 0x0
  1069                           
  1070  0074                     ??i1__74HC595_SET:	
  1071                           ; 0 bytes @ 0x0
  1072                           
  1073  0074                     ?_AD_Sample:	
  1074                           ; 0 bytes @ 0x0
  1075                           
  1076  0074                     ?_KeyIsIn:	
  1077                           ; 1 bytes @ 0x0
  1078                           
  1079                           
  1080                           ; 1 bytes @ 0x0
  1081  0074                     	ds	1
  1082  0075                     i1__74HC595_SET@i:	
  1083                           
  1084                           ; 1 bytes @ 0x1
  1085  0075                     	ds	1
  1086  0076                     i1__74HC595_SET@j:	
  1087                           
  1088                           ; 1 bytes @ 0x2
  1089  0076                     	ds	1
  1090  0077                     ??_Set_Disp:	
  1091  0077                     ??_Isr_Timer:	
  1092                           ; 0 bytes @ 0x3
  1093                           
  1094                           
  1095                           ; 0 bytes @ 0x3
  1096  0077                     	ds	3
  1097                           
  1098                           	psect	cstackBANK0
  1099  005D                     __pcstackBANK0:	
  1100  005D                     ??__74HC595_SET:	
  1101  005D                     ??_AcTestZero:	
  1102                           ; 0 bytes @ 0x0
  1103                           
  1104  005D                     ??_LCD_FState:	
  1105                           ; 0 bytes @ 0x0
  1106                           
  1107  005D                     ??_CheckBuzzer:	
  1108                           ; 0 bytes @ 0x0
  1109                           
  1110  005D                     ??_LED_State:	
  1111                           ; 0 bytes @ 0x0
  1112                           
  1113  005D                     ??_Solenoid_State_F:	
  1114                           ; 0 bytes @ 0x0
  1115                           
  1116  005D                     ??_HOT_MAJOR_State_F:	
  1117                           ; 0 bytes @ 0x0
  1118                           
  1119  005D                     ??_LED_Crt:	
  1120                           ; 0 bytes @ 0x0
  1121                           
  1122  005D                     ?_DelayX:	
  1123                           ; 0 bytes @ 0x0
  1124                           
  1125  005D                     ??_KeyServer:	
  1126                           ; 0 bytes @ 0x0
  1127                           
  1128  005D                     ??_AD_Sample:	
  1129                           ; 0 bytes @ 0x0
  1130                           
  1131  005D                     ??_KeyIsIn:	
  1132                           ; 0 bytes @ 0x0
  1133                           
  1134  005D                     ??_KeyClearOne:	
  1135                           ; 0 bytes @ 0x0
  1136                           
  1137  005D                     ??_ClearResSum:	
  1138                           ; 0 bytes @ 0x0
  1139                           
  1140  005D                     ?_KeyHave:	
  1141                           ; 0 bytes @ 0x0
  1142                           
  1143  005D                     ??_CheckValidTime:	
  1144                           ; 0 bytes @ 0x0
  1145                           
  1146  005D                     ?___lbdiv:	
  1147                           ; 0 bytes @ 0x0
  1148                           
  1149  005D                     ?___lbmod:	
  1150                           ; 1 bytes @ 0x0
  1151                           
  1152  005D                     ?___lwdiv:	
  1153                           ; 1 bytes @ 0x0
  1154                           
  1155  005D                     ?___awdiv:	
  1156                           ; 2 bytes @ 0x0
  1157                           
  1158  005D                     ?___awmod:	
  1159                           ; 2 bytes @ 0x0
  1160                           
  1161  005D                     KeyIsIn@i:	
  1162                           ; 2 bytes @ 0x0
  1163                           
  1164  005D                     KeyClearOne@cnt:	
  1165                           ; 1 bytes @ 0x0
  1166                           
  1167  005D                     ClearResSum@cnt:	
  1168                           ; 1 bytes @ 0x0
  1169                           
  1170  005D                     ___lbdiv@divisor:	
  1171                           ; 1 bytes @ 0x0
  1172                           
  1173  005D                     ___lbmod@divisor:	
  1174                           ; 1 bytes @ 0x0
  1175                           
  1176  005D                     DelayX@i:	
  1177                           ; 1 bytes @ 0x0
  1178                           
  1179  005D                     KeyServer@i:	
  1180                           ; 2 bytes @ 0x0
  1181                           
  1182  005D                     KeyHave@flag:	
  1183                           ; 2 bytes @ 0x0
  1184                           
  1185  005D                     ___lwdiv@divisor:	
  1186                           ; 2 bytes @ 0x0
  1187                           
  1188  005D                     ___awdiv@divisor:	
  1189                           ; 2 bytes @ 0x0
  1190                           
  1191  005D                     ___awmod@divisor:	
  1192                           ; 2 bytes @ 0x0
  1193                           
  1194                           
  1195                           ; 2 bytes @ 0x0
  1196  005D                     	ds	1
  1197  005E                     ??_KeyStopClear:	
  1198  005E                     ??_GetTouchKeyValue:	
  1199                           ; 0 bytes @ 0x1
  1200                           
  1201  005E                     ??___lbdiv:	
  1202                           ; 0 bytes @ 0x1
  1203                           
  1204  005E                     ??___lbmod:	
  1205                           ; 0 bytes @ 0x1
  1206                           
  1207  005E                     __74HC595_SET@i:	
  1208                           ; 0 bytes @ 0x1
  1209                           
  1210  005E                     AD_Sample@adch:	
  1211                           ; 1 bytes @ 0x1
  1212                           
  1213  005E                     KeyIsIn@cnt:	
  1214                           ; 1 bytes @ 0x1
  1215                           
  1216  005E                     KeyStopClear@i:	
  1217                           ; 1 bytes @ 0x1
  1218                           
  1219  005E                     GetTouchKeyValue@temp:	
  1220                           ; 1 bytes @ 0x1
  1221                           
  1222  005E                     ___lbdiv@dividend:	
  1223                           ; 1 bytes @ 0x1
  1224                           
  1225                           
  1226                           ; 1 bytes @ 0x1
  1227  005E                     	ds	1
  1228  005F                     ??_DelayX:	
  1229  005F                     ??_KeyClearIn:	
  1230                           ; 0 bytes @ 0x2
  1231                           
  1232  005F                     ??_KeyHave:	
  1233                           ; 0 bytes @ 0x2
  1234                           
  1235  005F                     ??_CheckKeyOldValue:	
  1236                           ; 0 bytes @ 0x2
  1237                           
  1238  005F                     __74HC595_SET@j:	
  1239                           ; 0 bytes @ 0x2
  1240                           
  1241  005F                     KeyClearIn@cnt:	
  1242                           ; 1 bytes @ 0x2
  1243                           
  1244  005F                     KeyHave@cnt:	
  1245                           ; 1 bytes @ 0x2
  1246                           
  1247  005F                     GetTouchKeyValue@cnt:	
  1248                           ; 1 bytes @ 0x2
  1249                           
  1250  005F                     ___lbdiv@counter:	
  1251                           ; 1 bytes @ 0x2
  1252                           
  1253  005F                     ___lbmod@dividend:	
  1254                           ; 1 bytes @ 0x2
  1255                           
  1256  005F                     ___lwdiv@dividend:	
  1257                           ; 1 bytes @ 0x2
  1258                           
  1259  005F                     ___awdiv@dividend:	
  1260                           ; 2 bytes @ 0x2
  1261                           
  1262  005F                     ___awmod@dividend:	
  1263                           ; 2 bytes @ 0x2
  1264                           
  1265                           
  1266                           ; 2 bytes @ 0x2
  1267  005F                     	ds	1
  1268  0060                     ??_ShutDowm_Device:	
  1269  0060                     ??_Init_System:	
  1270                           ; 0 bytes @ 0x3
  1271                           
  1272  0060                     ??_CheckOnceResult:	
  1273                           ; 0 bytes @ 0x3
  1274                           
  1275  0060                     ??_TurnKeyFlags:	
  1276                           ; 0 bytes @ 0x3
  1277                           
  1278  0060                     ___lbdiv@quotient:	
  1279                           ; 0 bytes @ 0x3
  1280                           
  1281  0060                     ___lbmod@counter:	
  1282                           ; 1 bytes @ 0x3
  1283                           
  1284                           
  1285                           ; 1 bytes @ 0x3
  1286  0060                     	ds	1
  1287  0061                     ??___lwdiv:	
  1288  0061                     ??___awdiv:	
  1289                           ; 0 bytes @ 0x4
  1290                           
  1291  0061                     ??___awmod:	
  1292                           ; 0 bytes @ 0x4
  1293                           
  1294  0061                     ___lwdiv@counter:	
  1295                           ; 0 bytes @ 0x4
  1296                           
  1297  0061                     ___lbmod@rem:	
  1298                           ; 1 bytes @ 0x4
  1299                           
  1300  0061                     ___awdiv@counter:	
  1301                           ; 1 bytes @ 0x4
  1302                           
  1303  0061                     ___awmod@counter:	
  1304                           ; 1 bytes @ 0x4
  1305                           
  1306  0061                     CheckKeyOldValue@KeyResTemp:	
  1307                           ; 1 bytes @ 0x4
  1308                           
  1309                           
  1310                           ; 2 bytes @ 0x4
  1311  0061                     	ds	1
  1312  0062                     ___awdiv@sign:	
  1313  0062                     ___awmod@sign:	
  1314                           ; 1 bytes @ 0x5
  1315                           
  1316  0062                     ___lwdiv@quotient:	
  1317                           ; 1 bytes @ 0x5
  1318                           
  1319                           
  1320                           ; 2 bytes @ 0x5
  1321  0062                     	ds	1
  1322  0063                     ??_Hex_To_Temp:	
  1323  0063                     Hex_To_Temp@i:	
  1324                           ; 0 bytes @ 0x6
  1325                           
  1326  0063                     CheckKeyOldValue@KeyOldTemp:	
  1327                           ; 1 bytes @ 0x6
  1328                           
  1329  0063                     ___awdiv@quotient:	
  1330                           ; 2 bytes @ 0x6
  1331                           
  1332                           
  1333                           ; 2 bytes @ 0x6
  1334  0063                     	ds	1
  1335  0064                     ??_NtcAD_Testing:	
  1336  0064                     CheckOnceResult@OldValue:	
  1337                           ; 0 bytes @ 0x7
  1338                           
  1339  0064                     Hex_To_Temp@BCD:	
  1340                           ; 2 bytes @ 0x7
  1341                           
  1342                           
  1343                           ; 3 bytes @ 0x7
  1344  0064                     	ds	1
  1345  0065                     CheckKeyOldValue@cnt:	
  1346                           
  1347                           ; 1 bytes @ 0x8
  1348  0065                     	ds	1
  1349  0066                     CheckOnceResult@flag:	
  1350                           
  1351                           ; 1 bytes @ 0x9
  1352  0066                     	ds	1
  1353  0067                     Hex_To_Temp@data:	
  1354  0067                     CheckOnceResult@KeyValue:	
  1355                           ; 1 bytes @ 0xA
  1356                           
  1357                           
  1358                           ; 2 bytes @ 0xA
  1359  0067                     	ds	1
  1360  0068                     ??_Pattern:	
  1361  0068                     NtcAD_Testing@i:	
  1362                           ; 0 bytes @ 0xB
  1363                           
  1364                           
  1365                           ; 1 bytes @ 0xB
  1366  0068                     	ds	1
  1367  0069                     CheckOnceResult@KeyDown:	
  1368  0069                     NtcAD_Testing@data:	
  1369                           ; 1 bytes @ 0xC
  1370                           
  1371                           
  1372                           ; 2 bytes @ 0xC
  1373  0069                     	ds	1
  1374  006A                     CheckOnceResult@KeyResTemp:	
  1375                           
  1376                           ; 2 bytes @ 0xD
  1377  006A                     	ds	2
  1378  006C                     CheckOnceResult@cnt:	
  1379                           
  1380                           ; 1 bytes @ 0xF
  1381  006C                     	ds	1
  1382  006D                     ??_CheckTouchKey:	
  1383  006D                     ??_main:	
  1384                           ; 0 bytes @ 0x10
  1385                           
  1386                           
  1387                           	psect	maintext
  1388  14D2                     __pmaintext:	
  1389                           ; 0 bytes @ 0x10
  1390 ;;Data sizes: Strings 0, constant 481, data 3, bss 281, persistent 0 stack 0
  1391 ;;Auto spaces:   Size  Autos    Used
  1392 ;; COMMON          14      6      13
  1393 ;; BANK0           80     16      80
  1394 ;; BANK1           80      0      79
  1395 ;; BANK3           88      0      78
  1396 ;; BANK2           80      0      60
  1397 ;;
  1398 ;; Pointer list with targets:
  1399 ;; ?___awdiv	int  size(1) Largest target is 0
  1400 ;;
  1401 ;; ?___awmod	int  size(1) Largest target is 0
  1402 ;;
  1403 ;; ?___lwdiv	unsigned int  size(1) Largest target is 0
  1404 ;;
  1405 ;;
  1406 ;; Critical Paths under _main in COMMON
  1407 ;;
  1408 ;;   None.
  1409 ;;
  1410 ;; Critical Paths under _Isr_Timer in COMMON
  1411 ;;
  1412 ;;   _Set_Disp->i1__74HC595_SET
  1413 ;;
  1414 ;; Critical Paths under _main in BANK0
  1415 ;;
  1416 ;;   _CheckTouchKey->_CheckOnceResult
  1417 ;;   _TurnKeyFlags->_KeyClearIn
  1418 ;;   _Pattern->_Hex_To_Temp
  1419 ;;   _CheckKeyOldValue->_KeyIsIn
  1420 ;;   _CheckOnceResult->_KeyHave
  1421 ;;   _GetTouchKeyValue->_ClearResSum
  1422 ;;   _KeyStopClear->_KeyClearOne
  1423 ;;   _KeyClearIn->_KeyIsIn
  1424 ;;   _Hex_To_Temp->___awmod
  1425 ;;   _NtcAD_Testing->___lwdiv
  1426 ;;   _ShutDowm_Device->__74HC595_SET
  1427 ;;   _Init_System->__74HC595_SET
  1428 ;;
  1429 ;; Critical Paths under _Isr_Timer in BANK0
  1430 ;;
  1431 ;;   None.
  1432 ;;
  1433 ;; Critical Paths under _main in BANK1
  1434 ;;
  1435 ;;   None.
  1436 ;;
  1437 ;; Critical Paths under _Isr_Timer in BANK1
  1438 ;;
  1439 ;;   None.
  1440 ;;
  1441 ;; Critical Paths under _main in BANK3
  1442 ;;
  1443 ;;   None.
  1444 ;;
  1445 ;; Critical Paths under _Isr_Timer in BANK3
  1446 ;;
  1447 ;;   None.
  1448 ;;
  1449 ;; Critical Paths under _main in BANK2
  1450 ;;
  1451 ;;   None.
  1452 ;;
  1453 ;; Critical Paths under _Isr_Timer in BANK2
  1454 ;;
  1455 ;;   None.
  1456 ;;
  1457 ;;Main: autosize = 0, tempsize = 0, incstack = 0, save=0
  1458 ;;
  1459 ;;
  1460 ;;Call Graph Tables:
  1461 ;;
  1462 ;; ---------------------------------------------------------------------------------
  1463 ;; (Depth) Function   	        Calls       Base Space   Used Autos Params    Refs
  1464 ;; ---------------------------------------------------------------------------------
  1465 ;; (0) _main                                                 0     0      0    7020
  1466 ;;                        _Init_System
  1467 ;;                       __74HC595_SET
  1468 ;;                         _AcTestZero
  1469 ;;                    _ShutDowm_Device
  1470 ;;                      _CheckTouchKey
  1471 ;;                          _KeyServer
  1472 ;;                            _Pattern
  1473 ;;                         _LCD_FState
  1474 ;;                        _CheckBuzzer
  1475 ;;                          _LED_State
  1476 ;;                   _Solenoid_State_F
  1477 ;;                  _HOT_MAJOR_State_F
  1478 ;;                      _NtcAD_Testing
  1479 ;; ---------------------------------------------------------------------------------
  1480 ;; (1) _CheckTouchKey                                        0     0      0    3580
  1481 ;;                   _GetTouchKeyValue
  1482 ;;                    _CheckOnceResult
  1483 ;;                       _TurnKeyFlags
  1484 ;;                       _KeyStopClear
  1485 ;;                   _CheckKeyOldValue
  1486 ;;                        _ClearResSum
  1487 ;;                     _CheckValidTime
  1488 ;; ---------------------------------------------------------------------------------
  1489 ;; (2) _TurnKeyFlags                                         0     0      0     356
  1490 ;;                         _KeyClearIn
  1491 ;; ---------------------------------------------------------------------------------
  1492 ;; (1) _Pattern                                              1     1      0    2292
  1493 ;;                                             11 BANK0      1     1      0
  1494 ;;                            _LED_Crt
  1495 ;;                            ___awdiv
  1496 ;;                            ___awmod
  1497 ;;                            ___lbdiv
  1498 ;;                            ___lbmod
  1499 ;;                        _Hex_To_Temp
  1500 ;; ---------------------------------------------------------------------------------
  1501 ;; (2) _CheckKeyOldValue                                     7     7      0     839
  1502 ;;                                              2 BANK0      7     7      0
  1503 ;;                            _KeyIsIn
  1504 ;; ---------------------------------------------------------------------------------
  1505 ;; (2) _CheckOnceResult                                     13    13      0    1840
  1506 ;;                                              3 BANK0     13    13      0
  1507 ;;                            _KeyIsIn
  1508 ;;                            _KeyHave
  1509 ;;                        _KeyClearOne
  1510 ;; ---------------------------------------------------------------------------------
  1511 ;; (2) _GetTouchKeyValue                                     2     2      0     226
  1512 ;;                                              1 BANK0      2     2      0
  1513 ;;                        _ClearResSum
  1514 ;; ---------------------------------------------------------------------------------
  1515 ;; (2) _KeyStopClear                                         1     1      0     254
  1516 ;;                                              1 BANK0      1     1      0
  1517 ;;                        _KeyClearOne
  1518 ;; ---------------------------------------------------------------------------------
  1519 ;; (3) _KeyClearIn                                           1     1      0     356
  1520 ;;                                              2 BANK0      1     1      0
  1521 ;;                            _KeyIsIn
  1522 ;;                        _KeyClearOne
  1523 ;; ---------------------------------------------------------------------------------
  1524 ;; (2) _Hex_To_Temp                                          5     5      0    1014
  1525 ;;                                              6 BANK0      5     5      0
  1526 ;;                            ___awmod
  1527 ;;                            ___lbdiv
  1528 ;; ---------------------------------------------------------------------------------
  1529 ;; (1) _NtcAD_Testing                                        7     7      0     520
  1530 ;;                                              7 BANK0      7     7      0
  1531 ;;                          _AD_Sample
  1532 ;;                            ___lwdiv
  1533 ;; ---------------------------------------------------------------------------------
  1534 ;; (1) _ShutDowm_Device                                      0     0      0     136
  1535 ;;                       __74HC595_SET
  1536 ;; ---------------------------------------------------------------------------------
  1537 ;; (1) _Init_System                                          0     0      0     167
  1538 ;;                       __74HC595_SET
  1539 ;;                             _DelayX
  1540 ;; ---------------------------------------------------------------------------------
  1541 ;; (3) ___awmod                                              6     2      4     433
  1542 ;;                                              0 BANK0      6     2      4
  1543 ;; ---------------------------------------------------------------------------------
  1544 ;; (2) ___awdiv                                              8     4      4     445
  1545 ;;                                              0 BANK0      8     4      4
  1546 ;; ---------------------------------------------------------------------------------
  1547 ;; (2) ___lbmod                                              5     4      1     159
  1548 ;;                                              0 BANK0      5     4      1
  1549 ;; ---------------------------------------------------------------------------------
  1550 ;; (3) ___lbdiv                                              4     3      1     241
  1551 ;;                                              0 BANK0      4     3      1
  1552 ;; ---------------------------------------------------------------------------------
  1553 ;; (2) ___lwdiv                                              7     3      4     241
  1554 ;;                                              0 BANK0      7     3      4
  1555 ;; ---------------------------------------------------------------------------------
  1556 ;; (2) _CheckValidTime                                       0     0      0       0
  1557 ;; ---------------------------------------------------------------------------------
  1558 ;; (3) _KeyHave                                              3     1      2     186
  1559 ;;                                              0 BANK0      3     1      2
  1560 ;; ---------------------------------------------------------------------------------
  1561 ;; (2) _ClearResSum                                          1     1      0      65
  1562 ;;                                              0 BANK0      1     1      0
  1563 ;; ---------------------------------------------------------------------------------
  1564 ;; (3) _KeyClearOne                                          1     1      0     124
  1565 ;;                                              0 BANK0      1     1      0
  1566 ;; ---------------------------------------------------------------------------------
  1567 ;; (3) _KeyIsIn                                              2     2      0     102
  1568 ;;                                              0 BANK0      2     2      0
  1569 ;; ---------------------------------------------------------------------------------
  1570 ;; (2) _AD_Sample                                            2     2      0      22
  1571 ;;                                              0 BANK0      2     2      0
  1572 ;; ---------------------------------------------------------------------------------
  1573 ;; (2) _LED_Crt                                              0     0      0       0
  1574 ;; ---------------------------------------------------------------------------------
  1575 ;; (1) _HOT_MAJOR_State_F                                    0     0      0       0
  1576 ;; ---------------------------------------------------------------------------------
  1577 ;; (1) _Solenoid_State_F                                     0     0      0       0
  1578 ;; ---------------------------------------------------------------------------------
  1579 ;; (1) _LED_State                                            0     0      0       0
  1580 ;; ---------------------------------------------------------------------------------
  1581 ;; (1) _CheckBuzzer                                          0     0      0       0
  1582 ;; ---------------------------------------------------------------------------------
  1583 ;; (1) _LCD_FState                                           0     0      0       0
  1584 ;; ---------------------------------------------------------------------------------
  1585 ;; (1) _AcTestZero                                           1     1      0       0
  1586 ;;                                              0 BANK0      1     1      0
  1587 ;; ---------------------------------------------------------------------------------
  1588 ;; (1) _KeyServer                                            2     2      0     189
  1589 ;;                                              0 BANK0      2     2      0
  1590 ;; ---------------------------------------------------------------------------------
  1591 ;; (2) __74HC595_SET                                         3     3      0     136
  1592 ;;                                              0 BANK0      3     3      0
  1593 ;; ---------------------------------------------------------------------------------
  1594 ;; (2) _DelayX                                               2     0      2      31
  1595 ;;                                              0 BANK0      2     0      2
  1596 ;; ---------------------------------------------------------------------------------
  1597 ;; Estimated maximum stack depth 3
  1598 ;; ---------------------------------------------------------------------------------
  1599 ;; (Depth) Function   	        Calls       Base Space   Used Autos Params    Refs
  1600 ;; ---------------------------------------------------------------------------------
  1601 ;; (5) _Isr_Timer                                            3     3      0     446
  1602 ;;                                              3 COMMON     3     3      0
  1603 ;;                           _Set_Disp
  1604 ;; ---------------------------------------------------------------------------------
  1605 ;; (6) _Set_Disp                                             0     0      0     446
  1606 ;;                     i1__74HC595_SET
  1607 ;; ---------------------------------------------------------------------------------
  1608 ;; (7) i1__74HC595_SET                                       3     3      0     446
  1609 ;;                                              0 COMMON     3     3      0
  1610 ;; ---------------------------------------------------------------------------------
  1611 ;; Estimated maximum stack depth 7
  1612 ;; ---------------------------------------------------------------------------------
  1613 ;; Call Graph Graphs:
  1614 ;; _main (ROOT)
  1615 ;;   _Init_System
  1616 ;;     __74HC595_SET
  1617 ;;     _DelayX
  1618 ;;   __74HC595_SET
  1619 ;;   _AcTestZero
  1620 ;;   _ShutDowm_Device
  1621 ;;     __74HC595_SET
  1622 ;;   _CheckTouchKey
  1623 ;;     _GetTouchKeyValue
  1624 ;;       _ClearResSum
  1625 ;;     _CheckOnceResult
  1626 ;;       _KeyIsIn
  1627 ;;       _KeyHave
  1628 ;;       _KeyClearOne
  1629 ;;     _TurnKeyFlags
  1630 ;;       _KeyClearIn
  1631 ;;         _KeyIsIn
  1632 ;;         _KeyClearOne
  1633 ;;     _KeyStopClear
  1634 ;;       _KeyClearOne
  1635 ;;     _CheckKeyOldValue
  1636 ;;       _KeyIsIn
  1637 ;;     _ClearResSum
  1638 ;;     _CheckValidTime
  1639 ;;   _KeyServer
  1640 ;;   _Pattern
  1641 ;;     _LED_Crt
  1642 ;;     ___awdiv
  1643 ;;     ___awmod
  1644 ;;     ___lbdiv
  1645 ;;     ___lbmod
  1646 ;;     _Hex_To_Temp
  1647 ;;       ___awmod
  1648 ;;       ___lbdiv
  1649 ;;   _LCD_FState
  1650 ;;   _CheckBuzzer
  1651 ;;   _LED_State
  1652 ;;   _Solenoid_State_F
  1653 ;;   _HOT_MAJOR_State_F
  1654 ;;   _NtcAD_Testing
  1655 ;;     _AD_Sample
  1656 ;;     ___lwdiv
  1657 ;;
  1658 ;; _Isr_Timer (ROOT)
  1659 ;;   _Set_Disp
  1660 ;;     i1__74HC595_SET
  1661 ;;
  1662 ;; Address spaces:
  1663 ;;Name               Size   Autos  Total    Cost      Usage
  1664 ;;BANK3               58      0      4E       9       88.6%
  1665 ;;BITBANK3            58      0       0       8        0.0%
  1666 ;;SFR3                 0      0       0       4        0.0%
  1667 ;;BITSFR3              0      0       0       4        0.0%
  1668 ;;BANK2               50      0      3C      11       75.0%
  1669 ;;BITBANK2            50      0       0      10        0.0%
  1670 ;;SFR2                 0      0       0       5        0.0%
  1671 ;;BITSFR2              0      0       0       5        0.0%
  1672 ;;SFR1                 0      0       0       2        0.0%
  1673 ;;BITSFR1              0      0       0       2        0.0%
  1674 ;;BANK1               50      0      4F       7       98.8%
  1675 ;;BITBANK1            50      0       0       6        0.0%
  1676 ;;CODE                 0      0       0       0        0.0%
  1677 ;;DATA                 0      0     140      12        0.0%
  1678 ;;ABS                  0      0     136       3        0.0%
  1679 ;;NULL                 0      0       0       0        0.0%
  1680 ;;STACK                0      0       A       2        0.0%
  1681 ;;BANK0               50     10      50       5      100.0%
  1682 ;;BITBANK0            50      0       0       4        0.0%
  1683 ;;SFR0                 0      0       0       1        0.0%
  1684 ;;BITSFR0              0      0       0       1        0.0%
  1685 ;;COMMON               E      6       D       1       92.9%
  1686 ;;BITCOMMON            E      0       4       0       28.6%
  1687 ;;EEDATA              40      0       0       0        0.0%
  1688                           
  1689                           
  1690 ;; *************** function _main *****************
  1691 ;; Defined at:
  1692 ;;		line 273 in file "E:\BBA'DATA\\\V4.7\main.c"
  1693 ;; Parameters:    Size  Location     Type
  1694 ;;		None
  1695 ;; Auto vars:     Size  Location     Type
  1696 ;;		None
  1697 ;; Return value:  Size  Location     Type
  1698 ;;		None               void
  1699 ;; Registers used:
  1700 ;;		wreg, fsr0l, fsr0h, status,2, status,0, btemp+1, pclath, cstack
  1701 ;; Tracked objects:
  1702 ;;		On entry : 17F/0
  1703 ;;		On exit  : 60/0
  1704 ;;		Unchanged: FFE00/0
  1705 ;; Data sizes:     COMMON   BANK0   BANK1   BANK3   BANK2
  1706 ;;      Params:         0       0       0       0       0
  1707 ;;      Locals:         0       0       0       0       0
  1708 ;;      Temps:          0       0       0       0       0
  1709 ;;      Totals:         0       0       0       0       0
  1710 ;;Total ram usage:        0 bytes
  1711 ;; Hardware stack levels required when called:    7
  1712 ;; This function calls:
  1713 ;;		_Init_System
  1714 ;;		__74HC595_SET
  1715 ;;		_AcTestZero
  1716 ;;		_ShutDowm_Device
  1717 ;;		_CheckTouchKey
  1718 ;;		_KeyServer
  1719 ;;		_Pattern
  1720 ;;		_LCD_FState
  1721 ;;		_CheckBuzzer
  1722 ;;		_LED_State
  1723 ;;		_Solenoid_State_F
  1724 ;;		_HOT_MAJOR_State_F
  1725 ;;		_NtcAD_Testing
  1726 ;; This function is called by:
  1727 ;;		Startup code after reset
  1728 ;; This function uses a non-reentrant model
  1729 ;;
  1730  14D2                     _main:	
  1731                           
  1732                           ;main.c: 274: Init_System();
  1733                           
  1734                           ; Regs used in _main: [wreg-fsr0h+status,2+status,0+btemp+1+pclath+cstack]
  1735  14D2  160A  118A  2523   	fcall	_Init_System
      +       160A  118A         
  1736                           
  1737                           ;main.c: 276: _74HC595_SET();
  1738  14D7  160A  118A  25AA   	fcall	__74HC595_SET
      +       160A  118A         
  1739  14DC  30B0               	movlw	176
  1740                           
  1741                           ;main.c: 277: No_AC=0;
  1742  14DD  1372               	bcf	_No_AC/(0+8),_No_AC& (0+7)
  1743                           
  1744                           ;main.c: 286: LCDCON0=0B10110000;
  1745  14DE  1683               	bsf	3,5	;RP0=1, select bank3
  1746  14DF  1703               	bsf	3,6	;RP1=1, select bank3
  1747  14E0  0090               	movwf	16	;volatile
  1748                           
  1749                           ;main.c: 287: LCDADD =0B01100000;
  1750  14E1  3060               	movlw	96
  1751  14E2  0092               	movwf	18	;volatile
  1752  14E3                     l16275:	
  1753                           
  1754                           ;main.c: 293: {
  1755                           ;main.c: 294: if(B_MainLoop)
  1756  14E3  1C70               	btfss	_B_MainLoop/(0+8),_B_MainLoop& (0+7)
  1757  14E4  2CE3               	goto	l16275
  1758                           
  1759                           ;main.c: 295: {
  1760                           ;main.c: 296: B_MainLoop = 0;
  1761  14E5  1070               	bcf	_B_MainLoop/(0+8),_B_MainLoop& (0+7)
  1762  14E6  0064               	clrwdt	;#
  1763                           
  1764                           ;main.c: 298: AcTestZero();
  1765  14E7  160A  118A  23E9   	fcall	_AcTestZero
      +       160A  118A         
  1766                           
  1767                           ;main.c: 304: if(No_AC)
  1768  14EC  1F72               	btfss	_No_AC/(0+8),_No_AC& (0+7)
  1769  14ED  2CF4               	goto	l16285
  1770                           
  1771                           ;main.c: 305: {
  1772                           ;main.c: 306: ShutDowm_Device();
  1773  14EE  160A  118A  2553   	fcall	_ShutDowm_Device
      +       160A  118A         
  1774                           
  1775                           ;main.c: 307: continue;
  1776  14F3  2CE3               	goto	l16275
  1777  14F4                     l16285:	
  1778                           
  1779                           ;main.c: 308: }
  1780                           ;main.c: 309: CheckTouchKey();
  1781  14F4  120A  158A  2522   	fcall	_CheckTouchKey
      +       160A  118A         
  1782                           
  1783                           ;main.c: 310: KeyServer();
  1784  14F9  160A  118A  26F0   	fcall	_KeyServer
      +       160A  118A         
  1785                           
  1786                           ;main.c: 311: Pattern();
  1787  14FE  120A  118A  2011   	fcall	_Pattern
      +       160A  118A         
  1788                           
  1789                           ;main.c: 312: LCD_FState();
  1790  1503  120A  118A  2787   	fcall	_LCD_FState
      +       160A  118A         
  1791                           
  1792                           ;main.c: 313: CheckBuzzer();
  1793  1508  160A  118A  23CC   	fcall	_CheckBuzzer
      +       160A  118A         
  1794                           
  1795                           ;main.c: 314: LED_State();
  1796  150D  120A  158A  232F   	fcall	_LED_State
      +       160A  118A         
  1797                           
  1798                           ;main.c: 315: Solenoid_State_F();
  1799  1512  160A  118A  2440   	fcall	_Solenoid_State_F
      +       160A  118A         
  1800                           
  1801                           ;main.c: 316: HOT_MAJOR_State_F();
  1802  1517  160A  118A  2487   	fcall	_HOT_MAJOR_State_F
      +       160A  118A         
  1803                           
  1804                           ;main.c: 318: NtcAD_Testing(6);
  1805  151C  3006               	movlw	6
  1806  151D  120A  158A  2014   	fcall	_NtcAD_Testing
      +       160A  118A         
  1807  1522  2CE3               	goto	l16275
  1808  1523                     __end_of_main:	
  1809                           
  1810                           	psect	text1269
  1811  0D22                     __ptext1269:	
  1812 ;; =============== function _main ends ============
  1813                           
  1814                           
  1815 ;; *************** function _CheckTouchKey *****************
  1816 ;; Defined at:
  1817 ;;		line 496 in file "F:\2016\\Library Source Code\TouchKey_Library_V102\CMS69F628_TK_Lib\CheckTouchKey.c"
  1818 ;; Parameters:    Size  Location     Type
  1819 ;;		None
  1820 ;; Auto vars:     Size  Location     Type
  1821 ;;		None
  1822 ;; Return value:  Size  Location     Type
  1823 ;;		None               void
  1824 ;; Registers used:
  1825 ;;		wreg, fsr0l, fsr0h, status,2, status,0, btemp+1, pclath, cstack
  1826 ;; Tracked objects:
  1827 ;;		On entry : 60/20
  1828 ;;		On exit  : 60/60
  1829 ;;		Unchanged: FFE9F/0
  1830 ;; Data sizes:     COMMON   BANK0   BANK1   BANK3   BANK2
  1831 ;;      Params:         0       0       0       0       0
  1832 ;;      Locals:         0       0       0       0       0
  1833 ;;      Temps:          0       0       0       0       0
  1834 ;;      Totals:         0       0       0       0       0
  1835 ;;Total ram usage:        0 bytes
  1836 ;; Hardware stack levels used:    1
  1837 ;; Hardware stack levels required when called:    6
  1838 ;; This function calls:
  1839 ;;		_GetTouchKeyValue
  1840 ;;		_CheckOnceResult
  1841 ;;		_TurnKeyFlags
  1842 ;;		_KeyStopClear
  1843 ;;		_CheckKeyOldValue
  1844 ;;		_ClearResSum
  1845 ;;		_CheckValidTime
  1846 ;; This function is called by:
  1847 ;;		_main
  1848 ;; This function uses a non-reentrant model
  1849 ;;
  1850  0D22                     _CheckTouchKey:	
  1851                           
  1852                           ;CheckTouchKey.c: 497: if(!b_kover)
  1853                           
  1854                           ; Regs used in _CheckTouchKey: [wreg-fsr0h+status,2+status,0+btemp+1+pclath+cstack]
  1855  0D22  1973               	btfsc	_b_kover/(0+8),_b_kover& (0+7)
  1856  0D23  2D2F               	goto	l7006
  1857                           
  1858                           ;CheckTouchKey.c: 498: {
  1859                           ;CheckTouchKey.c: 500: GetTouchKeyValue();
  1860  0D24  2550  120A  158A   	fcall	_GetTouchKeyValue
  1861                           
  1862                           ;CheckTouchKey.c: 501: if(++KeyCounter >= 8)
  1863  0D27  3008               	movlw	8
  1864  0D28  0AC0               	incf	_KeyCounter,f
  1865  0D29  0240               	subwf	_KeyCounter,w
  1866  0D2A  1C03               	skipc
  1867  0D2B  2D4F               	goto	l16265
  1868                           
  1869                           ;CheckTouchKey.c: 502: {
  1870                           ;CheckTouchKey.c: 503: KeyCounter = 0;
  1871  0D2C  01C0               	clrf	_KeyCounter
  1872                           
  1873                           ;CheckTouchKey.c: 504: b_kover = 1;
  1874  0D2D  1573               	bsf	_b_kover/(0+8),_b_kover& (0+7)
  1875  0D2E  2D4F               	goto	l16265
  1876  0D2F                     l7006:	
  1877                           
  1878                           ;CheckTouchKey.c: 507: else if(!b_kover1)
  1879  0D2F  19F3               	btfsc	_b_kover1/(0+8),_b_kover1& (0+7)
  1880  0D30  2D47               	goto	l16257
  1881                           
  1882                           ;CheckTouchKey.c: 508: {
  1883                           ;CheckTouchKey.c: 510: CheckOnceResult();
  1884  0D31  25BA  120A  158A   	fcall	_CheckOnceResult
  1885                           
  1886                           ;CheckTouchKey.c: 513: TurnKeyFlags();
  1887  0D34  2768  120A  158A   	fcall	_TurnKeyFlags
  1888                           
  1889                           ;CheckTouchKey.c: 514: b_kover1 = 1;
  1890  0D37  15F3               	bsf	_b_kover1/(0+8),_b_kover1& (0+7)
  1891                           
  1892                           ;CheckTouchKey.c: 520: if(b_kerr || KeyCounter > KeyValidNumber)
  1893  0D38  18F3               	btfsc	_b_kerr/(0+8),_b_kerr& (0+7)
  1894  0D39  2D3F               	goto	l16247
  1895  0D3A  3002               	movlw	2
  1896  0D3B  1283               	bcf	3,5	;RP0=0, select bank0
  1897  0D3C  0240               	subwf	_KeyCounter,w
  1898  0D3D  1C03               	skipc
  1899  0D3E  2D45               	goto	l16255
  1900  0D3F                     l16247:	
  1901                           
  1902                           ;CheckTouchKey.c: 521: {
  1903                           ;CheckTouchKey.c: 522: KeyStopClear();
  1904  0D3F  26DF  120A  158A   	fcall	_KeyStopClear
  1905                           
  1906                           ;CheckTouchKey.c: 523: b_kerr = 0;
  1907  0D42  10F3               	bcf	_b_kerr/(0+8),_b_kerr& (0+7)
  1908                           
  1909                           ;CheckTouchKey.c: 524: b_kover = 0;
  1910  0D43  1173               	bcf	_b_kover/(0+8),_b_kover& (0+7)
  1911                           
  1912                           ;CheckTouchKey.c: 525: b_kover1 = 0;
  1913  0D44  11F3               	bcf	_b_kover1/(0+8),_b_kover1& (0+7)
  1914  0D45                     l16255:	
  1915                           
  1916                           ;CheckTouchKey.c: 526: }
  1917                           ;CheckTouchKey.c: 527: KeyCounter = 0;
  1918  0D45  01C0               	clrf	_KeyCounter
  1919                           
  1920                           ;CheckTouchKey.c: 528: }
  1921  0D46  2D4F               	goto	l16265
  1922  0D47                     l16257:	
  1923                           
  1924                           ;CheckTouchKey.c: 529: else
  1925                           ;CheckTouchKey.c: 530: {
  1926                           ;CheckTouchKey.c: 532: CheckKeyOldValue();
  1927  0D47  26F5  120A  158A   	fcall	_CheckKeyOldValue
  1928                           
  1929                           ;CheckTouchKey.c: 534: ClearResSum();
  1930  0D4A  2598  120A  158A   	fcall	_ClearResSum
  1931                           
  1932                           ;CheckTouchKey.c: 536: b_kover = 0;
  1933  0D4D  1173               	bcf	_b_kover/(0+8),_b_kover& (0+7)
  1934                           
  1935                           ;CheckTouchKey.c: 537: b_kover1 = 0;
  1936  0D4E  11F3               	bcf	_b_kover1/(0+8),_b_kover1& (0+7)
  1937  0D4F                     l16265:	
  1938                           
  1939                           ;CheckTouchKey.c: 538: }
  1940                           ;CheckTouchKey.c: 540: CheckValidTime();
  1941  0D4F  2FA0               	ljmp	l14919
  1942  0D50                     __end_of_CheckTouchKey:	
  1943  0D50                     __ptext1274:	
  1944 ;; =============== function _CheckOnceResult ends ============
  1945                           
  1946                           
  1947 ;; *************** function _GetTouchKeyValue *****************
  1948 ;; Defined at:
  1949 ;;		line 181 in file "F:\2016\\Library Source Code\TouchKey_Library_V102\CMS69F628_TK_Lib\CheckTouchKey.c"
  1950 ;; Parameters:    Size  Location     Type
  1951 ;;		None
  1952 ;; Auto vars:     Size  Location     Type
  1953 ;;  cnt             1    2[BANK0 ] unsigned char 
  1954 ;;  temp            1    1[BANK0 ] unsigned char 
  1955 ;; Return value:  Size  Location     Type
  1956 ;;		None               void
  1957 ;; Registers used:
  1958 ;;		wreg, fsr0l, fsr0h, status,2, status,0, btemp+1, pclath, cstack
  1959 ;; Tracked objects:
  1960 ;;		On entry : 60/20
  1961 ;;		On exit  : 160/100
  1962 ;;		Unchanged: FFE9F/0
  1963 ;; Data sizes:     COMMON   BANK0   BANK1   BANK3   BANK2
  1964 ;;      Params:         0       0       0       0       0
  1965 ;;      Locals:         0       2       0       0       0
  1966 ;;      Temps:          0       0       0       0       0
  1967 ;;      Totals:         0       2       0       0       0
  1968 ;;Total ram usage:        2 bytes
  1969 ;; Hardware stack levels used:    1
  1970 ;; Hardware stack levels required when called:    4
  1971 ;; This function calls:
  1972 ;;		_ClearResSum
  1973 ;; This function is called by:
  1974 ;;		_CheckTouchKey
  1975 ;; This function uses a non-reentrant model
  1976 ;;
  1977  0D50                     _GetTouchKeyValue:	
  1978                           
  1979                           ;CheckTouchKey.c: 182: unsigned char cnt = 0,temp;
  1980                           
  1981                           ; Regs used in _GetTouchKeyValue: [wreg-fsr0h+status,2+status,0+btemp+1+pclath+cstack]
  1982  0D50  1283               	bcf	3,5	;RP0=0, select bank0
  1983  0D51  01DF               	clrf	GetTouchKeyValue@cnt
  1984  0D52                     l6927:	
  1985                           ;CheckTouchKey.c: 184: do
  1986                           
  1987                           
  1988                           ;CheckTouchKey.c: 185: {
  1989                           ;CheckTouchKey.c: 186: KEYCON0 = 0;
  1990  0D52  1703               	bsf	3,6	;RP1=1, select bank2
  1991  0D53  0193               	clrf	19	;volatile
  1992                           
  1993                           ;CheckTouchKey.c: 187: KEYCON1 = 0;
  1994  0D54  0194               	clrf	20	;volatile
  1995                           
  1996                           ;CheckTouchKey.c: 194: KEYCON0 = Table_KeyCap[cnt];
  1997  0D55  1303               	bcf	3,6	;RP1=0, select bank0
  1998  0D56  085F               	movf	GetTouchKeyValue@cnt,w
  1999  0D57  3EC7               	addlw	low (_Table_KeyCap| (0+32768))
  2000  0D58  0084               	movwf	4
  2001  0D59  3091               	movlw	high (_Table_KeyCap| (0+32768))
  2002  0D5A  1803               	skipnc
  2003  0D5B  3E01               	addlw	1
  2004  0D5C  00FF               	movwf	127
  2005  0D5D  160A  118A  2000   	fcall	stringtab
      +       120A  158A         
  2006  0D62  1703               	bsf	3,6	;RP1=1, select bank2
  2007  0D63  0093               	movwf	19	;volatile
  2008                           
  2009                           ;CheckTouchKey.c: 195: KEYCON1 = Table_KeyChannel[cnt];
  2010  0D64  1303               	bcf	3,6	;RP1=0, select bank0
  2011  0D65  085F               	movf	GetTouchKeyValue@cnt,w
  2012  0D66  3ED3               	addlw	low (_Table_KeyChannel| (0+32768))
  2013  0D67  0084               	movwf	4
  2014  0D68  3091               	movlw	high (_Table_KeyChannel| (0+32768))
  2015  0D69  1803               	skipnc
  2016  0D6A  3E01               	addlw	1
  2017  0D6B  00FF               	movwf	127
  2018  0D6C  160A  118A  2000   	fcall	stringtab
      +       120A  158A         
  2019  0D71  1703               	bsf	3,6	;RP1=1, select bank2
  2020  0D72  0094               	movwf	20	;volatile
  2021                           
  2022                           ;CheckTouchKey.c: 196: KEYCON0 |= 0x1;
  2023  0D73  1413               	bsf	19,0	;volatile
  2024                           
  2025                           ;CheckTouchKey.c: 198: temp = 0;
  2026  0D74  1303               	bcf	3,6	;RP1=0, select bank0
  2027  0D75  01DE               	clrf	GetTouchKeyValue@temp
  2028  0D76                     l6928:	
  2029                           ;CheckTouchKey.c: 199: while(!(KEYCON0&0x80))
  2030                           
  2031  0D76  1703               	bsf	3,6	;RP1=1, select bank2
  2032  0D77  1B93               	btfsc	19,7
  2033  0D78  2D7F               	goto	l15317
  2034                           
  2035                           ;CheckTouchKey.c: 200: {
  2036                           ;CheckTouchKey.c: 201: if(0 == (--temp))
  2037  0D79  1303               	bcf	3,6	;RP1=0, select bank0
  2038  0D7A  0BDE               	decfsz	GetTouchKeyValue@temp,f
  2039  0D7B  2D76               	goto	l6928
  2040                           
  2041                           ;CheckTouchKey.c: 202: {
  2042                           ;CheckTouchKey.c: 203: KeyCounter = 255;
  2043  0D7C  30FF               	movlw	255
  2044  0D7D  00C0               	movwf	_KeyCounter
  2045                           
  2046                           ;CheckTouchKey.c: 204: ClearResSum();
  2047  0D7E  2D98               	ljmp	l14897
  2048  0D7F                     l15317:	
  2049                           
  2050                           ;CheckTouchKey.c: 206: }
  2051                           ;CheckTouchKey.c: 207: }
  2052                           ;CheckTouchKey.c: 209: KeyResSum[cnt] += ((KEYDATAH<<8) | KEYDATAL);
  2053  0D7F  1303               	bcf	3,6	;RP1=0, select bank0
  2054  0D80  1003               	clrc
  2055  0D81  0D5F               	rlf	GetTouchKeyValue@cnt,w
  2056  0D82  3EC8               	addlw	_KeyResSum& (0+255)
  2057  0D83  0084               	movwf	4
  2058  0D84  1703               	bsf	3,6	;RP1=1, select bank2
  2059  0D85  0815               	movf	21,w	;volatile
  2060  0D86  1783               	bsf	3,7	;select IRP bank3
  2061  0D87  0780               	addwf	0,f
  2062  0D88  0F84               	incfsz	4,f
  2063  0D89  0800               	movf	0,w
  2064  0D8A  1803               	skipnc
  2065  0D8B  0A00               	incf	0,w
  2066  0D8C  00FF               	movwf	127
  2067  0D8D  0816               	movf	22,w	;volatile
  2068  0D8E  077F               	addwf	127,w
  2069  0D8F  0080               	movwf	0
  2070  0D90  300C               	movlw	12
  2071  0D91  0384               	decf	4,f
  2072  0D92  1303               	bcf	3,6	;RP1=0, select bank0
  2073  0D93  0ADF               	incf	GetTouchKeyValue@cnt,f
  2074  0D94  025F               	subwf	GetTouchKeyValue@cnt,w
  2075  0D95  1803               	btfsc	3,0
  2076  0D96  0008               	return
  2077  0D97  2D52               	goto	l6927
  2078  0D98                     __end_of_GetTouchKeyValue:	
  2079  0D98                     __ptext1288:	
  2080 ;; =============== function _KeyHave ends ============
  2081                           
  2082                           
  2083 ;; *************** function _ClearResSum *****************
  2084 ;; Defined at:
  2085 ;;		line 127 in file "F:\2016\\Library Source Code\TouchKey_Library_V102\CMS69F628_TK_Lib\CheckTouchKey.c"
  2086 ;; Parameters:    Size  Location     Type
  2087 ;;		None
  2088 ;; Auto vars:     Size  Location     Type
  2089 ;;  cnt             1    0[BANK0 ] unsigned char 
  2090 ;; Return value:  Size  Location     Type
  2091 ;;		None               void
  2092 ;; Registers used:
  2093 ;;		wreg, fsr0l, fsr0h, status,2, status,0
  2094 ;; Tracked objects:
  2095 ;;		On entry : 40/20
  2096 ;;		On exit  : 160/100
  2097 ;;		Unchanged: FFE9F/0
  2098 ;; Data sizes:     COMMON   BANK0   BANK1   BANK3   BANK2
  2099 ;;      Params:         0       0       0       0       0
  2100 ;;      Locals:         0       1       0       0       0
  2101 ;;      Temps:          0       0       0       0       0
  2102 ;;      Totals:         0       1       0       0       0
  2103 ;;Total ram usage:        1 bytes
  2104 ;; Hardware stack levels used:    1
  2105 ;; Hardware stack levels required when called:    3
  2106 ;; This function calls:
  2107 ;;		Nothing
  2108 ;; This function is called by:
  2109 ;;		_GetTouchKeyValue
  2110 ;;		_CheckTouchKey
  2111 ;; This function uses a non-reentrant model
  2112 ;;
  2113  0D98                     _ClearResSum:	
  2114  0D98                     l14897:	
  2115                           ; Regs used in _ClearResSum: [wreg-fsr0h+status,2+status,0]
  2116                           
  2117                           
  2118                           ;CheckTouchKey.c: 128: unsigned char cnt = 0;
  2119  0D98  1283               	bcf	3,5	;RP0=0, select bank0
  2120  0D99  01DD               	clrf	ClearResSum@cnt
  2121  0D9A                     l14899:	
  2122                           
  2123                           ;CheckTouchKey.c: 130: {
  2124                           ;CheckTouchKey.c: 131: KeyResSum[cnt] = 0;
  2125  0D9A  1003               	clrc
  2126  0D9B  0D5D               	rlf	ClearResSum@cnt,w
  2127  0D9C  3EC8               	addlw	_KeyResSum& (0+255)
  2128  0D9D  0084               	movwf	4
  2129  0D9E  300C               	movlw	12
  2130  0D9F  1783               	bsf	3,7	;select IRP bank3
  2131  0DA0  0180               	clrf	0
  2132  0DA1  0A84               	incf	4,f
  2133  0DA2  0180               	clrf	0
  2134  0DA3  0ADD               	incf	ClearResSum@cnt,f
  2135  0DA4  025D               	subwf	ClearResSum@cnt,w
  2136  0DA5  1803               	btfsc	3,0
  2137  0DA6  0008               	return
  2138  0DA7  2D9A               	goto	l14899
  2139  0DA8                     __end_of_ClearResSum:	
  2140  0DA8                     __ptext1276:	
  2141 ;; =============== function _KeyStopClear ends ============
  2142                           
  2143                           
  2144 ;; *************** function _KeyClearIn *****************
  2145 ;; Defined at:
  2146 ;;		line 89 in file "F:\2016\\Library Source Code\TouchKey_Library_V102\CMS69F628_TK_Lib\CheckTouchKey.c"
  2147 ;; Parameters:    Size  Location     Type
  2148 ;;		None
  2149 ;; Auto vars:     Size  Location     Type
  2150 ;;  cnt             1    2[BANK0 ] unsigned char 
  2151 ;; Return value:  Size  Location     Type
  2152 ;;		None               void
  2153 ;; Registers used:
  2154 ;;		wreg, fsr0l, fsr0h, status,2, status,0, btemp+1, pclath, cstack
  2155 ;; Tracked objects:
  2156 ;;		On entry : 160/100
  2157 ;;		On exit  : 60/0
  2158 ;;		Unchanged: FFE9F/0
  2159 ;; Data sizes:     COMMON   BANK0   BANK1   BANK3   BANK2
  2160 ;;      Params:         0       0       0       0       0
  2161 ;;      Locals:         0       1       0       0       0
  2162 ;;      Temps:          0       0       0       0       0
  2163 ;;      Totals:         0       1       0       0       0
  2164 ;;Total ram usage:        1 bytes
  2165 ;; Hardware stack levels used:    1
  2166 ;; Hardware stack levels required when called:    4
  2167 ;; This function calls:
  2168 ;;		_KeyIsIn
  2169 ;;		_KeyClearOne
  2170 ;; This function is called by:
  2171 ;;		_TurnKeyFlags
  2172 ;; This function uses a non-reentrant model
  2173 ;;
  2174  0DA8                     _KeyClearIn:	
  2175  0DA8                     l15275:	
  2176                           ; Regs used in _KeyClearIn: [wreg-fsr0h+status,2+status,0+btemp+1+pclath+cstack]
  2177                           
  2178                           
  2179                           ;CheckTouchKey.c: 90: unsigned char cnt;
  2180                           ;CheckTouchKey.c: 91: for(cnt=0;cnt < KeyTotalNumber;cnt++)
  2181  0DA8  01DF               	clrf	KeyClearIn@cnt
  2182  0DA9                     l15281:	
  2183                           
  2184                           ;CheckTouchKey.c: 92: {
  2185                           ;CheckTouchKey.c: 93: if(!KeyIsIn(cnt))
  2186  0DA9  085F               	movf	KeyClearIn@cnt,w
  2187  0DAA  26AC  120A  158A   	fcall	_KeyIsIn
  2188  0DAD  3800               	iorlw	0
  2189  0DAE  1D03               	skipz
  2190  0DAF  2DB4               	goto	l15285
  2191                           
  2192                           ;CheckTouchKey.c: 94: {
  2193                           ;CheckTouchKey.c: 95: KeyClearOne(cnt);
  2194  0DB0  085F               	movf	KeyClearIn@cnt,w
  2195  0DB1  26BC  120A  158A   	fcall	_KeyClearOne
  2196  0DB4                     l15285:	
  2197  0DB4  300C               	movlw	12
  2198  0DB5  0ADF               	incf	KeyClearIn@cnt,f
  2199  0DB6  025F               	subwf	KeyClearIn@cnt,w
  2200  0DB7  1803               	btfsc	3,0
  2201  0DB8  0008               	return
  2202  0DB9  2DA9               	goto	l15281
  2203  0DBA                     __end_of_KeyClearIn:	
  2204  0DBA                     __ptext1273:	
  2205 ;; =============== function _CheckKeyOldValue ends ============
  2206                           
  2207                           
  2208 ;; *************** function _CheckOnceResult *****************
  2209 ;; Defined at:
  2210 ;;		line 222 in file "F:\2016\\Library Source Code\TouchKey_Library_V102\CMS69F628_TK_Lib\CheckTouchKey.c"
  2211 ;; Parameters:    Size  Location     Type
  2212 ;;		None
  2213 ;; Auto vars:     Size  Location     Type
  2214 ;;  KeyResTemp      2   13[BANK0 ] unsigned int 
  2215 ;;  KeyValue        2   10[BANK0 ] unsigned int 
  2216 ;;  OldValue        2    7[BANK0 ] unsigned int 
  2217 ;;  cnt             1   15[BANK0 ] unsigned char 
  2218 ;;  KeyDown         1   12[BANK0 ] unsigned char 
  2219 ;;  flag            1    9[BANK0 ] unsigned char 
  2220 ;; Return value:  Size  Location     Type
  2221 ;;		None               void
  2222 ;; Registers used:
  2223 ;;		wreg, fsr0l, fsr0h, status,2, status,0, btemp+1, pclath, cstack
  2224 ;; Tracked objects:
  2225 ;;		On entry : 60/20
  2226 ;;		On exit  : 160/100
  2227 ;;		Unchanged: FFE9F/0
  2228 ;; Data sizes:     COMMON   BANK0   BANK1   BANK3   BANK2
  2229 ;;      Params:         0       0       0       0       0
  2230 ;;      Locals:         0       9       0       0       0
  2231 ;;      Temps:          0       4       0       0       0
  2232 ;;      Totals:         0      13       0       0       0
  2233 ;;Total ram usage:       13 bytes
  2234 ;; Hardware stack levels used:    1
  2235 ;; Hardware stack levels required when called:    4
  2236 ;; This function calls:
  2237 ;;		_KeyIsIn
  2238 ;;		_KeyHave
  2239 ;;		_KeyClearOne
  2240 ;; This function is called by:
  2241 ;;		_CheckTouchKey
  2242 ;; This function uses a non-reentrant model
  2243 ;;
  2244  0DBA                     _CheckOnceResult:	
  2245                           
  2246                           ;CheckTouchKey.c: 223: unsigned char cnt = 0;
  2247                           
  2248                           ; Regs used in _CheckOnceResult: [wreg-fsr0h+status,2+status,0+btemp+1+pclath+cstack]
  2249  0DBA  1283               	bcf	3,5	;RP0=0, select bank0
  2250  0DBB  01EC               	clrf	CheckOnceResult@cnt
  2251                           
  2252                           ;CheckTouchKey.c: 224: unsigned char KeyDown;
  2253                           ;CheckTouchKey.c: 225: unsigned char flag;
  2254                           ;CheckTouchKey.c: 227: unsigned int KeyResTemp;
  2255                           ;CheckTouchKey.c: 228: unsigned int KeyValue;
  2256                           ;CheckTouchKey.c: 229: unsigned int OldValue;
  2257                           ;CheckTouchKey.c: 231: KeyData[0] = 0;
  2258  0DBC  01AE               	clrf	_KeyData	;volatile
  2259                           
  2260                           ;CheckTouchKey.c: 232: KeyData[1] = 0;
  2261  0DBD  01AF               	clrf	_KeyData+1	;volatile
  2262                           
  2263                           ;CheckTouchKey.c: 233: KeyMaxSub = 0;
  2264  0DBE  1683               	bsf	3,5	;RP0=1, select bank1
  2265  0DBF  01D4               	clrf	_KeyMaxSub^(0+128)
  2266  0DC0                     l15323:	
  2267                           
  2268                           ;CheckTouchKey.c: 237: {
  2269                           ;CheckTouchKey.c: 238: flag = Table_KeyFalg[cnt&0x7];
  2270  0DC0  1283               	bcf	3,5	;RP0=0, select bank0
  2271  0DC1  086C               	movf	CheckOnceResult@cnt,w
  2272  0DC2  27F1               	fcall	PL27	;call to abstracted procedure
  2273  0DC3  160A  118A  2000   	fcall	stringtab
      +       120A  158A         
  2274  0DC8  00E6               	movwf	CheckOnceResult@flag
  2275                           
  2276                           ;CheckTouchKey.c: 240: KeyResSum[cnt] >>= 3;
  2277  0DC9  1003               	clrc
  2278  0DCA  0D6C               	rlf	CheckOnceResult@cnt,w
  2279  0DCB  3EC8               	addlw	_KeyResSum& (0+255)
  2280  0DCC  0084               	movwf	4
  2281  0DCD  3003               	movlw	3
  2282  0DCE                     u9515:	
  2283  0DCE  0A84               	incf	4,f
  2284  0DCF  1003               	clrc
  2285  0DD0  1783               	bsf	3,7	;select IRP bank3
  2286  0DD1  0C80               	rrf	0,f
  2287  0DD2  0384               	decf	4,f
  2288  0DD3  0C80               	rrf	0,f
  2289  0DD4  3EFF               	addlw	-1
  2290  0DD5  1D03               	skipz
  2291  0DD6  2DCE               	goto	u9515
  2292                           
  2293                           ;CheckTouchKey.c: 241: KeyResTemp = KeyResSum[cnt];
  2294  0DD7  1003               	clrc
  2295  0DD8  0D6C               	rlf	CheckOnceResult@cnt,w
  2296  0DD9  3EC8               	addlw	_KeyResSum& (0+255)
  2297  0DDA  0084               	movwf	4
  2298  0DDB  0800               	movf	0,w
  2299  0DDC  00EA               	movwf	CheckOnceResult@KeyResTemp
  2300  0DDD  0A84               	incf	4,f
  2301  0DDE  0800               	movf	0,w
  2302  0DDF  00EB               	movwf	CheckOnceResult@KeyResTemp+1
  2303                           
  2304                           ;CheckTouchKey.c: 242: KeyDown = Table_KeyDown[cnt];
  2305  0DE0  086C               	movf	CheckOnceResult@cnt,w
  2306  0DE1  3EDF               	addlw	low (_Table_KeyDown| (0+32768))
  2307  0DE2  0084               	movwf	4
  2308  0DE3  3091               	movlw	high (_Table_KeyDown| (0+32768))
  2309  0DE4  1803               	skipnc
  2310  0DE5  3E01               	addlw	1
  2311  0DE6  00FF               	movwf	127
  2312  0DE7  160A  118A  2000   	fcall	stringtab
      +       120A  158A         
  2313  0DEC  00E9               	movwf	CheckOnceResult@KeyDown
  2314                           
  2315                           ;CheckTouchKey.c: 244: KeyValue = KeyResTemp + KeyDown;
  2316  0DED  00E7               	movwf	CheckOnceResult@KeyValue
  2317  0DEE  01E8               	clrf	CheckOnceResult@KeyValue+1
  2318  0DEF  086A               	movf	CheckOnceResult@KeyResTemp,w
  2319  0DF0  07E7               	addwf	CheckOnceResult@KeyValue,f
  2320  0DF1  1803               	skipnc
  2321  0DF2  0AE8               	incf	CheckOnceResult@KeyValue+1,f
  2322  0DF3  086B               	movf	CheckOnceResult@KeyResTemp+1,w
  2323  0DF4  07E8               	addwf	CheckOnceResult@KeyValue+1,f
  2324                           
  2325                           ;CheckTouchKey.c: 246: if(!KeyIsIn(cnt))
  2326  0DF5  086C               	movf	CheckOnceResult@cnt,w
  2327  0DF6  26AC  120A  158A   	fcall	_KeyIsIn
  2328  0DF9  3800               	iorlw	0
  2329                           
  2330                           ;CheckTouchKey.c: 247: {
  2331                           ;CheckTouchKey.c: 249: OldValue = KeyOldValue2[cnt];
  2332  0DFA  1003               	clrc
  2333  0DFB  1D03               	skipz
  2334  0DFC  2E60               	goto	L22
  2335  0DFD  0D6C               	rlf	CheckOnceResult@cnt,w
  2336  0DFE  3E38               	addlw	_KeyOldValue2& (0+255)
  2337  0DFF  0084               	movwf	4
  2338  0E00  1783               	bsf	3,7	;select IRP bank2
  2339  0E01  0800               	movf	0,w
  2340  0E02  00E4               	movwf	CheckOnceResult@OldValue
  2341  0E03  0A84               	incf	4,f
  2342  0E04  0800               	movf	0,w
  2343  0E05  00E5               	movwf	CheckOnceResult@OldValue+1
  2344                           
  2345                           ;CheckTouchKey.c: 251: if(KeyReference[cnt] > KeyValue)
  2346  0E06  1003               	clrc
  2347  0E07  0D6C               	rlf	CheckOnceResult@cnt,w
  2348  0E08  3EB0               	addlw	_KeyReference& (0+255)
  2349  0E09  27D7  120A  158A   	fcall	PL13	;call to abstracted procedure
  2350  0E0C  0268               	subwf	CheckOnceResult@KeyValue+1,w
  2351  0E0D  1D03               	skipz
  2352  0E0E  2E11               	goto	u9535
  2353  0E0F  0860               	movf	??_CheckOnceResult,w
  2354  0E10  0267               	subwf	CheckOnceResult@KeyValue,w
  2355  0E11                     u9535:	
  2356  0E11  1803               	skipnc
  2357  0E12  2E21               	goto	l15339
  2358                           
  2359                           ;CheckTouchKey.c: 252: {
  2360                           ;CheckTouchKey.c: 253: KeyResTemp = KeyReference[cnt] - KeyResTemp;
  2361  0E13  1003               	clrc
  2362  0E14  0D6C               	rlf	CheckOnceResult@cnt,w
  2363  0E15  3EB0               	addlw	_KeyReference& (0+255)
  2364  0E16  27D7  120A  158A   	fcall	PL13	;call to abstracted procedure
  2365  0E19  086A               	movf	CheckOnceResult@KeyResTemp,w
  2366  0E1A  0260               	subwf	??_CheckOnceResult,w
  2367  0E1B  00EA               	movwf	CheckOnceResult@KeyResTemp
  2368  0E1C  086B               	movf	CheckOnceResult@KeyResTemp+1,w
  2369  0E1D  1C03               	skipc
  2370  0E1E  0A6B               	incf	CheckOnceResult@KeyResTemp+1,w
  2371  0E1F  0261               	subwf	??_CheckOnceResult+1,w
  2372  0E20  2E46               	goto	L20
  2373  0E21                     l15339:	
  2374                           ;CheckTouchKey.c: 254: }
  2375                           
  2376                           
  2377                           ;CheckTouchKey.c: 255: else if ((OldValue > KeyValue) && (KeyOldValue1[cnt] > KeyValue))
  2378  0E21  0865               	movf	CheckOnceResult@OldValue+1,w
  2379  0E22  0268               	subwf	CheckOnceResult@KeyValue+1,w
  2380  0E23  1D03               	skipz
  2381  0E24  2E27               	goto	u9545
  2382  0E25  0864               	movf	CheckOnceResult@OldValue,w
  2383  0E26  0267               	subwf	CheckOnceResult@KeyValue,w
  2384  0E27                     u9545:	
  2385  0E27  1803               	skipnc
  2386  0E28  2EA6               	goto	l15385
  2387  0E29  1003               	clrc
  2388  0E2A  0D6C               	rlf	CheckOnceResult@cnt,w
  2389  0E2B  3E98               	addlw	_KeyOldValue1& (0+255)
  2390  0E2C  27D7  120A  158A   	fcall	PL13	;call to abstracted procedure
  2391  0E2F  0268               	subwf	CheckOnceResult@KeyValue+1,w
  2392  0E30  1D03               	skipz
  2393  0E31  2E34               	goto	u9555
  2394  0E32  0860               	movf	??_CheckOnceResult,w
  2395  0E33  0267               	subwf	CheckOnceResult@KeyValue,w
  2396  0E34                     u9555:	
  2397  0E34  1803               	skipnc
  2398  0E35  2EA6               	goto	l15385
  2399                           
  2400                           ;CheckTouchKey.c: 256: {
  2401                           ;CheckTouchKey.c: 257: KeyReference[cnt] = OldValue;
  2402  0E36  1003               	clrc
  2403  0E37  0D6C               	rlf	CheckOnceResult@cnt,w
  2404  0E38  3EB0               	addlw	_KeyReference& (0+255)
  2405  0E39  0084               	movwf	4
  2406  0E3A  0864               	movf	CheckOnceResult@OldValue,w
  2407  0E3B  0080               	movwf	0
  2408  0E3C  0A84               	incf	4,f
  2409  0E3D  0865               	movf	CheckOnceResult@OldValue+1,w
  2410  0E3E  0080               	movwf	0
  2411                           
  2412                           ;CheckTouchKey.c: 258: KeyResTemp = OldValue - KeyResTemp;
  2413  0E3F  086A               	movf	CheckOnceResult@KeyResTemp,w
  2414  0E40  0264               	subwf	CheckOnceResult@OldValue,w
  2415  0E41  00EA               	movwf	CheckOnceResult@KeyResTemp
  2416  0E42  086B               	movf	CheckOnceResult@KeyResTemp+1,w
  2417  0E43  1C03               	skipc
  2418  0E44  0A6B               	incf	CheckOnceResult@KeyResTemp+1,w
  2419  0E45  0265               	subwf	CheckOnceResult@OldValue+1,w
  2420  0E46                     L20:	
  2421  0E46  00EB               	movwf	CheckOnceResult@KeyResTemp+1
  2422                           
  2423                           ;CheckTouchKey.c: 263: }
  2424                           ;CheckTouchKey.c: 265: KeyUpShake[cnt] = 0;
  2425                           
  2426                           ;CheckTouchKey.c: 259: }
  2427  0E47  086C               	movf	CheckOnceResult@cnt,w
  2428  0E48  3E50               	addlw	_KeyUpShake& (0+255)
  2429  0E49  0084               	movwf	4
  2430  0E4A  0180               	clrf	0
  2431                           
  2432                           ;CheckTouchKey.c: 268: {
  2433                           ;CheckTouchKey.c: 269: if(KeyResTemp >> 8)
  2434  0E4B  086B               	movf	CheckOnceResult@KeyResTemp+1,w
  2435  0E4C  3A00               	xorlw	0
  2436  0E4D  1903               	skipnz
  2437  0E4E  2E51               	goto	l15353
  2438                           
  2439                           ;CheckTouchKey.c: 270: {
  2440                           ;CheckTouchKey.c: 271: KeyDown = 0xFF;
  2441  0E4F  30FF               	movlw	255
  2442  0E50  2E52               	goto	L21
  2443  0E51                     l15353:	
  2444                           ;CheckTouchKey.c: 272: }
  2445                           
  2446                           
  2447                           ;CheckTouchKey.c: 273: else
  2448                           ;CheckTouchKey.c: 274: {
  2449                           ;CheckTouchKey.c: 275: KeyDown = KeyResTemp & 0xFF;
  2450  0E51  086A               	movf	CheckOnceResult@KeyResTemp,w
  2451  0E52                     L21:	
  2452  0E52  00E9               	movwf	CheckOnceResult@KeyDown
  2453                           
  2454                           ;CheckTouchKey.c: 276: }
  2455                           ;CheckTouchKey.c: 278: if(KeyMaxSub < KeyDown)
  2456  0E53  1683               	bsf	3,5	;RP0=1, select bank1
  2457  0E54  0254               	subwf	_KeyMaxSub^(0+128),w
  2458  0E55  1803               	skipnc
  2459  0E56  2E5D               	goto	l15359
  2460                           
  2461                           ;CheckTouchKey.c: 279: {
  2462                           ;CheckTouchKey.c: 280: KeyMaxSub = KeyDown;
  2463  0E57  1283               	bcf	3,5	;RP0=0, select bank0
  2464  0E58  0869               	movf	CheckOnceResult@KeyDown,w
  2465  0E59  1683               	bsf	3,5	;RP0=1, select bank1
  2466  0E5A  00D4               	movwf	_KeyMaxSub^(0+128)
  2467                           
  2468                           ;CheckTouchKey.c: 281: KeyHave(cnt,flag);
  2469  0E5B  1283               	bcf	3,5	;RP0=0, select bank0
  2470  0E5C  2E9F               	goto	l15383
  2471  0E5D                     l15359:	
  2472                           ;CheckTouchKey.c: 282: }
  2473                           
  2474                           
  2475                           ;CheckTouchKey.c: 283: else
  2476                           ;CheckTouchKey.c: 284: {
  2477                           ;CheckTouchKey.c: 285: KeyCounter++;
  2478  0E5D  1283               	bcf	3,5	;RP0=0, select bank0
  2479  0E5E  0AC0               	incf	_KeyCounter,f
  2480  0E5F  2EA6               	goto	l15385
  2481  0E60                     L22:	
  2482                           ;CheckTouchKey.c: 294: else
  2483                           ;CheckTouchKey.c: 295: {
  2484                           ;CheckTouchKey.c: 298: if(KeyReference[cnt]+1 < KeyValue)
  2485                           
  2486  0E60  0D6C               	rlf	CheckOnceResult@cnt,w
  2487  0E61  3EB0               	addlw	_KeyReference& (0+255)
  2488  0E62  0084               	movwf	4
  2489  0E63  1783               	bsf	3,7	;select IRP bank3
  2490  0E64  0800               	movf	0,w
  2491  0E65  00E0               	movwf	??_CheckOnceResult
  2492  0E66  0A84               	incf	4,f
  2493  0E67  0800               	movf	0,w
  2494  0E68  00E1               	movwf	??_CheckOnceResult+1
  2495  0E69  0860               	movf	??_CheckOnceResult,w
  2496  0E6A  3E01               	addlw	1
  2497  0E6B  00E2               	movwf	??_CheckOnceResult+2
  2498  0E6C  0861               	movf	??_CheckOnceResult+1,w
  2499  0E6D  1803               	skipnc
  2500  0E6E  3E01               	addlw	1
  2501  0E6F  00E3               	movwf	??_CheckOnceResult+3
  2502  0E70  0868               	movf	CheckOnceResult@KeyValue+1,w
  2503  0E71  0263               	subwf	??_CheckOnceResult+3,w
  2504  0E72  1D03               	skipz
  2505  0E73  2E76               	goto	u9585
  2506  0E74  0867               	movf	CheckOnceResult@KeyValue,w
  2507  0E75  0262               	subwf	??_CheckOnceResult+2,w
  2508  0E76                     u9585:	
  2509  0E76  1C03               	btfss	3,0
  2510  0E77  2EA6               	goto	l15385
  2511                           
  2512                           ;CheckTouchKey.c: 302: else if((KeyOldValue2[cnt]+KeyDown<KeyResTemp) || (KeyOldValue1[c
      +                          nt]+KeyDown<KeyResTemp))
  2513  0E78  1003               	clrc
  2514  0E79  0D6C               	rlf	CheckOnceResult@cnt,w
  2515  0E7A  3E38               	addlw	_KeyOldValue2& (0+255)
  2516  0E7B  0084               	movwf	4
  2517  0E7C  27C4  120A  158A   	fcall	PL5	;call to abstracted procedure
  2518  0E7F  1C03               	skipc
  2519  0E80  2E8A               	goto	l15373
  2520  0E81  1003               	clrc
  2521  0E82  0D6C               	rlf	CheckOnceResult@cnt,w
  2522  0E83  3E98               	addlw	_KeyOldValue1& (0+255)
  2523  0E84  0084               	movwf	4
  2524  0E85  27C4  120A  158A   	fcall	PL5	;call to abstracted procedure
  2525  0E88  1803               	skipnc
  2526  0E89  2E97               	goto	l15377
  2527  0E8A                     l15373:	
  2528                           
  2529                           ;CheckTouchKey.c: 303: {
  2530                           ;CheckTouchKey.c: 304: if(++KeyUpShake[cnt] > 8)
  2531  0E8A  086C               	movf	CheckOnceResult@cnt,w
  2532  0E8B  3E50               	addlw	_KeyUpShake& (0+255)
  2533  0E8C  0084               	movwf	4
  2534  0E8D  3009               	movlw	9
  2535  0E8E  0A80               	incf	0,f
  2536  0E8F  0200               	subwf	0,w
  2537  0E90  1C03               	skipc
  2538  0E91  2E9B               	goto	l15381
  2539                           
  2540                           ;CheckTouchKey.c: 305: {
  2541                           ;CheckTouchKey.c: 306: KeyClearOne(cnt);
  2542  0E92  086C               	movf	CheckOnceResult@cnt,w
  2543  0E93  26BC  120A  158A   	fcall	_KeyClearOne
  2544                           
  2545                           ;CheckTouchKey.c: 307: continue;
  2546  0E96  2EA6               	goto	l15385
  2547  0E97                     l15377:	
  2548                           
  2549                           ;CheckTouchKey.c: 310: else
  2550                           ;CheckTouchKey.c: 311: {
  2551                           ;CheckTouchKey.c: 312: KeyUpShake[cnt] = 0;
  2552  0E97  086C               	movf	CheckOnceResult@cnt,w
  2553  0E98  3E50               	addlw	_KeyUpShake& (0+255)
  2554  0E99  0084               	movwf	4
  2555  0E9A  0180               	clrf	0
  2556  0E9B                     l15381:	
  2557                           
  2558                           ;CheckTouchKey.c: 319: else if(!(KeyData[0] | KeyData[1]))
  2559  0E9B  082F               	movf	_KeyData+1,w	;volatile
  2560  0E9C  042E               	iorwf	_KeyData,w	;volatile
  2561  0E9D  1D03               	btfss	3,2
  2562  0E9E  2EA6               	goto	l15385
  2563  0E9F                     l15383:	
  2564                           
  2565                           ;CheckTouchKey.c: 320: {
  2566                           ;CheckTouchKey.c: 321: KeyHave(cnt,flag);
  2567  0E9F  0866               	movf	CheckOnceResult@flag,w
  2568  0EA0  00DD               	movwf	?_KeyHave
  2569  0EA1  01DE               	clrf	?_KeyHave+1
  2570  0EA2  086C               	movf	CheckOnceResult@cnt,w
  2571  0EA3  26D3  120A  158A   	fcall	_KeyHave
  2572  0EA6                     l15385:	
  2573  0EA6  300C               	movlw	12
  2574  0EA7  0AEC               	incf	CheckOnceResult@cnt,f
  2575  0EA8  026C               	subwf	CheckOnceResult@cnt,w
  2576  0EA9  1803               	btfsc	3,0
  2577  0EAA  0008               	return
  2578  0EAB  2DC0               	goto	l15323
  2579  0EAC                     __end_of_CheckOnceResult:	
  2580  0EAC                     __ptext1290:	
  2581 ;; =============== function _KeyClearOne ends ============
  2582                           
  2583                           
  2584 ;; *************** function _KeyIsIn *****************
  2585 ;; Defined at:
  2586 ;;		line 59 in file "F:\2016\\Library Source Code\TouchKey_Library_V102\CMS69F628_TK_Lib\CheckTouchKey.c"
  2587 ;; Parameters:    Size  Location     Type
  2588 ;;  cnt             1    wreg     unsigned char 
  2589 ;; Auto vars:     Size  Location     Type
  2590 ;;  cnt             1    1[BANK0 ] unsigned char 
  2591 ;;  i               1    0[BANK0 ] unsigned char 
  2592 ;; Return value:  Size  Location     Type
  2593 ;;                  1    wreg      unsigned char 
  2594 ;; Registers used:
  2595 ;;		wreg, fsr0l, fsr0h, status,2, status,0, btemp+1, pclath
  2596 ;; Tracked objects:
  2597 ;;		On entry : 60/100
  2598 ;;		On exit  : 60/0
  2599 ;;		Unchanged: FFE9F/0
  2600 ;; Data sizes:     COMMON   BANK0   BANK1   BANK3   BANK2
  2601 ;;      Params:         0       0       0       0       0
  2602 ;;      Locals:         0       2       0       0       0
  2603 ;;      Temps:          0       0       0       0       0
  2604 ;;      Totals:         0       2       0       0       0
  2605 ;;Total ram usage:        2 bytes
  2606 ;; Hardware stack levels used:    1
  2607 ;; Hardware stack levels required when called:    3
  2608 ;; This function calls:
  2609 ;;		Nothing
  2610 ;; This function is called by:
  2611 ;;		_KeyClearIn
  2612 ;;		_CheckOnceResult
  2613 ;;		_CheckKeyOldValue
  2614 ;; This function uses a non-reentrant model
  2615 ;;
  2616  0EAC                     _KeyIsIn:	
  2617                           
  2618                           ; Regs used in _KeyIsIn: [wreg-fsr0h+status,2+status,0+btemp+1+pclath]
  2619                           ;KeyIsIn@cnt stored from wreg
  2620  0EAC  00DE               	movwf	KeyIsIn@cnt
  2621                           
  2622                           ;CheckTouchKey.c: 60: unsigned char i = Table_KeyFalg[cnt&0x7];
  2623  0EAD  27F1               	fcall	PL27	;call to abstracted procedure
  2624  0EAE  160A  118A  2000   	fcall	stringtab
      +       120A  158A         
  2625  0EB3  00DD               	movwf	KeyIsIn@i
  2626                           
  2627                           ;CheckTouchKey.c: 62: if(cnt&0x8)
  2628  0EB4  1DDE               	btfss	KeyIsIn@cnt,3
  2629  0EB5  2EB8               	goto	l14889
  2630                           
  2631                           ;CheckTouchKey.c: 63: {
  2632                           ;CheckTouchKey.c: 64: i &= KeyFlag[1];
  2633  0EB6  0831               	movf	_KeyFlag+1,w	;volatile
  2634  0EB7  2EB9               	goto	L34
  2635  0EB8                     l14889:	
  2636                           ;CheckTouchKey.c: 65: }
  2637                           
  2638                           
  2639                           ;CheckTouchKey.c: 66: else
  2640                           ;CheckTouchKey.c: 67: {
  2641                           ;CheckTouchKey.c: 68: i &= KeyFlag[0];
  2642  0EB8  0830               	movf	_KeyFlag,w	;volatile
  2643  0EB9                     L34:	
  2644  0EB9  05DD               	andwf	KeyIsIn@i,f
  2645                           
  2646                           ;CheckTouchKey.c: 69: }
  2647                           ;CheckTouchKey.c: 70: return i;
  2648  0EBA  085D               	movf	KeyIsIn@i,w
  2649  0EBB  0008               	return
  2650  0EBC                     __end_of_KeyIsIn:	
  2651  0EBC                     __ptext1289:	
  2652 ;; =============== function _ClearResSum ends ============
  2653                           
  2654                           
  2655 ;; *************** function _KeyClearOne *****************
  2656 ;; Defined at:
  2657 ;;		line 81 in file "F:\2016\\Library Source Code\TouchKey_Library_V102\CMS69F628_TK_Lib\CheckTouchKey.c"
  2658 ;; Parameters:    Size  Location     Type
  2659 ;;  cnt             1    wreg     unsigned char 
  2660 ;; Auto vars:     Size  Location     Type
  2661 ;;  cnt             1    0[BANK0 ] unsigned char 
  2662 ;; Return value:  Size  Location     Type
  2663 ;;		None               void
  2664 ;; Registers used:
  2665 ;;		wreg, fsr0l, fsr0h, status,2, status,0
  2666 ;; Tracked objects:
  2667 ;;		On entry : 60/100
  2668 ;;		On exit  : 160/100
  2669 ;;		Unchanged: FFE9F/0
  2670 ;; Data sizes:     COMMON   BANK0   BANK1   BANK3   BANK2
  2671 ;;      Params:         0       0       0       0       0
  2672 ;;      Locals:         0       1       0       0       0
  2673 ;;      Temps:          0       0       0       0       0
  2674 ;;      Totals:         0       1       0       0       0
  2675 ;;Total ram usage:        1 bytes
  2676 ;; Hardware stack levels used:    1
  2677 ;; Hardware stack levels required when called:    3
  2678 ;; This function calls:
  2679 ;;		Nothing
  2680 ;; This function is called by:
  2681 ;;		_KeyClearIn
  2682 ;;		_KeyStopClear
  2683 ;;		_CheckOnceResult
  2684 ;; This function uses a non-reentrant model
  2685 ;;
  2686  0EBC                     _KeyClearOne:	
  2687                           
  2688                           ; Regs used in _KeyClearOne: [wreg-fsr0h+status,2+status,0]
  2689                           ;KeyClearOne@cnt stored from wreg
  2690  0EBC  00DD               	movwf	KeyClearOne@cnt
  2691                           
  2692                           ;CheckTouchKey.c: 82: KeyOldValue0[cnt] = 0;
  2693  0EBD  1003               	clrc
  2694  0EBE  0D5D               	rlf	KeyClearOne@cnt,w
  2695  0EBF  3E20               	addlw	_KeyOldValue0& (0+255)
  2696  0EC0  0084               	movwf	4
  2697  0EC1  1783               	bsf	3,7	;select IRP bank2
  2698  0EC2  0180               	clrf	0
  2699  0EC3  0A84               	incf	4,f
  2700  0EC4  0180               	clrf	0
  2701                           
  2702                           ;CheckTouchKey.c: 83: KeyOldValue1[cnt] = 0;
  2703  0EC5  1003               	clrc
  2704  0EC6  0D5D               	rlf	KeyClearOne@cnt,w
  2705  0EC7  3E98               	addlw	_KeyOldValue1& (0+255)
  2706                           
  2707                           ;CheckTouchKey.c: 84: KeyOldValue2[cnt] = 0;
  2708  0EC8  27F9  120A  158A   	fcall	PL29	;call to abstracted procedure
  2709  0ECB  3E38               	addlw	_KeyOldValue2& (0+255)
  2710                           
  2711                           ;CheckTouchKey.c: 85: KeyReference[cnt] = 0;
  2712  0ECC  27F9               	fcall	PL29	;call to abstracted procedure
  2713  0ECD  3EB0               	addlw	_KeyReference& (0+255)
  2714  0ECE  0084               	movwf	4
  2715  0ECF  0180               	clrf	0
  2716  0ED0  0A84               	incf	4,f
  2717  0ED1  0180               	clrf	0
  2718  0ED2  0008               	return
  2719  0ED3                     __end_of_KeyClearOne:	
  2720  0ED3                     __ptext1287:	
  2721 ;; =============== function _CheckValidTime ends ============
  2722                           
  2723                           
  2724 ;; *************** function _KeyHave *****************
  2725 ;; Defined at:
  2726 ;;		line 143 in file "F:\2016\\Library Source Code\TouchKey_Library_V102\CMS69F628_TK_Lib\CheckTouchKey.c"
  2727 ;; Parameters:    Size  Location     Type
  2728 ;;  cnt             1    wreg     unsigned char 
  2729 ;;  flag            2    0[BANK0 ] unsigned int 
  2730 ;; Auto vars:     Size  Location     Type
  2731 ;;  cnt             1    2[BANK0 ] unsigned char 
  2732 ;; Return value:  Size  Location     Type
  2733 ;;		None               void
  2734 ;; Registers used:
  2735 ;;		wreg, status,2, status,0
  2736 ;; Tracked objects:
  2737 ;;		On entry : 160/100
  2738 ;;		On exit  : 160/100
  2739 ;;		Unchanged: FFE9F/0
  2740 ;; Data sizes:     COMMON   BANK0   BANK1   BANK3   BANK2
  2741 ;;      Params:         0       2       0       0       0
  2742 ;;      Locals:         0       1       0       0       0
  2743 ;;      Temps:          0       0       0       0       0
  2744 ;;      Totals:         0       3       0       0       0
  2745 ;;Total ram usage:        3 bytes
  2746 ;; Hardware stack levels used:    1
  2747 ;; Hardware stack levels required when called:    3
  2748 ;; This function calls:
  2749 ;;		Nothing
  2750 ;; This function is called by:
  2751 ;;		_CheckOnceResult
  2752 ;; This function uses a non-reentrant model
  2753 ;;
  2754  0ED3                     _KeyHave:	
  2755                           
  2756                           ; Regs used in _KeyHave: [wreg+status,2+status,0]
  2757                           ;KeyHave@cnt stored from wreg
  2758  0ED3  00DF               	movwf	KeyHave@cnt
  2759                           
  2760                           ;CheckTouchKey.c: 144: KeyCounter++;
  2761  0ED4  0AC0               	incf	_KeyCounter,f
  2762                           
  2763                           ;CheckTouchKey.c: 147: {
  2764                           ;CheckTouchKey.c: 148: KeyData[0] = 0;
  2765  0ED5  01AE               	clrf	_KeyData	;volatile
  2766                           
  2767                           ;CheckTouchKey.c: 149: KeyData[1] = 0;
  2768  0ED6  01AF               	clrf	_KeyData+1	;volatile
  2769                           
  2770                           ;CheckTouchKey.c: 150: if(cnt&0x8)
  2771  0ED7  1DDF               	btfss	KeyHave@cnt,3
  2772  0ED8  2EDC               	goto	l14913
  2773                           
  2774                           ;CheckTouchKey.c: 151: {
  2775                           ;CheckTouchKey.c: 152: KeyData[1] = flag;
  2776  0ED9  085D               	movf	KeyHave@flag,w
  2777  0EDA  00AF               	movwf	_KeyData+1	;volatile
  2778                           
  2779                           ;CheckTouchKey.c: 153: }
  2780  0EDB  0008               	return
  2781  0EDC                     l14913:	
  2782                           
  2783                           ;CheckTouchKey.c: 154: else
  2784                           ;CheckTouchKey.c: 155: {
  2785                           ;CheckTouchKey.c: 156: KeyData[0] = flag;
  2786  0EDC  085D               	movf	KeyHave@flag,w
  2787  0EDD  00AE               	movwf	_KeyData	;volatile
  2788  0EDE  0008               	return
  2789  0EDF                     __end_of_KeyHave:	
  2790  0EDF                     __ptext1275:	
  2791 ;; =============== function _GetTouchKeyValue ends ============
  2792                           
  2793                           
  2794 ;; *************** function _KeyStopClear *****************
  2795 ;; Defined at:
  2796 ;;		line 108 in file "F:\2016\\Library Source Code\TouchKey_Library_V102\CMS69F628_TK_Lib\CheckTouchKey.c"
  2797 ;; Parameters:    Size  Location     Type
  2798 ;;		None
  2799 ;; Auto vars:     Size  Location     Type
  2800 ;;  i               1    1[BANK0 ] unsigned char 
  2801 ;; Return value:  Size  Location     Type
  2802 ;;		None               void
  2803 ;; Registers used:
  2804 ;;		wreg, fsr0l, fsr0h, status,2, status,0, pclath, cstack
  2805 ;; Tracked objects:
  2806 ;;		On entry : 40/20
  2807 ;;		On exit  : 160/100
  2808 ;;		Unchanged: FFE9F/0
  2809 ;; Data sizes:     COMMON   BANK0   BANK1   BANK3   BANK2
  2810 ;;      Params:         0       0       0       0       0
  2811 ;;      Locals:         0       1       0       0       0
  2812 ;;      Temps:          0       0       0       0       0
  2813 ;;      Totals:         0       1       0       0       0
  2814 ;;Total ram usage:        1 bytes
  2815 ;; Hardware stack levels used:    1
  2816 ;; Hardware stack levels required when called:    4
  2817 ;; This function calls:
  2818 ;;		_KeyClearOne
  2819 ;; This function is called by:
  2820 ;;		_CheckTouchKey
  2821 ;; This function uses a non-reentrant model
  2822 ;;
  2823  0EDF                     _KeyStopClear:	
  2824                           
  2825                           ;CheckTouchKey.c: 109: unsigned char i;
  2826                           ;CheckTouchKey.c: 110: KeyFlag[0] = 0;
  2827                           
  2828                           ; Regs used in _KeyStopClear: [wreg-fsr0h+status,2+status,0+pclath+cstack]
  2829  0EDF  1283               	bcf	3,5	;RP0=0, select bank0
  2830  0EE0  01B0               	clrf	_KeyFlag	;volatile
  2831                           
  2832                           ;CheckTouchKey.c: 111: KeyFlag[1] = 0;
  2833  0EE1  01B1               	clrf	_KeyFlag+1	;volatile
  2834                           
  2835                           ;CheckTouchKey.c: 112: for(i = 0; i < KeyTotalNumber; i++)
  2836  0EE2  01DE               	clrf	KeyStopClear@i
  2837  0EE3                     l15295:	
  2838                           
  2839                           ;CheckTouchKey.c: 113: {
  2840                           ;CheckTouchKey.c: 114: KeyResSum[i] = 0;
  2841  0EE3  1003               	clrc
  2842  0EE4  0D5E               	rlf	KeyStopClear@i,w
  2843  0EE5  3EC8               	addlw	_KeyResSum& (0+255)
  2844  0EE6  0084               	movwf	4
  2845  0EE7  1783               	bsf	3,7	;select IRP bank3
  2846  0EE8  0180               	clrf	0
  2847  0EE9  0A84               	incf	4,f
  2848  0EEA  0180               	clrf	0
  2849                           
  2850                           ;CheckTouchKey.c: 115: KeyClearOne(i);
  2851  0EEB  085E               	movf	KeyStopClear@i,w
  2852  0EEC  26BC  120A  158A   	fcall	_KeyClearOne
  2853  0EEF  300C               	movlw	12
  2854  0EF0  0ADE               	incf	KeyStopClear@i,f
  2855  0EF1  025E               	subwf	KeyStopClear@i,w
  2856  0EF2  1803               	btfsc	3,0
  2857  0EF3  0008               	return
  2858  0EF4  2EE3               	goto	l15295
  2859  0EF5                     __end_of_KeyStopClear:	
  2860  0EF5                     __ptext1272:	
  2861 ;; =============== function _Pattern ends ============
  2862                           
  2863                           
  2864 ;; *************** function _CheckKeyOldValue *****************
  2865 ;; Defined at:
  2866 ;;		line 336 in file "F:\2016\\Library Source Code\TouchKey_Library_V102\CMS69F628_TK_Lib\CheckTouchKey.c"
  2867 ;; Parameters:    Size  Location     Type
  2868 ;;		None
  2869 ;; Auto vars:     Size  Location     Type
  2870 ;;  KeyOldTemp      2    6[BANK0 ] unsigned int 
  2871 ;;  KeyResTemp      2    4[BANK0 ] unsigned int 
  2872 ;;  cnt             1    8[BANK0 ] unsigned char 
  2873 ;; Return value:  Size  Location     Type
  2874 ;;		None               void
  2875 ;; Registers used:
  2876 ;;		wreg, fsr0l, fsr0h, status,2, status,0, btemp+1, pclath, cstack
  2877 ;; Tracked objects:
  2878 ;;		On entry : 60/20
  2879 ;;		On exit  : 40/0
  2880 ;;		Unchanged: FFE9F/0
  2881 ;; Data sizes:     COMMON   BANK0   BANK1   BANK3   BANK2
  2882 ;;      Params:         0       0       0       0       0
  2883 ;;      Locals:         0       5       0       0       0
  2884 ;;      Temps:          0       2       0       0       0
  2885 ;;      Totals:         0       7       0       0       0
  2886 ;;Total ram usage:        7 bytes
  2887 ;; Hardware stack levels used:    1
  2888 ;; Hardware stack levels required when called:    4
  2889 ;; This function calls:
  2890 ;;		_KeyIsIn
  2891 ;; This function is called by:
  2892 ;;		_CheckTouchKey
  2893 ;; This function uses a non-reentrant model
  2894 ;;
  2895  0EF5                     _CheckKeyOldValue:	
  2896                           
  2897                           ;CheckTouchKey.c: 337: static unsigned char counter = 0;
  2898                           ;CheckTouchKey.c: 338: unsigned char cnt = 0;
  2899                           
  2900                           ; Regs used in _CheckKeyOldValue: [wreg-fsr0h+status,2+status,0+btemp+1+pclath+cstack]
  2901  0EF5  1283               	bcf	3,5	;RP0=0, select bank0
  2902  0EF6  3004               	movlw	4
  2903  0EF7  01E5               	clrf	CheckKeyOldValue@cnt
  2904                           
  2905                           ;CheckTouchKey.c: 339: unsigned int KeyResTemp;
  2906                           ;CheckTouchKey.c: 340: unsigned int KeyOldTemp;
  2907                           ;CheckTouchKey.c: 342: if(++counter < 4)
  2908  0EF8  1683               	bsf	3,5	;RP0=1, select bank1
  2909  0EF9  0ACF               	incf	CheckKeyOldValue@counter^(0+128),f
  2910  0EFA  024F               	subwf	CheckKeyOldValue@counter^(0+128),w
  2911  0EFB  1C03               	btfss	3,0
  2912  0EFC  0008               	return
  2913                           
  2914                           ;CheckTouchKey.c: 344: counter = 0;
  2915  0EFD  01CF               	clrf	CheckKeyOldValue@counter^(0+128)
  2916  0EFE                     l15395:	
  2917                           
  2918                           ;CheckTouchKey.c: 347: {
  2919                           ;CheckTouchKey.c: 348: KeyResTemp = KeyResSum[cnt];
  2920  0EFE  1283               	bcf	3,5	;RP0=0, select bank0
  2921  0EFF  1003               	clrc
  2922  0F00  0D65               	rlf	CheckKeyOldValue@cnt,w
  2923  0F01  3EC8               	addlw	_KeyResSum& (0+255)
  2924  0F02  0084               	movwf	4
  2925  0F03  1783               	bsf	3,7	;select IRP bank3
  2926  0F04  0800               	movf	0,w
  2927  0F05  00E1               	movwf	CheckKeyOldValue@KeyResTemp
  2928  0F06  0A84               	incf	4,f
  2929  0F07  0800               	movf	0,w
  2930  0F08  00E2               	movwf	CheckKeyOldValue@KeyResTemp+1
  2931                           
  2932                           ;CheckTouchKey.c: 349: if(!KeyIsIn(cnt))
  2933  0F09  0865               	movf	CheckKeyOldValue@cnt,w
  2934  0F0A  26AC  120A  158A   	fcall	_KeyIsIn
  2935  0F0D  3800               	iorlw	0
  2936                           
  2937                           ;CheckTouchKey.c: 350: {
  2938                           ;CheckTouchKey.c: 352: KeyOldTemp = KeyOldValue0[cnt] - KeyResTemp;
  2939  0F0E  1003               	clrc
  2940  0F0F  1D03               	skipz
  2941  0F10  2F4B               	goto	L19
  2942  0F11  0D65               	rlf	CheckKeyOldValue@cnt,w
  2943  0F12  3E20               	addlw	_KeyOldValue0& (0+255)
  2944  0F13  0084               	movwf	4
  2945  0F14  1783               	bsf	3,7	;select IRP bank2
  2946                           
  2947                           ;CheckTouchKey.c: 353: if(KeyOldTemp <= 1 || KeyOldTemp >= -1)
  2948  0F15  27B6  120A  158A   	fcall	PL3	;call to abstracted procedure
  2949  0F18  1903               	skipnz
  2950  0F19  0263               	subwf	CheckKeyOldValue@KeyOldTemp,w
  2951  0F1A  1C03               	skipc
  2952  0F1B  2F22               	goto	L16
  2953  0F1C  0A63               	incf	CheckKeyOldValue@KeyOldTemp,w
  2954  0F1D  1903               	skipnz
  2955  0F1E  0A64               	incf	CheckKeyOldValue@KeyOldTemp+1,w
  2956                           
  2957                           ;CheckTouchKey.c: 354: {
  2958                           ;CheckTouchKey.c: 355: KeyOldTemp = KeyOldValue1[cnt] - KeyResTemp;
  2959  0F1F  1003               	clrc
  2960  0F20  1D03               	skipz
  2961  0F21  2F4B               	goto	L19
  2962  0F22                     L16:	
  2963  0F22  0D65               	rlf	CheckKeyOldValue@cnt,w
  2964  0F23  3E98               	addlw	_KeyOldValue1& (0+255)
  2965  0F24  0084               	movwf	4
  2966                           
  2967                           ;CheckTouchKey.c: 356: if(KeyOldTemp <= 1 || KeyOldTemp >= -1)
  2968  0F25  27B6  120A  158A   	fcall	PL3	;call to abstracted procedure
  2969  0F28  1903               	skipnz
  2970  0F29  0263               	subwf	CheckKeyOldValue@KeyOldTemp,w
  2971  0F2A  1C03               	skipc
  2972  0F2B  2F32               	goto	L17
  2973  0F2C  0A63               	incf	CheckKeyOldValue@KeyOldTemp,w
  2974  0F2D  1903               	skipnz
  2975  0F2E  0A64               	incf	CheckKeyOldValue@KeyOldTemp+1,w
  2976                           
  2977                           ;CheckTouchKey.c: 357: {
  2978                           ;CheckTouchKey.c: 358: KeyOldTemp = KeyOldValue2[cnt] - KeyResTemp;
  2979  0F2F  1003               	clrc
  2980  0F30  1D03               	skipz
  2981  0F31  2F4B               	goto	L19
  2982  0F32                     L17:	
  2983  0F32  0D65               	rlf	CheckKeyOldValue@cnt,w
  2984  0F33  3E38               	addlw	_KeyOldValue2& (0+255)
  2985  0F34  0084               	movwf	4
  2986                           
  2987                           ;CheckTouchKey.c: 359: if(KeyOldTemp <= 1 || KeyOldTemp >= -1)
  2988  0F35  27B6  120A  158A   	fcall	PL3	;call to abstracted procedure
  2989  0F38  1903               	skipnz
  2990  0F39  0263               	subwf	CheckKeyOldValue@KeyOldTemp,w
  2991  0F3A  1C03               	skipc
  2992  0F3B  2F42               	goto	L18
  2993  0F3C  0A63               	incf	CheckKeyOldValue@KeyOldTemp,w
  2994  0F3D  1903               	skipnz
  2995  0F3E  0A64               	incf	CheckKeyOldValue@KeyOldTemp+1,w
  2996                           
  2997                           ;CheckTouchKey.c: 360: {
  2998                           ;CheckTouchKey.c: 361: KeyReference[cnt] = KeyResTemp;
  2999  0F3F  1003               	clrc
  3000  0F40  1D03               	skipz
  3001  0F41  2F4B               	goto	L19
  3002  0F42                     L18:	
  3003  0F42  0D65               	rlf	CheckKeyOldValue@cnt,w
  3004  0F43  3EB0               	addlw	_KeyReference& (0+255)
  3005  0F44  0084               	movwf	4
  3006  0F45  0861               	movf	CheckKeyOldValue@KeyResTemp,w
  3007  0F46  0080               	movwf	0
  3008  0F47  0A84               	incf	4,f
  3009  0F48  0862               	movf	CheckKeyOldValue@KeyResTemp+1,w
  3010  0F49  0080               	movwf	0
  3011                           
  3012                           ;CheckTouchKey.c: 362: }
  3013                           ;CheckTouchKey.c: 363: }
  3014                           ;CheckTouchKey.c: 364: }
  3015                           ;CheckTouchKey.c: 365: }
  3016                           ;CheckTouchKey.c: 368: KeyOldValue2[cnt] = KeyOldValue1[cnt];
  3017  0F4A  1003               	clrc
  3018  0F4B                     L19:	
  3019  0F4B  0D65               	rlf	CheckKeyOldValue@cnt,w
  3020  0F4C  3E98               	addlw	_KeyOldValue1& (0+255)
  3021  0F4D  0084               	movwf	4
  3022  0F4E  1783               	bsf	3,7	;select IRP bank3
  3023  0F4F  27E9  120A  158A   	fcall	PL26	;call to abstracted procedure
  3024  0F52  3E38               	addlw	_KeyOldValue2& (0+255)
  3025                           
  3026                           ;CheckTouchKey.c: 369: KeyOldValue1[cnt] = KeyOldValue0[cnt];
  3027  0F53  27DE  120A  158A   	fcall	PL14	;call to abstracted procedure
  3028  0F56  27E9  120A  158A   	fcall	PL26	;call to abstracted procedure
  3029  0F59  3E98               	addlw	_KeyOldValue1& (0+255)
  3030                           
  3031                           ;CheckTouchKey.c: 370: KeyOldValue0[cnt] = KeyResTemp;
  3032  0F5A  27DE  120A  158A   	fcall	PL14	;call to abstracted procedure
  3033  0F5D  0861               	movf	CheckKeyOldValue@KeyResTemp,w
  3034  0F5E  0080               	movwf	0
  3035  0F5F  0A84               	incf	4,f
  3036  0F60  0862               	movf	CheckKeyOldValue@KeyResTemp+1,w
  3037  0F61  0080               	movwf	0
  3038  0F62  300C               	movlw	12
  3039  0F63  0AE5               	incf	CheckKeyOldValue@cnt,f
  3040  0F64  0265               	subwf	CheckKeyOldValue@cnt,w
  3041  0F65  1803               	btfsc	3,0
  3042  0F66  0008               	return
  3043  0F67  2EFE               	goto	l15395
  3044  0F68                     __end_of_CheckKeyOldValue:	
  3045  0F68                     __ptext1270:	
  3046 ;; =============== function _CheckTouchKey ends ============
  3047                           
  3048                           
  3049 ;; *************** function _TurnKeyFlags *****************
  3050 ;; Defined at:
  3051 ;;		line 383 in file "F:\2016\\Library Source Code\TouchKey_Library_V102\CMS69F628_TK_Lib\CheckTouchKey.c"
  3052 ;; Parameters:    Size  Location     Type
  3053 ;;		None
  3054 ;; Auto vars:     Size  Location     Type
  3055 ;;		None
  3056 ;; Return value:  Size  Location     Type
  3057 ;;		None               void
  3058 ;; Registers used:
  3059 ;;		wreg, fsr0l, fsr0h, status,2, status,0, btemp+1, pclath, cstack
  3060 ;; Tracked objects:
  3061 ;;		On entry : 160/100
  3062 ;;		On exit  : 40/0
  3063 ;;		Unchanged: FFE9F/0
  3064 ;; Data sizes:     COMMON   BANK0   BANK1   BANK3   BANK2
  3065 ;;      Params:         0       0       0       0       0
  3066 ;;      Locals:         0       0       0       0       0
  3067 ;;      Temps:          0       0       0       0       0
  3068 ;;      Totals:         0       0       0       0       0
  3069 ;;Total ram usage:        0 bytes
  3070 ;; Hardware stack levels used:    1
  3071 ;; Hardware stack levels required when called:    5
  3072 ;; This function calls:
  3073 ;;		_KeyClearIn
  3074 ;; This function is called by:
  3075 ;;		_CheckTouchKey
  3076 ;; This function uses a non-reentrant model
  3077 ;;
  3078  0F68                     _TurnKeyFlags:	
  3079                           
  3080                           ;CheckTouchKey.c: 384: static unsigned char KeyHaveTimes = 0;
  3081                           ;CheckTouchKey.c: 385: static unsigned char KeyNoTimes = 0;
  3082                           ;CheckTouchKey.c: 387: if(KeyData[0] | KeyData[1])
  3083                           
  3084                           ; Regs used in _TurnKeyFlags: [wreg-fsr0h+status,2+status,0+btemp+1+pclath+cstack]
  3085  0F68  082F               	movf	_KeyData+1,w	;volatile
  3086  0F69  042E               	iorwf	_KeyData,w	;volatile
  3087  0F6A  1903               	btfsc	3,2
  3088  0F6B  2F8F               	goto	l16221
  3089                           
  3090                           ;CheckTouchKey.c: 388: {
  3091                           ;CheckTouchKey.c: 389: KeyNoTimes = 0;
  3092  0F6C  1683               	bsf	3,5	;RP0=1, select bank1
  3093  0F6D  01D1               	clrf	TurnKeyFlags@KeyNoTimes^(0+128)
  3094                           
  3095                           ;CheckTouchKey.c: 391: if(KeyData[0] == KeyOldData[0] && KeyData[1] == KeyOldData[1])
  3096  0F6E  1283               	bcf	3,5	;RP0=0, select bank0
  3097  0F6F  082E               	movf	_KeyData,w	;volatile
  3098  0F70  0632               	xorwf	_KeyOldData,w	;volatile
  3099  0F71  1D03               	skipz
  3100  0F72  2F87               	goto	l6987
  3101  0F73  082F               	movf	_KeyData+1,w	;volatile
  3102  0F74  0633               	xorwf	_KeyOldData+1,w	;volatile
  3103  0F75  1D03               	skipz
  3104  0F76  2F87               	goto	l6987
  3105  0F77  3002               	movlw	2
  3106  0F78  1683               	bsf	3,5	;RP0=1, select bank1
  3107  0F79  0AD0               	incf	TurnKeyFlags@KeyHaveTimes^(0+128),f
  3108  0F7A  0250               	subwf	TurnKeyFlags@KeyHaveTimes^(0+128),w
  3109  0F7B  1C03               	skipc
  3110  0F7C  0008               	return
  3111                           
  3112                           ;CheckTouchKey.c: 394: {
  3113                           ;CheckTouchKey.c: 395: KeyHaveTimes = 0;
  3114  0F7D  01D0               	clrf	TurnKeyFlags@KeyHaveTimes^(0+128)
  3115                           
  3116                           ;CheckTouchKey.c: 396: KeyFlag[0] = KeyData[0];
  3117  0F7E  1283               	bcf	3,5	;RP0=0, select bank0
  3118  0F7F  082E               	movf	_KeyData,w	;volatile
  3119  0F80  00B0               	movwf	_KeyFlag	;volatile
  3120                           
  3121                           ;CheckTouchKey.c: 397: KeyFlag[1] = KeyData[1];
  3122  0F81  082F               	movf	_KeyData+1,w	;volatile
  3123  0F82  00B1               	movwf	_KeyFlag+1	;volatile
  3124                           
  3125                           ;CheckTouchKey.c: 400: {
  3126                           ;CheckTouchKey.c: 401: if(!b_kclr)
  3127  0F83  1873               	btfsc	_b_kclr/(0+8),_b_kclr& (0+7)
  3128  0F84  0008               	return
  3129                           
  3130                           ;CheckTouchKey.c: 402: {
  3131                           ;CheckTouchKey.c: 403: b_kclr = 1;
  3132  0F85  1473               	bsf	_b_kclr/(0+8),_b_kclr& (0+7)
  3133                           
  3134                           ;CheckTouchKey.c: 404: KeyClearIn();
  3135  0F86  2DA8               	ljmp	l15275
  3136  0F87                     l6987:	
  3137                           
  3138                           ;CheckTouchKey.c: 409: else
  3139                           ;CheckTouchKey.c: 410: {
  3140                           ;CheckTouchKey.c: 411: b_kclr = 0;
  3141  0F87  1073               	bcf	_b_kclr/(0+8),_b_kclr& (0+7)
  3142                           
  3143                           ;CheckTouchKey.c: 412: KeyOldData[0] = KeyData[0];
  3144  0F88  082E               	movf	_KeyData,w	;volatile
  3145  0F89  00B2               	movwf	_KeyOldData	;volatile
  3146                           
  3147                           ;CheckTouchKey.c: 413: KeyOldData[1] = KeyData[1];
  3148  0F8A  082F               	movf	_KeyData+1,w	;volatile
  3149  0F8B  00B3               	movwf	_KeyOldData+1	;volatile
  3150                           
  3151                           ;CheckTouchKey.c: 414: KeyHaveTimes = 0;
  3152  0F8C  1683               	bsf	3,5	;RP0=1, select bank1
  3153  0F8D  01D0               	clrf	TurnKeyFlags@KeyHaveTimes^(0+128)
  3154  0F8E  0008               	return
  3155  0F8F                     l16221:	
  3156                           ;CheckTouchKey.c: 415: }
  3157                           ;CheckTouchKey.c: 416: }
  3158                           
  3159                           
  3160                           ;CheckTouchKey.c: 417: else
  3161                           ;CheckTouchKey.c: 418: {
  3162                           ;CheckTouchKey.c: 419: KeyHaveTimes = 0;
  3163  0F8F  1683               	bsf	3,5	;RP0=1, select bank1
  3164  0F90  01D0               	clrf	TurnKeyFlags@KeyHaveTimes^(0+128)
  3165                           
  3166                           ;CheckTouchKey.c: 420: KeyOldData[0] = 0;
  3167  0F91  1283               	bcf	3,5	;RP0=0, select bank0
  3168  0F92  01B2               	clrf	_KeyOldData	;volatile
  3169                           
  3170                           ;CheckTouchKey.c: 421: KeyOldData[1] = 0;
  3171  0F93  01B3               	clrf	_KeyOldData+1	;volatile
  3172                           
  3173                           ;CheckTouchKey.c: 423: if(++KeyNoTimes >=2)
  3174  0F94  3002               	movlw	2
  3175  0F95  1683               	bsf	3,5	;RP0=1, select bank1
  3176  0F96  0AD1               	incf	TurnKeyFlags@KeyNoTimes^(0+128),f
  3177  0F97  0251               	subwf	TurnKeyFlags@KeyNoTimes^(0+128),w
  3178  0F98  1C03               	skipc
  3179  0F99  0008               	return
  3180                           
  3181                           ;CheckTouchKey.c: 424: {
  3182                           ;CheckTouchKey.c: 425: KeyNoTimes = 0;
  3183  0F9A  01D1               	clrf	TurnKeyFlags@KeyNoTimes^(0+128)
  3184                           
  3185                           ;CheckTouchKey.c: 426: KeyFlag[0] = 0;
  3186  0F9B  1283               	bcf	3,5	;RP0=0, select bank0
  3187  0F9C  01B0               	clrf	_KeyFlag	;volatile
  3188                           
  3189                           ;CheckTouchKey.c: 427: KeyFlag[1] = 0;
  3190  0F9D  01B1               	clrf	_KeyFlag+1	;volatile
  3191                           
  3192                           ;CheckTouchKey.c: 429: b_kclr = 0;
  3193  0F9E  1073               	bcf	_b_kclr/(0+8),_b_kclr& (0+7)
  3194  0F9F  0008               	return
  3195  0FA0                     __end_of_TurnKeyFlags:	
  3196  0FA0                     __ptext1286:	
  3197 ;; =============== function ___lwdiv ends ============
  3198                           
  3199                           
  3200 ;; *************** function _CheckValidTime *****************
  3201 ;; Defined at:
  3202 ;;		line 468 in file "F:\2016\\Library Source Code\TouchKey_Library_V102\CMS69F628_TK_Lib\CheckTouchKey.c"
  3203 ;; Parameters:    Size  Location     Type
  3204 ;;		None
  3205 ;; Auto vars:     Size  Location     Type
  3206 ;;		None
  3207 ;; Return value:  Size  Location     Type
  3208 ;;		None               void
  3209 ;; Registers used:
  3210 ;;		wreg, status,2, status,0
  3211 ;; Tracked objects:
  3212 ;;		On entry : 60/100
  3213 ;;		On exit  : 60/160
  3214 ;;		Unchanged: FFF9F/0
  3215 ;; Data sizes:     COMMON   BANK0   BANK1   BANK3   BANK2
  3216 ;;      Params:         0       0       0       0       0
  3217 ;;      Locals:         0       0       0       0       0
  3218 ;;      Temps:          0       0       0       0       0
  3219 ;;      Totals:         0       0       0       0       0
  3220 ;;Total ram usage:        0 bytes
  3221 ;; Hardware stack levels used:    1
  3222 ;; Hardware stack levels required when called:    3
  3223 ;; This function calls:
  3224 ;;		Nothing
  3225 ;; This function is called by:
  3226 ;;		_CheckTouchKey
  3227 ;; This function uses a non-reentrant model
  3228 ;;
  3229  0FA0                     _CheckValidTime:	
  3230  0FA0                     l14919:	
  3231                           ; Regs used in _CheckValidTime: [wreg+status,2+status,0]
  3232                           
  3233                           
  3234                           ;CheckTouchKey.c: 472: {
  3235                           ;CheckTouchKey.c: 473: if(KeyFlag[0] | KeyFlag[1])
  3236  0FA0  0831               	movf	_KeyFlag+1,w	;volatile
  3237  0FA1  0430               	iorwf	_KeyFlag,w	;volatile
  3238  0FA2  1903               	btfsc	3,2
  3239  0FA3  2FB1               	goto	l14925
  3240  0FA4  1683               	bsf	3,5	;RP0=1, select bank3
  3241  0FA5  1703               	bsf	3,6	;RP1=1, select bank3
  3242  0FA6  0AE0               	incf	CheckValidTime@validtime^(0+384),f
  3243  0FA7  1903               	skipnz
  3244  0FA8  0AE1               	incf	(CheckValidTime@validtime+1)^(0+384),f
  3245  0FA9  303A               	movlw	58
  3246  0FAA  0261               	subwf	(CheckValidTime@validtime+1)^(0+384),w
  3247  0FAB  3098               	movlw	152
  3248  0FAC  1903               	skipnz
  3249  0FAD  0260               	subwf	CheckValidTime@validtime^(0+384),w
  3250  0FAE  1C03               	skipc
  3251  0FAF  0008               	return
  3252                           
  3253                           ;CheckTouchKey.c: 476: {
  3254                           ;CheckTouchKey.c: 477: b_kerr = 1;
  3255  0FB0  14F3               	bsf	_b_kerr/(0+8),_b_kerr& (0+7)
  3256  0FB1                     l14925:	
  3257                           
  3258                           ;CheckTouchKey.c: 478: validtime = 0;
  3259  0FB1  1683               	bsf	3,5	;RP0=1, select bank3
  3260  0FB2  1703               	bsf	3,6	;RP1=1, select bank3
  3261  0FB3  01E0               	clrf	CheckValidTime@validtime^(0+384)
  3262  0FB4  01E1               	clrf	(CheckValidTime@validtime+1)^(0+384)
  3263  0FB5  0008               	return
  3264  0FB6                     __end_of_CheckValidTime:	
  3265  0FB6                     PL3:	
  3266  0FB6  0800               	movf	0,w
  3267  0FB7  00E3               	movwf	CheckKeyOldValue@KeyOldTemp
  3268  0FB8  0A84               	incf	4,f
  3269  0FB9  0800               	movf	0,w
  3270  0FBA  00E4               	movwf	CheckKeyOldValue@KeyOldTemp+1
  3271  0FBB  0861               	movf	CheckKeyOldValue@KeyResTemp,w
  3272  0FBC  02E3               	subwf	CheckKeyOldValue@KeyOldTemp,f
  3273  0FBD  0862               	movf	CheckKeyOldValue@KeyResTemp+1,w
  3274  0FBE  1C03               	skipc
  3275  0FBF  03E4               	decf	CheckKeyOldValue@KeyOldTemp+1,f
  3276  0FC0  02E4               	subwf	CheckKeyOldValue@KeyOldTemp+1,f
  3277  0FC1  3000               	movlw	0
  3278  0FC2  0264               	subwf	CheckKeyOldValue@KeyOldTemp+1,w
  3279  0FC3  3402               	retlw	2
  3280  0FC4                     PL5:	
  3281  0FC4  0800               	movf	0,w
  3282  0FC5  00E0               	movwf	??_CheckOnceResult
  3283  0FC6  0A84               	incf	4,f
  3284  0FC7  0800               	movf	0,w
  3285  0FC8  00E1               	movwf	??_CheckOnceResult+1
  3286  0FC9  0869               	movf	CheckOnceResult@KeyDown,w
  3287  0FCA  0760               	addwf	??_CheckOnceResult,w
  3288  0FCB  00E2               	movwf	??_CheckOnceResult+2
  3289  0FCC  0861               	movf	??_CheckOnceResult+1,w
  3290  0FCD  1803               	skipnc
  3291  0FCE  0A61               	incf	??_CheckOnceResult+1,w
  3292  0FCF  00E3               	movwf	??_CheckOnceResult+3
  3293  0FD0  086B               	movf	CheckOnceResult@KeyResTemp+1,w
  3294  0FD1  0263               	subwf	??_CheckOnceResult+3,w
  3295  0FD2  1D03               	skipz
  3296  0FD3  0008               	return
  3297  0FD4  086A               	movf	CheckOnceResult@KeyResTemp,w
  3298  0FD5  0262               	subwf	??_CheckOnceResult+2,w
  3299  0FD6  0008               	return
  3300  0FD7                     PL13:	
  3301  0FD7  0084               	movwf	4
  3302  0FD8  0800               	movf	0,w
  3303  0FD9  00E0               	movwf	??_CheckOnceResult
  3304  0FDA  0A84               	incf	4,f
  3305  0FDB  0800               	movf	0,w
  3306  0FDC  00E1               	movwf	??_CheckOnceResult+1
  3307  0FDD  0008               	return
  3308  0FDE                     PL14:	
  3309  0FDE  0084               	movwf	4
  3310  0FDF  085F               	movf	??_CheckKeyOldValue,w
  3311  0FE0  0080               	movwf	0
  3312  0FE1  0A84               	incf	4,f
  3313  0FE2  0860               	movf	??_CheckKeyOldValue+1,w
  3314  0FE3  0080               	movwf	0
  3315  0FE4  1003               	clrc
  3316  0FE5  0D65               	rlf	CheckKeyOldValue@cnt,w
  3317  0FE6  3E20               	addlw	_KeyOldValue0& (0+255)
  3318  0FE7  0084               	movwf	4
  3319  0FE8  0008               	return
  3320  0FE9                     PL26:	
  3321  0FE9  0800               	movf	0,w
  3322  0FEA  00DF               	movwf	??_CheckKeyOldValue
  3323  0FEB  0A84               	incf	4,f
  3324  0FEC  0800               	movf	0,w
  3325  0FED  00E0               	movwf	??_CheckKeyOldValue+1
  3326  0FEE  1003               	clrc
  3327  0FEF  0D65               	rlf	CheckKeyOldValue@cnt,w
  3328  0FF0  0008               	return
  3329  0FF1                     PL27:	
  3330  0FF1  3907               	andlw	7
  3331  0FF2  3EEB               	addlw	low (_Table_KeyFalg| (0+32768))
  3332  0FF3  0084               	movwf	4
  3333  0FF4  3091               	movlw	high (_Table_KeyFalg| (0+32768))
  3334  0FF5  1803               	skipnc
  3335  0FF6  3E01               	addlw	1
  3336  0FF7  00FF               	movwf	127
  3337  0FF8  0008               	return
  3338  0FF9                     PL29:	
  3339  0FF9  0084               	movwf	4
  3340  0FFA  0180               	clrf	0
  3341  0FFB  0A84               	incf	4,f
  3342  0FFC  0180               	clrf	0
  3343  0FFD  1003               	clrc
  3344  0FFE  0D5D               	rlf	KeyClearOne@cnt,w
  3345  0FFF  0008               	return
  3346                           
  3347                           	psect	text1271
  3348  0011                     __ptext1271:	
  3349 ;; =============== function _TurnKeyFlags ends ============
  3350                           
  3351                           
  3352 ;; *************** function _Pattern *****************
  3353 ;; Defined at:
  3354 ;;		line 697 in file "E:\BBA'DATA\\\V4.7\pattern_fuction.c"
  3355 ;; Parameters:    Size  Location     Type
  3356 ;;		None
  3357 ;; Auto vars:     Size  Location     Type
  3358 ;;		None
  3359 ;; Return value:  Size  Location     Type
  3360 ;;		None               void
  3361 ;; Registers used:
  3362 ;;		wreg, fsr0l, fsr0h, status,2, status,0, btemp+1, pclath, cstack
  3363 ;; Tracked objects:
  3364 ;;		On entry : 40/20
  3365 ;;		On exit  : 40/0
  3366 ;;		Unchanged: FFE9F/0
  3367 ;; Data sizes:     COMMON   BANK0   BANK1   BANK3   BANK2
  3368 ;;      Params:         0       0       0       0       0
  3369 ;;      Locals:         0       0       0       0       0
  3370 ;;      Temps:          0       1       0       0       0
  3371 ;;      Totals:         0       1       0       0       0
  3372 ;;Total ram usage:        1 bytes
  3373 ;; Hardware stack levels used:    1
  3374 ;; Hardware stack levels required when called:    5
  3375 ;; This function calls:
  3376 ;;		_LED_Crt
  3377 ;;		___awdiv
  3378 ;;		___awmod
  3379 ;;		___lbdiv
  3380 ;;		___lbmod
  3381 ;;		_Hex_To_Temp
  3382 ;; This function is called by:
  3383 ;;		_main
  3384 ;; This function uses a non-reentrant model
  3385 ;;
  3386  0011                     _Pattern:	
  3387                           
  3388                           ;pattern_fuction.c: 698: LED_Crt();
  3389                           
  3390                           ; Regs used in _Pattern: [wreg-fsr0h+status,2+status,0+btemp+1+pclath+cstack]
  3391  0011  160A  118A  25E9   	fcall	_LED_Crt
      +       120A  118A         
  3392                           
  3393                           ;pattern_fuction.c: 699: switch(Pattern_State)
  3394  0016  2DC7               	goto	l16193
  3395  0017                     l5360:	
  3396                           ;pattern_fuction.c: 700: {
  3397                           ;pattern_fuction.c: 701: case 0:
  3398                           
  3399                           
  3400                           ;pattern_fuction.c: 702: Rbeep=1;
  3401  0017  1283               	bcf	3,5	;RP0=0, select bank0
  3402  0018  3005               	movlw	5
  3403  0019  01D0               	clrf	_Rbeep
  3404  001A  0AD0               	incf	_Rbeep,f
  3405                           
  3406                           ;pattern_fuction.c: 703: LCD_State=5;
  3407  001B  1683               	bsf	3,5	;RP0=1, select bank1
  3408  001C  00DA               	movwf	_LCD_State^(0+128)
  3409  001D  30BA               	movlw	low (_LCDCode| (0+32768))
  3410                           
  3411                           ;pattern_fuction.c: 704: LCD_COL_Flash_Times=0;
  3412  001E  01D6               	clrf	_LCD_COL_Flash_Times^(0+128)
  3413                           
  3414                           ;pattern_fuction.c: 705: LCD_AUTO_Flash_Times=0;
  3415  001F  01D5               	clrf	_LCD_AUTO_Flash_Times^(0+128)
  3416                           
  3417                           ;pattern_fuction.c: 706: LCD_TIMER_Flash_Times=0;
  3418  0020  01DC               	clrf	_LCD_TIMER_Flash_Times^(0+128)
  3419                           
  3420                           ;pattern_fuction.c: 707: LCD_TEMP_Flash_Times=0;
  3421  0021  01DB               	clrf	_LCD_TEMP_Flash_Times^(0+128)
  3422                           
  3423                           ;pattern_fuction.c: 708: LCD_HOUR_Flash_Times=0;
  3424  0022  01D8               	clrf	_LCD_HOUR_Flash_Times^(0+128)
  3425                           
  3426                           ;pattern_fuction.c: 709: LCD_MINUTE_Flash_Times=0;
  3427  0023  01D9               	clrf	_LCD_MINUTE_Flash_Times^(0+128)
  3428                           
  3429                           ;pattern_fuction.c: 711: Display_Temp[0]=LCDCode[0];
  3430  0024  0084               	movwf	4
  3431  0025  3091               	movlw	high (_LCDCode| (0+32768))
  3432  0026  1283               	bcf	3,5	;RP0=0, select bank0
  3433  0027  00FF               	movwf	127
  3434  0028  160A  118A  2000   	fcall	stringtab
      +       120A  118A         
  3435  002D  1683               	bsf	3,5	;RP0=1, select bank1
  3436  002E  00A0               	movwf	_Display_Temp^(0+128)	;volatile
  3437                           
  3438                           ;pattern_fuction.c: 712: Display_Temp[1]=LCDCode[0];
  3439  002F  272E               	fcall	PL33	;call to abstracted procedure
  3440  0030  160A  118A  2000   	fcall	stringtab
      +       120A  118A         
  3441  0035  1683               	bsf	3,5	;RP0=1, select bank1
  3442  0036  00A1               	movwf	(_Display_Temp^(0+128)+1)	;volatile
  3443                           
  3444                           ;pattern_fuction.c: 713: Display_Temp[2]=LCDCode[0];
  3445  0037  272E               	fcall	PL33	;call to abstracted procedure
  3446  0038  160A  118A  2000   	fcall	stringtab
      +       120A  118A         
  3447  003D  1683               	bsf	3,5	;RP0=1, select bank1
  3448  003E  00A2               	movwf	(_Display_Temp^(0+128)+2)	;volatile
  3449                           
  3450                           ;pattern_fuction.c: 714: Display_Temp[3]=LCDCode[0];
  3451  003F  272E               	fcall	PL33	;call to abstracted procedure
  3452  0040  160A  118A  2000   	fcall	stringtab
      +       120A  118A         
  3453  0045  1683               	bsf	3,5	;RP0=1, select bank1
  3454  0046  00A3               	movwf	(_Display_Temp^(0+128)+3)	;volatile
  3455                           
  3456                           ;pattern_fuction.c: 717: Water_Temp=95;
  3457  0047  305F               	movlw	95
  3458  0048  1283               	bcf	3,5	;RP0=0, select bank0
  3459  0049  00EF               	movwf	_Water_Temp
  3460                           
  3461                           ;pattern_fuction.c: 718: bool_WaterTempChange=0;
  3462  004A  12F3               	bcf	_bool_WaterTempChange/(0+8),_bool_WaterTempChange& (0+7)
  3463                           
  3464                           ;pattern_fuction.c: 719: bool_TimeChange=0;
  3465  004B  1273               	bcf	_bool_TimeChange/(0+8),_bool_TimeChange& (0+7)
  3466                           
  3467                           ;pattern_fuction.c: 721: WorkSecond=0;
  3468  004C  01D8               	clrf	_WorkSecond
  3469                           
  3470                           ;pattern_fuction.c: 722: WorkMinute=0;
  3471  004D  01D7               	clrf	_WorkMinute
  3472                           
  3473                           ;pattern_fuction.c: 725: Pattern_LED_Crt=0;
  3474  004E  1683               	bsf	3,5	;RP0=1, select bank1
  3475  004F  01BB               	clrf	_Pattern_LED_Crt^(0+128)
  3476  0050  01BC               	clrf	(_Pattern_LED_Crt+1)^(0+128)
  3477                           
  3478                           ;pattern_fuction.c: 726: BG_LED_ON_Time=0;
  3479  0051  1283               	bcf	3,5	;RP0=0, select bank0
  3480  0052  01B9               	clrf	_BG_LED_ON_Time
  3481                           
  3482                           ;pattern_fuction.c: 728: Pattern_Work_Time=0;
  3483  0053  1683               	bsf	3,5	;RP0=1, select bank1
  3484  0054  01BD               	clrf	_Pattern_Work_Time^(0+128)
  3485  0055  01BE               	clrf	(_Pattern_Work_Time+1)^(0+128)
  3486                           
  3487                           ;pattern_fuction.c: 729: Solenoid_ON_Time=0;
  3488  0056  01C3               	clrf	_Solenoid_ON_Time^(0+128)
  3489  0057  01C4               	clrf	(_Solenoid_ON_Time+1)^(0+128)
  3490                           
  3491                           ;pattern_fuction.c: 730: Solenoid_OFF_Time=0;
  3492  0058  01BF               	clrf	_Solenoid_OFF_Time^(0+128)
  3493  0059  01C0               	clrf	(_Solenoid_OFF_Time+1)^(0+128)
  3494                           
  3495                           ;pattern_fuction.c: 731: Pattern_Work_State=0;
  3496  005A  01EA               	clrf	_Pattern_Work_State^(0+128)
  3497                           
  3498                           ;pattern_fuction.c: 733: Regular=0;
  3499  005B  1283               	bcf	3,5	;RP0=0, select bank0
  3500  005C  01D2               	clrf	_Regular
  3501                           
  3502                           ;pattern_fuction.c: 734: Bold=0;
  3503  005D  01BB               	clrf	_Bold
  3504                           
  3505                           ;pattern_fuction.c: 735: Iced=0;
  3506  005E  01BF               	clrf	_Iced
  3507                           
  3508                           ;pattern_fuction.c: 736: Tea=0;
  3509  005F  01D6               	clrf	_Tea
  3510                           
  3511                           ;pattern_fuction.c: 737: Add=0;
  3512  0060  01B8               	clrf	_Add
  3513                           
  3514                           ;pattern_fuction.c: 738: Reduce=0;
  3515  0061  01D1               	clrf	_Reduce
  3516                           
  3517                           ;pattern_fuction.c: 739: _80_z=0;
  3518  0062  01DC               	clrf	__80_z
  3519                           
  3520                           ;pattern_fuction.c: 740: _120_z=0;
  3521  0063  01D9               	clrf	__120_z
  3522                           
  3523                           ;pattern_fuction.c: 741: _210_z=0;
  3524  0064  01DA               	clrf	__210_z
  3525                           
  3526                           ;pattern_fuction.c: 742: _420_z=0;
  3527  0065  01DB               	clrf	__420_z
  3528                           
  3529                           ;pattern_fuction.c: 743: Option=0;
  3530  0066  01CF               	clrf	_Option
  3531                           
  3532                           ;pattern_fuction.c: 744: Start=0;
  3533  0067  01D5               	clrf	_Start
  3534                           
  3535                           ;pattern_fuction.c: 746: Key_Regular_Lock=0;
  3536                           
  3537                           ;pattern_fuction.c: 747: Key_Bold_Lock=0;
  3538                           
  3539                           ;pattern_fuction.c: 748: Key_Iced_Lock=0;
  3540                           
  3541                           ;pattern_fuction.c: 749: Key_Tea_Lock=0;
  3542                           
  3543                           ;pattern_fuction.c: 750: Key_Add_Lock=1;
  3544                           
  3545                           ;pattern_fuction.c: 751: Key_Reduce_Lock=1;
  3546                           
  3547                           ;pattern_fuction.c: 752: Key_80_Z_Lock=0;
  3548                           
  3549                           ;pattern_fuction.c: 753: Key_120_Z_Lock=0;
  3550                           
  3551                           ;pattern_fuction.c: 754: Key_210_Z_Lock=0;
  3552                           
  3553                           ;pattern_fuction.c: 755: Key_420_Z_Lock=0;
  3554  0068  26F1  120A  118A   	fcall	PL15	;call to abstracted procedure
  3555                           
  3556                           ;pattern_fuction.c: 756: Key_Option_Lock=0;
  3557  006B  1371               	bcf	_Key_Option_Lock/(0+8),_Key_Option_Lock& (0+7)
  3558                           
  3559                           ;pattern_fuction.c: 757: Key_Start_Lock=1;
  3560  006C  1572               	bsf	_Key_Start_Lock/(0+8),_Key_Start_Lock& (0+7)
  3561                           
  3562                           ;pattern_fuction.c: 760: RA6=0;
  3563  006D  1305               	bcf	5,6
  3564                           
  3565                           ;pattern_fuction.c: 761: HOT_MAJOR_State=0;
  3566  006E  01BD               	clrf	_HOT_MAJOR_State
  3567                           
  3568                           ;pattern_fuction.c: 762: RC0=0;
  3569  006F  1007               	bcf	7,0
  3570                           
  3571                           ;pattern_fuction.c: 763: RA7=0;
  3572  0070  1385               	bcf	5,7
  3573                           
  3574                           ;pattern_fuction.c: 764: Solenoid_State=0;
  3575  0071  01D4               	clrf	_Solenoid_State
  3576                           
  3577                           ;pattern_fuction.c: 766: Pattern_State=1;
  3578  0072  1683               	bsf	3,5	;RP0=1, select bank1
  3579  0073  01E9               	clrf	_Pattern_State^(0+128)
  3580  0074  0AE9               	incf	_Pattern_State^(0+128),f
  3581  0075                     l15531:	
  3582  0075  301E               	movlw	30
  3583                           
  3584                           ;pattern_fuction.c: 768: LCD_HOUR_Flash_Times=0;
  3585  0076  01D8               	clrf	_LCD_HOUR_Flash_Times^(0+128)
  3586  0077  01D9               	clrf	_LCD_MINUTE_Flash_Times^(0+128)
  3587                           
  3588                           ;pattern_fuction.c: 770: if(BG_LED_ON_Time>=30)
  3589  0078  1283               	bcf	3,5	;RP0=0, select bank0
  3590  0079  0239               	subwf	_BG_LED_ON_Time,w
  3591  007A  1C03               	skipc
  3592  007B  2887               	goto	l15547
  3593                           
  3594                           ;pattern_fuction.c: 771: {
  3595                           ;pattern_fuction.c: 772: display[4]|=1<<0;
  3596  007C  1424               	bsf	_display+4,0	;volatile
  3597                           
  3598                           ;pattern_fuction.c: 773: display[4]|=1<<1;
  3599  007D  14A4               	bsf	_display+4,1	;volatile
  3600                           
  3601                           ;pattern_fuction.c: 774: display[4]|=1<<2;
  3602  007E  1524               	bsf	_display+4,2	;volatile
  3603                           
  3604                           ;pattern_fuction.c: 775: display[4]|=1<<3;
  3605  007F  15A4               	bsf	_display+4,3	;volatile
  3606  0080  30FF               	movlw	255
  3607                           
  3608                           ;pattern_fuction.c: 776: BG_LED_State=0;
  3609  0081  01BA               	clrf	_BG_LED_State
  3610                           
  3611                           ;pattern_fuction.c: 777: LCD_TEMP_Flash_Times=255;
  3612  0082  1683               	bsf	3,5	;RP0=1, select bank1
  3613  0083  00DB               	movwf	_LCD_TEMP_Flash_Times^(0+128)
  3614                           
  3615                           ;pattern_fuction.c: 778: LCD_TIMER_Flash_Times=255;
  3616  0084  00DC               	movwf	_LCD_TIMER_Flash_Times^(0+128)
  3617                           
  3618                           ;pattern_fuction.c: 779: LCD_AUTO_Flash_Times=255;
  3619  0085  00D5               	movwf	_LCD_AUTO_Flash_Times^(0+128)
  3620                           
  3621                           ;pattern_fuction.c: 780: LCD_COL_Flash_Times=255;
  3622  0086  00D6               	movwf	_LCD_COL_Flash_Times^(0+128)
  3623  0087                     l15547:	
  3624                           
  3625                           ;pattern_fuction.c: 781: }
  3626                           ;pattern_fuction.c: 782: if(Option)
  3627  0087  1283               	bcf	3,5	;RP0=0, select bank0
  3628  0088  084F               	movf	_Option,w
  3629  0089  1903               	btfsc	3,2
  3630  008A  288E               	goto	l15551
  3631                           
  3632                           ;pattern_fuction.c: 783: {
  3633                           ;pattern_fuction.c: 784: Pattern_State=4;
  3634  008B  3004               	movlw	4
  3635  008C  1683               	bsf	3,5	;RP0=1, select bank1
  3636  008D  00E9               	movwf	_Pattern_State^(0+128)
  3637  008E                     l15551:	
  3638                           
  3639                           ;pattern_fuction.c: 785: }
  3640                           ;pattern_fuction.c: 787: if(Regular|Bold|Iced|Tea|_80_z|_120_z|_210_z|_420_z)
  3641  008E  1283               	bcf	3,5	;RP0=0, select bank0
  3642  008F  0852               	movf	_Regular,w
  3643  0090  043B               	iorwf	_Bold,w
  3644  0091  043F               	iorwf	_Iced,w
  3645  0092  0456               	iorwf	_Tea,w
  3646  0093  045C               	iorwf	__80_z,w
  3647  0094  0459               	iorwf	__120_z,w
  3648  0095  045A               	iorwf	__210_z,w
  3649  0096  045B               	iorwf	__420_z,w
  3650  0097  1903               	btfsc	3,2
  3651  0098  0008               	return
  3652                           
  3653                           ;pattern_fuction.c: 788: {
  3654                           ;pattern_fuction.c: 789: Pattern_State=2;
  3655  0099  3002               	movlw	2
  3656  009A  1683               	bsf	3,5	;RP0=1, select bank1
  3657  009B  00E9               	movwf	_Pattern_State^(0+128)
  3658  009C  0008               	return
  3659  009D                     l15555:	
  3660                           
  3661                           ;pattern_fuction.c: 794: Pattern_LED_Crt=2;
  3662  009D  3002               	movlw	2
  3663  009E  00BB               	movwf	_Pattern_LED_Crt^(0+128)
  3664  009F  3003               	movlw	3
  3665  00A0  01BC               	clrf	(_Pattern_LED_Crt+1)^(0+128)
  3666                           
  3667                           ;pattern_fuction.c: 795: Pattern_State=3;
  3668  00A1  00E9               	movwf	_Pattern_State^(0+128)
  3669                           
  3670                           ;pattern_fuction.c: 796: Key_Option_Lock=1;
  3671  00A2  1771               	bsf	_Key_Option_Lock/(0+8),_Key_Option_Lock& (0+7)
  3672                           
  3673                           ;pattern_fuction.c: 797: break;
  3674  00A3  0008               	return
  3675  00A4                     l15559:	
  3676                           
  3677                           ;pattern_fuction.c: 802: if((Regular|Bold|Iced|Tea)&&(_80_z|_120_z|_210_z|_420_z))
  3678  00A4  1283               	bcf	3,5	;RP0=0, select bank0
  3679  00A5  0852               	movf	_Regular,w
  3680  00A6  043B               	iorwf	_Bold,w
  3681  00A7  043F               	iorwf	_Iced,w
  3682  00A8  0456               	iorwf	_Tea,w
  3683  00A9  1903               	btfsc	3,2
  3684  00AA  28B3               	goto	l15565
  3685  00AB  085C               	movf	__80_z,w
  3686  00AC  0459               	iorwf	__120_z,w
  3687  00AD  045A               	iorwf	__210_z,w
  3688  00AE  045B               	iorwf	__420_z,w
  3689  00AF  1903               	btfsc	3,2
  3690  00B0  28B3               	goto	l15565
  3691                           
  3692                           ;pattern_fuction.c: 803: {
  3693                           ;pattern_fuction.c: 804: Key_Start_Lock=0;
  3694  00B1  1172               	bcf	_Key_Start_Lock/(0+8),_Key_Start_Lock& (0+7)
  3695                           
  3696                           ;pattern_fuction.c: 805: Key_Option_Lock=1;
  3697  00B2  1771               	bsf	_Key_Option_Lock/(0+8),_Key_Option_Lock& (0+7)
  3698  00B3                     l15565:	
  3699                           
  3700                           ;pattern_fuction.c: 806: }
  3701                           ;pattern_fuction.c: 808: if(Option) Pattern_State=4;
  3702  00B3  084F               	movf	_Option,w
  3703  00B4  1903               	btfsc	3,2
  3704  00B5  28B9               	goto	l5369
  3705  00B6  3004               	movlw	4
  3706  00B7  1683               	bsf	3,5	;RP0=1, select bank1
  3707  00B8  00E9               	movwf	_Pattern_State^(0+128)
  3708  00B9                     l5369:	
  3709                           
  3710                           ;pattern_fuction.c: 809: if(Start)
  3711  00B9  1283               	bcf	3,5	;RP0=0, select bank0
  3712  00BA  0855               	movf	_Start,w
  3713  00BB  1903               	btfsc	3,2
  3714  00BC  0008               	return
  3715  00BD                     l15569:	
  3716                           
  3717                           ;pattern_fuction.c: 810: {
  3718                           ;pattern_fuction.c: 811: Pattern_State=10;
  3719  00BD  300A               	movlw	10
  3720  00BE  1683               	bsf	3,5	;RP0=1, select bank1
  3721  00BF  00E9               	movwf	_Pattern_State^(0+128)
  3722  00C0  0008               	return
  3723  00C1                     l15571:	
  3724                           
  3725                           ;pattern_fuction.c: 816: Pattern_LED_Crt=2;
  3726  00C1  3002               	movlw	2
  3727  00C2  00BB               	movwf	_Pattern_LED_Crt^(0+128)
  3728  00C3  01BC               	clrf	(_Pattern_LED_Crt+1)^(0+128)
  3729                           
  3730                           ;pattern_fuction.c: 818: Key_Regular_Lock=1;
  3731  00C4  14F2               	bsf	_Key_Regular_Lock/(0+8),_Key_Regular_Lock& (0+7)
  3732                           
  3733                           ;pattern_fuction.c: 819: Key_Bold_Lock=1;
  3734  00C5  1671               	bsf	_Key_Bold_Lock/(0+8),_Key_Bold_Lock& (0+7)
  3735                           
  3736                           ;pattern_fuction.c: 820: Key_Iced_Lock=1;
  3737  00C6  16F1               	bsf	_Key_Iced_Lock/(0+8),_Key_Iced_Lock& (0+7)
  3738                           
  3739                           ;pattern_fuction.c: 821: Key_Tea_Lock=1;
  3740  00C7  15F2               	bsf	_Key_Tea_Lock/(0+8),_Key_Tea_Lock& (0+7)
  3741                           
  3742                           ;pattern_fuction.c: 822: Key_Add_Lock=0;
  3743  00C8  11F1               	bcf	_Key_Add_Lock/(0+8),_Key_Add_Lock& (0+7)
  3744                           
  3745                           ;pattern_fuction.c: 823: Key_Reduce_Lock=0;
  3746  00C9  1072               	bcf	_Key_Reduce_Lock/(0+8),_Key_Reduce_Lock& (0+7)
  3747                           
  3748                           ;pattern_fuction.c: 824: Key_80_Z_Lock=1;
  3749  00CA  14F1               	bsf	_Key_80_Z_Lock/(0+8),_Key_80_Z_Lock& (0+7)
  3750                           
  3751                           ;pattern_fuction.c: 825: Key_120_Z_Lock=1;
  3752  00CB  1770               	bsf	_Key_120_Z_Lock/(0+8),_Key_120_Z_Lock& (0+7)
  3753                           
  3754                           ;pattern_fuction.c: 826: Key_210_Z_Lock=1;
  3755  00CC  17F0               	bsf	_Key_210_Z_Lock/(0+8),_Key_210_Z_Lock& (0+7)
  3756                           
  3757                           ;pattern_fuction.c: 827: Key_420_Z_Lock=1;
  3758  00CD  1471               	bsf	_Key_420_Z_Lock/(0+8),_Key_420_Z_Lock& (0+7)
  3759                           
  3760                           ;pattern_fuction.c: 828: Key_Option_Lock=0;
  3761  00CE  1371               	bcf	_Key_Option_Lock/(0+8),_Key_Option_Lock& (0+7)
  3762                           
  3763                           ;pattern_fuction.c: 829: Key_Start_Lock=0;
  3764  00CF  1172               	bcf	_Key_Start_Lock/(0+8),_Key_Start_Lock& (0+7)
  3765                           
  3766                           ;pattern_fuction.c: 830: Start=0;
  3767  00D0  1283               	bcf	3,5	;RP0=0, select bank0
  3768  00D1  3005               	movlw	5
  3769  00D2  01D5               	clrf	_Start
  3770                           
  3771                           ;pattern_fuction.c: 831: Pattern_State=5;
  3772  00D3  1683               	bsf	3,5	;RP0=1, select bank1
  3773  00D4  00E9               	movwf	_Pattern_State^(0+128)
  3774                           
  3775                           ;pattern_fuction.c: 832: break;
  3776  00D5  0008               	return
  3777  00D6                     l15601:	
  3778                           
  3779                           ;pattern_fuction.c: 835: if(Start) Option=0;
  3780  00D6  1283               	bcf	3,5	;RP0=0, select bank0
  3781  00D7  0855               	movf	_Start,w
  3782  00D8  1D03               	skipz
  3783  00D9  01CF               	clrf	_Option
  3784                           
  3785                           ;pattern_fuction.c: 836: if(Option==0) Pattern_State=6;
  3786  00DA  08CF               	movf	_Option,f
  3787  00DB  1D03               	skipz
  3788  00DC  28E0               	goto	l5374
  3789  00DD  3006               	movlw	6
  3790  00DE  1683               	bsf	3,5	;RP0=1, select bank1
  3791  00DF  00E9               	movwf	_Pattern_State^(0+128)
  3792  00E0                     l5374:	
  3793                           
  3794                           ;pattern_fuction.c: 838: LCD_COL_Flash_Times=255;
  3795  00E0  30FF               	movlw	255
  3796  00E1  1683               	bsf	3,5	;RP0=1, select bank1
  3797  00E2  00D6               	movwf	_LCD_COL_Flash_Times^(0+128)
  3798                           
  3799                           ;pattern_fuction.c: 839: LCD_AUTO_Flash_Times=255;
  3800  00E3  00D5               	movwf	_LCD_AUTO_Flash_Times^(0+128)
  3801                           
  3802                           ;pattern_fuction.c: 840: display[4]&=~(1<<2);
  3803  00E4  1283               	bcf	3,5	;RP0=0, select bank0
  3804  00E5  1124               	bcf	_display+4,2	;volatile
  3805                           
  3806                           ;pattern_fuction.c: 841: switch(Option)
  3807  00E6  2AD9               	goto	l15813
  3808  00E7                     l15611:	
  3809                           
  3810                           ;pattern_fuction.c: 844: LCD_MINUTE_Flash_Times=255;
  3811  00E7  30FF               	movlw	255
  3812  00E8  1683               	bsf	3,5	;RP0=1, select bank1
  3813  00E9  00D9               	movwf	_LCD_MINUTE_Flash_Times^(0+128)
  3814                           
  3815                           ;pattern_fuction.c: 845: LCD_TEMP_Flash_Times=255;
  3816  00EA  00DB               	movwf	_LCD_TEMP_Flash_Times^(0+128)
  3817                           
  3818                           ;pattern_fuction.c: 846: display[4]|=1<<3;
  3819  00EB  1283               	bcf	3,5	;RP0=0, select bank0
  3820  00EC  15A4               	bsf	_display+4,3	;volatile
  3821                           
  3822                           ;pattern_fuction.c: 848: display[4]&=~(1<<0);
  3823  00ED  1024               	bcf	_display+4,0	;volatile
  3824                           
  3825                           ;pattern_fuction.c: 850: LCD_HOUR_Flash_Times=0;
  3826  00EE  1683               	bsf	3,5	;RP0=1, select bank1
  3827  00EF  300A               	movlw	10
  3828  00F0  01D8               	clrf	_LCD_HOUR_Flash_Times^(0+128)
  3829                           
  3830                           ;pattern_fuction.c: 851: Display_Temp[0]=LCDCode[Hour/10];
  3831  00F1  1283               	bcf	3,5	;RP0=0, select bank0
  3832  00F2  00DD               	movwf	?___awdiv
  3833  00F3  01DE               	clrf	?___awdiv+1
  3834  00F4  083E               	movf	_Hour,w
  3835  00F5  00DF               	movwf	?___awdiv+2
  3836  00F6  01E0               	clrf	?___awdiv+3
  3837  00F7  1BDF               	btfsc	?___awdiv+2,7
  3838  00F8  03E0               	decf	?___awdiv+3,f
  3839  00F9  25EF  120A  118A   	fcall	___awdiv
  3840  00FC  085D               	movf	?___awdiv,w
  3841  00FD  26A8               	fcall	PL2	;call to abstracted procedure
  3842  00FE  160A  118A  2000   	fcall	stringtab
      +       120A  118A         
  3843                           
  3844                           ;pattern_fuction.c: 852: Display_Temp[1]=LCDCode[Hour%10];
  3845  0103  2720  120A  118A   	fcall	PL30	;call to abstracted procedure
  3846  0106  083E               	movf	_Hour,w
  3847  0107  00DF               	movwf	?___awmod+2
  3848  0108  01E0               	clrf	?___awmod+3
  3849  0109  1BDF               	btfsc	?___awmod+2,7
  3850  010A  03E0               	decf	?___awmod+3,f
  3851  010B  2634  120A  118A   	fcall	___awmod
  3852  010E  085D               	movf	?___awmod,w
  3853  010F  26A8               	fcall	PL2	;call to abstracted procedure
  3854  0110  160A  118A  2000   	fcall	stringtab
      +       120A  118A         
  3855  0115  1683               	bsf	3,5	;RP0=1, select bank1
  3856  0116  00A1               	movwf	(_Display_Temp^(0+128)+1)	;volatile
  3857                           
  3858                           ;pattern_fuction.c: 854: if(Key_Add_3S_ON|Key_Reduce_3S_ON)
  3859  0117  1971               	btfsc	_Key_Add_3S_ON/(0+8),_Key_Add_3S_ON& (0+7)
  3860  0118  291B               	goto	l15627
  3861  0119  1FF1               	btfss	_Key_Reduce_3S_ON/(0+8),_Key_Reduce_3S_ON& (0+7)
  3862  011A  2957               	goto	l15655
  3863  011B                     l15627:	
  3864                           
  3865                           ;pattern_fuction.c: 855: {
  3866                           ;pattern_fuction.c: 856: LCD_HOUR_Flash_Times=255;
  3867  011B  30FF               	movlw	255
  3868  011C  00D8               	movwf	_LCD_HOUR_Flash_Times^(0+128)
  3869                           
  3870                           ;pattern_fuction.c: 858: if(Timer_3S_Times++>=50)
  3871  011D  2704  120A  118A   	fcall	PL18	;call to abstracted procedure
  3872  0120  1903               	skipnz
  3873  0121  024D               	subwf	_Timer_3S_Times^(0+128),w
  3874  0122  1C03               	skipc
  3875  0123  296F               	goto	l15675
  3876                           
  3877                           ;pattern_fuction.c: 859: {
  3878                           ;pattern_fuction.c: 860: if(Key_Add_3S_ON)
  3879  0124  1D71               	btfss	_Key_Add_3S_ON/(0+8),_Key_Add_3S_ON& (0+7)
  3880  0125  2929               	goto	l15635
  3881                           
  3882                           ;pattern_fuction.c: 861: {
  3883                           ;pattern_fuction.c: 862: Hour+=1;;
  3884  0126  1283               	bcf	3,5	;RP0=0, select bank0
  3885  0127  0ABE               	incf	_Hour,f
  3886                           
  3887                           ;pattern_fuction.c: 863: }
  3888  0128  292B               	goto	l15637
  3889  0129                     l15635:	
  3890                           
  3891                           ;pattern_fuction.c: 864: else
  3892                           ;pattern_fuction.c: 865: Hour-=1;;
  3893  0129  1283               	bcf	3,5	;RP0=0, select bank0
  3894  012A  03BE               	decf	_Hour,f
  3895  012B                     l15637:	
  3896                           
  3897                           ;pattern_fuction.c: 867: if(Hour>23) Hour=0;
  3898  012B  083E               	movf	_Hour,w
  3899  012C  3A80               	xorlw	128
  3900  012D  3E68               	addlw	-152
  3901  012E  1803               	btfsc	3,0
  3902  012F  01BE               	clrf	_Hour
  3903                           
  3904                           ;pattern_fuction.c: 868: if(Hour<0) Hour=23;
  3905  0130  1FBE               	btfss	_Hour,7
  3906  0131  2934               	goto	l15645
  3907  0132  3017               	movlw	23
  3908  0133  00BE               	movwf	_Hour
  3909  0134                     l15645:	
  3910                           
  3911                           ;pattern_fuction.c: 870: Timer_3S_Times=0;
  3912                           
  3913                           ;pattern_fuction.c: 871: Key_Add_3S_ON=0;
  3914                           
  3915                           ;pattern_fuction.c: 872: Key_Reduce_3S_ON=0;
  3916                           
  3917                           ;pattern_fuction.c: 873: display[0]=LCDCode[Hour/10];
  3918  0134  26CE  120A  118A   	fcall	PL8	;call to abstracted procedure
  3919  0137  083E               	movf	_Hour,w
  3920  0138  00DF               	movwf	?___awdiv+2
  3921  0139  01E0               	clrf	?___awdiv+3
  3922  013A  1BDF               	btfsc	?___awdiv+2,7
  3923  013B  03E0               	decf	?___awdiv+3,f
  3924  013C  25EF  120A  118A   	fcall	___awdiv
  3925  013F  085D               	movf	?___awdiv,w
  3926  0140  26A8               	fcall	PL2	;call to abstracted procedure
  3927  0141  160A  118A  2000   	fcall	stringtab
      +       120A  118A         
  3928                           
  3929                           ;pattern_fuction.c: 874: display[1]=LCDCode[Hour%10];
  3930  0146  26D8  120A  118A   	fcall	PL9	;call to abstracted procedure
  3931  0149  1BDF               	btfsc	?___awmod+2,7
  3932  014A  03E0               	decf	?___awmod+3,f
  3933  014B  2634  120A  118A   	fcall	___awmod
  3934  014E  085D               	movf	?___awmod,w
  3935  014F  26A8               	fcall	PL2	;call to abstracted procedure
  3936  0150  160A  118A  2000   	fcall	stringtab
      +       120A  118A         
  3937  0155  00A1               	movwf	_display+1	;volatile
  3938  0156  296F               	goto	l15675
  3939  0157                     l15655:	
  3940                           
  3941                           ;pattern_fuction.c: 877: else
  3942                           ;pattern_fuction.c: 878: if(Add|Reduce)
  3943  0157  1283               	bcf	3,5	;RP0=0, select bank0
  3944  0158  0838               	movf	_Add,w
  3945  0159  0451               	iorwf	_Reduce,w
  3946  015A  1903               	btfsc	3,2
  3947  015B  296F               	goto	l15675
  3948                           
  3949                           ;pattern_fuction.c: 879: {
  3950                           ;pattern_fuction.c: 880: if(Add)
  3951  015C  0838               	movf	_Add,w
  3952  015D  1903               	btfsc	3,2
  3953  015E  2961               	goto	l15661
  3954                           
  3955                           ;pattern_fuction.c: 881: {
  3956                           ;pattern_fuction.c: 882: Hour++;
  3957  015F  0ABE               	incf	_Hour,f
  3958                           
  3959                           ;pattern_fuction.c: 883: }
  3960  0160  2965               	goto	l15665
  3961  0161                     l15661:	
  3962                           
  3963                           ;pattern_fuction.c: 884: else if(Reduce)
  3964  0161  0851               	movf	_Reduce,w
  3965  0162  1903               	btfsc	3,2
  3966  0163  2965               	goto	l15665
  3967                           
  3968                           ;pattern_fuction.c: 885: {
  3969                           ;pattern_fuction.c: 886: Hour--;
  3970  0164  03BE               	decf	_Hour,f
  3971  0165                     l15665:	
  3972                           
  3973                           ;pattern_fuction.c: 887: }
  3974                           ;pattern_fuction.c: 888: if(Hour>23) Hour=0;
  3975  0165  083E               	movf	_Hour,w
  3976  0166  3A80               	xorlw	128
  3977  0167  3E68               	addlw	-152
  3978  0168  1803               	btfsc	3,0
  3979  0169  01BE               	clrf	_Hour
  3980                           
  3981                           ;pattern_fuction.c: 889: if(Hour<0) Hour=23;
  3982  016A  1FBE               	btfss	_Hour,7
  3983  016B  296E               	goto	l15673
  3984  016C  3017               	movlw	23
  3985  016D  00BE               	movwf	_Hour
  3986  016E                     l15673:	
  3987                           
  3988                           ;pattern_fuction.c: 890: bool_TimeChange=1;
  3989  016E  1673               	bsf	_bool_TimeChange/(0+8),_bool_TimeChange& (0+7)
  3990  016F                     l15675:	
  3991                           
  3992                           ;pattern_fuction.c: 891: }
  3993                           ;pattern_fuction.c: 893: display[2]=LCDCode[Minute/10];
  3994  016F  300A               	movlw	10
  3995  0170  270A  120A  118A   	fcall	PL19	;call to abstracted procedure
  3996  0173  1BDF               	btfsc	?___awdiv+2,7
  3997  0174  03E0               	decf	?___awdiv+3,f
  3998  0175  25EF  120A  118A   	fcall	___awdiv
  3999  0178  085D               	movf	?___awdiv,w
  4000  0179  26A8               	fcall	PL2	;call to abstracted procedure
  4001  017A  160A  118A  2000   	fcall	stringtab
      +       120A  118A         
  4002                           
  4003                           ;pattern_fuction.c: 894: display[3]=LCDCode[Minute%10];
  4004  017F  26E0  120A  118A   	fcall	PL10	;call to abstracted procedure
  4005  0182  1BDF               	btfsc	?___awmod+2,7
  4006  0183  03E0               	decf	?___awmod+3,f
  4007  0184  2634  120A  118A   	fcall	___awmod
  4008  0187  085D               	movf	?___awmod,w
  4009  0188  26A8               	fcall	PL2	;call to abstracted procedure
  4010  0189  160A  118A  2000   	fcall	stringtab
  4011  018C  00A3               	movwf	_display+3	;volatile
  4012                           
  4013                           ;pattern_fuction.c: 896: LCD_TIMER_Flash_Times=0;
  4014  018D  1683               	bsf	3,5	;RP0=1, select bank1
  4015  018E  01DC               	clrf	_LCD_TIMER_Flash_Times^(0+128)
  4016                           
  4017                           ;pattern_fuction.c: 897: break;
  4018  018F  0008               	return
  4019  0190                     l15681:	
  4020                           
  4021                           ;pattern_fuction.c: 899: LCD_HOUR_Flash_Times=255;
  4022  0190  30FF               	movlw	255
  4023  0191  1683               	bsf	3,5	;RP0=1, select bank1
  4024  0192  00D8               	movwf	_LCD_HOUR_Flash_Times^(0+128)
  4025                           
  4026                           ;pattern_fuction.c: 901: Display_Temp[2]=LCDCode[Minute/10];
  4027  0193  300A               	movlw	10
  4028  0194  270A  120A  118A   	fcall	PL19	;call to abstracted procedure
  4029  0197  1BDF               	btfsc	?___awdiv+2,7
  4030  0198  03E0               	decf	?___awdiv+3,f
  4031  0199  25EF  120A  118A   	fcall	___awdiv
  4032  019C  085D               	movf	?___awdiv,w
  4033  019D  26A8               	fcall	PL2	;call to abstracted procedure
  4034  019E  160A  118A  2000   	fcall	stringtab
      +       120A  118A         
  4035  01A3  1683               	bsf	3,5	;RP0=1, select bank1
  4036  01A4  00A2               	movwf	(_Display_Temp^(0+128)+2)	;volatile
  4037                           
  4038                           ;pattern_fuction.c: 902: Display_Temp[3]=LCDCode[Minute%10];
  4039  01A5  300A               	movlw	10
  4040  01A6  1283               	bcf	3,5	;RP0=0, select bank0
  4041  01A7  00DD               	movwf	?___awmod
  4042  01A8  01DE               	clrf	?___awmod+1
  4043  01A9  084E               	movf	_Minute,w
  4044  01AA  00DF               	movwf	?___awmod+2
  4045  01AB  01E0               	clrf	?___awmod+3
  4046  01AC  1BDF               	btfsc	?___awmod+2,7
  4047  01AD  03E0               	decf	?___awmod+3,f
  4048  01AE  2634  120A  118A   	fcall	___awmod
  4049  01B1  085D               	movf	?___awmod,w
  4050  01B2  26A8               	fcall	PL2	;call to abstracted procedure
  4051  01B3  160A  118A  2000   	fcall	stringtab
      +       120A  118A         
  4052  01B8  1683               	bsf	3,5	;RP0=1, select bank1
  4053  01B9  00A3               	movwf	(_Display_Temp^(0+128)+3)	;volatile
  4054                           
  4055                           ;pattern_fuction.c: 903: LCD_MINUTE_Flash_Times=0;
  4056  01BA  01D9               	clrf	_LCD_MINUTE_Flash_Times^(0+128)
  4057                           
  4058                           ;pattern_fuction.c: 906: if(Key_Add_3S_ON|Key_Reduce_3S_ON)
  4059  01BB  1971               	btfsc	_Key_Add_3S_ON/(0+8),_Key_Add_3S_ON& (0+7)
  4060  01BC  29BF               	goto	l15693
  4061  01BD  1FF1               	btfss	_Key_Reduce_3S_ON/(0+8),_Key_Reduce_3S_ON& (0+7)
  4062  01BE  29FB               	goto	l15721
  4063  01BF                     l15693:	
  4064                           
  4065                           ;pattern_fuction.c: 907: {
  4066                           ;pattern_fuction.c: 908: LCD_MINUTE_Flash_Times=255;
  4067  01BF  30FF               	movlw	255
  4068  01C0  00D9               	movwf	_LCD_MINUTE_Flash_Times^(0+128)
  4069                           
  4070                           ;pattern_fuction.c: 909: if(Timer_3S_Times++>=50)
  4071  01C1  2704  120A  118A   	fcall	PL18	;call to abstracted procedure
  4072  01C4  1903               	skipnz
  4073  01C5  024D               	subwf	_Timer_3S_Times^(0+128),w
  4074  01C6  1C03               	skipc
  4075  01C7  2A0A               	goto	l15733
  4076                           
  4077                           ;pattern_fuction.c: 910: {
  4078                           ;pattern_fuction.c: 911: if(Key_Add_3S_ON)
  4079  01C8  1D71               	btfss	_Key_Add_3S_ON/(0+8),_Key_Add_3S_ON& (0+7)
  4080  01C9  29CD               	goto	l15701
  4081                           
  4082                           ;pattern_fuction.c: 912: {
  4083                           ;pattern_fuction.c: 913: Minute+=1;;
  4084  01CA  1283               	bcf	3,5	;RP0=0, select bank0
  4085  01CB  0ACE               	incf	_Minute,f
  4086                           
  4087                           ;pattern_fuction.c: 914: }
  4088  01CC  29CF               	goto	l15703
  4089  01CD                     l15701:	
  4090                           
  4091                           ;pattern_fuction.c: 915: else
  4092                           ;pattern_fuction.c: 916: Minute-=1;;
  4093  01CD  1283               	bcf	3,5	;RP0=0, select bank0
  4094  01CE  03CE               	decf	_Minute,f
  4095  01CF                     l15703:	
  4096                           
  4097                           ;pattern_fuction.c: 918: if(Minute>59) Minute=0;
  4098  01CF  084E               	movf	_Minute,w
  4099  01D0  3A80               	xorlw	128
  4100  01D1  3E44               	addlw	-188
  4101  01D2  1803               	btfsc	3,0
  4102  01D3  01CE               	clrf	_Minute
  4103                           
  4104                           ;pattern_fuction.c: 919: if(Minute<0) Minute=59;
  4105  01D4  1FCE               	btfss	_Minute,7
  4106  01D5  29D8               	goto	l15711
  4107  01D6  303B               	movlw	59
  4108  01D7  00CE               	movwf	_Minute
  4109  01D8                     l15711:	
  4110                           
  4111                           ;pattern_fuction.c: 921: Timer_3S_Times=0;
  4112                           
  4113                           ;pattern_fuction.c: 922: Key_Add_3S_ON=0;
  4114                           
  4115                           ;pattern_fuction.c: 923: Key_Reduce_3S_ON=0;
  4116                           
  4117                           ;pattern_fuction.c: 924: display[2]=LCDCode[Minute/10];
  4118  01D8  26CE  120A  118A   	fcall	PL8	;call to abstracted procedure
  4119  01DB  084E               	movf	_Minute,w
  4120  01DC  00DF               	movwf	?___awdiv+2
  4121  01DD  01E0               	clrf	?___awdiv+3
  4122  01DE  1BDF               	btfsc	?___awdiv+2,7
  4123  01DF  03E0               	decf	?___awdiv+3,f
  4124  01E0  25EF  120A  118A   	fcall	___awdiv
  4125  01E3  085D               	movf	?___awdiv,w
  4126  01E4  26A8               	fcall	PL2	;call to abstracted procedure
  4127  01E5  160A  118A  2000   	fcall	stringtab
      +       120A  118A         
  4128                           
  4129                           ;pattern_fuction.c: 925: display[3]=LCDCode[Minute%10];
  4130  01EA  26E0  120A  118A   	fcall	PL10	;call to abstracted procedure
  4131  01ED  1BDF               	btfsc	?___awmod+2,7
  4132  01EE  03E0               	decf	?___awmod+3,f
  4133  01EF  2634  120A  118A   	fcall	___awmod
  4134  01F2  085D               	movf	?___awmod,w
  4135  01F3  26A8               	fcall	PL2	;call to abstracted procedure
  4136  01F4  160A  118A  2000   	fcall	stringtab
      +       120A  118A         
  4137  01F9  00A3               	movwf	_display+3	;volatile
  4138  01FA  2A0A               	goto	l15733
  4139  01FB                     l15721:	
  4140                           
  4141                           ;pattern_fuction.c: 928: else
  4142                           ;pattern_fuction.c: 929: if(Add|Reduce)
  4143  01FB  1283               	bcf	3,5	;RP0=0, select bank0
  4144  01FC  0838               	movf	_Add,w
  4145  01FD  0451               	iorwf	_Reduce,w
  4146  01FE  1903               	btfsc	3,2
  4147  01FF  2A0A               	goto	l15733
  4148                           
  4149                           ;pattern_fuction.c: 930: {
  4150                           ;pattern_fuction.c: 931: if(Add) Minute++;
  4151  0200  0838               	movf	_Add,w
  4152  0201  1903               	btfsc	3,2
  4153  0202  2A05               	goto	l15727
  4154  0203  0ACE               	incf	_Minute,f
  4155  0204  2A09               	goto	l15731
  4156  0205                     l15727:	
  4157                           
  4158                           ;pattern_fuction.c: 932: else
  4159                           ;pattern_fuction.c: 933: if(Reduce) Minute--;
  4160  0205  0851               	movf	_Reduce,w
  4161  0206  1903               	btfsc	3,2
  4162  0207  2A09               	goto	l15731
  4163  0208  03CE               	decf	_Minute,f
  4164  0209                     l15731:	
  4165                           
  4166                           ;pattern_fuction.c: 934: bool_TimeChange=1;
  4167  0209  1673               	bsf	_bool_TimeChange/(0+8),_bool_TimeChange& (0+7)
  4168  020A                     l15733:	
  4169                           
  4170                           ;pattern_fuction.c: 935: }
  4171                           ;pattern_fuction.c: 937: if(Minute>59) Minute=0;
  4172  020A  1283               	bcf	3,5	;RP0=0, select bank0
  4173  020B  084E               	movf	_Minute,w
  4174  020C  3A80               	xorlw	128
  4175  020D  3E44               	addlw	-188
  4176  020E  1803               	btfsc	3,0
  4177  020F  01CE               	clrf	_Minute
  4178                           
  4179                           ;pattern_fuction.c: 938: if(Minute<0) Minute=59;
  4180  0210  1FCE               	btfss	_Minute,7
  4181  0211  2A14               	goto	l15741
  4182  0212  303B               	movlw	59
  4183  0213  00CE               	movwf	_Minute
  4184  0214                     l15741:	
  4185                           
  4186                           ;pattern_fuction.c: 940: display[0]=LCDCode[Hour/10];
  4187  0214  2711  120A  118A   	fcall	PL20	;call to abstracted procedure
  4188  0217  1BDF               	btfsc	?___awdiv+2,7
  4189  0218  03E0               	decf	?___awdiv+3,f
  4190  0219  25EF  120A  118A   	fcall	___awdiv
  4191  021C  085D               	movf	?___awdiv,w
  4192  021D  26A8               	fcall	PL2	;call to abstracted procedure
  4193  021E  160A  118A  2000   	fcall	stringtab
      +       120A  118A         
  4194                           
  4195                           ;pattern_fuction.c: 941: display[1]=LCDCode[Hour%10];
  4196  0223  26D8  120A  118A   	fcall	PL9	;call to abstracted procedure
  4197  0226  1BDF               	btfsc	?___awmod+2,7
  4198  0227  03E0               	decf	?___awmod+3,f
  4199  0228  2634  120A  118A   	fcall	___awmod
  4200  022B  085D               	movf	?___awmod,w
  4201  022C  26A8               	fcall	PL2	;call to abstracted procedure
  4202  022D  160A  118A  2000   	fcall	stringtab
  4203  0230  00A1               	movwf	_display+1	;volatile
  4204                           
  4205                           ;pattern_fuction.c: 943: break;
  4206  0231  0008               	return
  4207  0232                     l15745:	
  4208                           
  4209                           ;pattern_fuction.c: 945: LCD_MINUTE_Flash_Times=255;
  4210  0232  30FF               	movlw	255
  4211  0233  1683               	bsf	3,5	;RP0=1, select bank1
  4212  0234  00D9               	movwf	_LCD_MINUTE_Flash_Times^(0+128)
  4213                           
  4214                           ;pattern_fuction.c: 946: LCD_TIMER_Flash_Times=255;
  4215  0235  00DC               	movwf	_LCD_TIMER_Flash_Times^(0+128)
  4216                           
  4217                           ;pattern_fuction.c: 947: display[2]=LCDCode[12];
  4218  0236  30C6               	movlw	low ((_LCDCode| (0+32768)+12))
  4219  0237  0084               	movwf	4
  4220  0238  3091               	movlw	high ((_LCDCode| (0+32768)+12))
  4221  0239  1283               	bcf	3,5	;RP0=0, select bank0
  4222  023A  00FF               	movwf	127
  4223  023B  160A  118A  2000   	fcall	stringtab
      +       120A  118A         
  4224  0240  00A2               	movwf	_display+2	;volatile
  4225                           
  4226                           ;pattern_fuction.c: 948: display[3]=LCDCode[10];
  4227  0241  30C4               	movlw	low ((_LCDCode| (0+32768)+10))
  4228  0242  0084               	movwf	4
  4229  0243  3091               	movlw	high ((_LCDCode| (0+32768)+10))
  4230  0244  00FF               	movwf	127
  4231  0245  160A  118A  2000   	fcall	stringtab
      +       120A  118A         
  4232  024A  00A3               	movwf	_display+3	;volatile
  4233                           
  4234                           ;pattern_fuction.c: 950: display[4]&=~(1<<3);
  4235  024B  11A4               	bcf	_display+4,3	;volatile
  4236                           
  4237                           ;pattern_fuction.c: 951: display[4]&=~(1<<1);
  4238  024C  10A4               	bcf	_display+4,1	;volatile
  4239                           
  4240                           ;pattern_fuction.c: 953: Display_Temp[0]=LCDCode[Water_Temp/10];
  4241  024D  300A               	movlw	10
  4242  024E  00DD               	movwf	?___awdiv
  4243  024F  01DE               	clrf	?___awdiv+1
  4244  0250  086F               	movf	_Water_Temp,w
  4245  0251  00DF               	movwf	?___awdiv+2
  4246  0252  01E0               	clrf	?___awdiv+3
  4247  0253  1BDF               	btfsc	?___awdiv+2,7
  4248  0254  03E0               	decf	?___awdiv+3,f
  4249  0255  25EF  120A  118A   	fcall	___awdiv
  4250  0258  085D               	movf	?___awdiv,w
  4251  0259  26A8               	fcall	PL2	;call to abstracted procedure
  4252  025A  160A  118A  2000   	fcall	stringtab
      +       120A  118A         
  4253                           
  4254                           ;pattern_fuction.c: 954: Display_Temp[1]=LCDCode[Water_Temp%10];
  4255  025F  2720  120A  118A   	fcall	PL30	;call to abstracted procedure
  4256  0262  086F               	movf	_Water_Temp,w
  4257  0263  00DF               	movwf	?___awmod+2
  4258  0264  01E0               	clrf	?___awmod+3
  4259  0265  1BDF               	btfsc	?___awmod+2,7
  4260  0266  03E0               	decf	?___awmod+3,f
  4261  0267  2634  120A  118A   	fcall	___awmod
  4262  026A  085D               	movf	?___awmod,w
  4263  026B  26A8               	fcall	PL2	;call to abstracted procedure
  4264  026C  160A  118A  2000   	fcall	stringtab
      +       120A  118A         
  4265  0271  1683               	bsf	3,5	;RP0=1, select bank1
  4266  0272  00A1               	movwf	(_Display_Temp^(0+128)+1)	;volatile
  4267                           
  4268                           ;pattern_fuction.c: 955: LCD_HOUR_Flash_Times=0;
  4269  0273  01D8               	clrf	_LCD_HOUR_Flash_Times^(0+128)
  4270                           
  4271                           ;pattern_fuction.c: 956: if(Key_Add_3S_ON|Key_Reduce_3S_ON)
  4272  0274  1971               	btfsc	_Key_Add_3S_ON/(0+8),_Key_Add_3S_ON& (0+7)
  4273  0275  2A78               	goto	l15765
  4274  0276  1FF1               	btfss	_Key_Reduce_3S_ON/(0+8),_Key_Reduce_3S_ON& (0+7)
  4275  0277  2AB9               	goto	l15791
  4276  0278                     l15765:	
  4277                           
  4278                           ;pattern_fuction.c: 957: {
  4279                           ;pattern_fuction.c: 958: LCD_HOUR_Flash_Times=255;
  4280  0278  30FF               	movlw	255
  4281  0279  00D8               	movwf	_LCD_HOUR_Flash_Times^(0+128)
  4282                           
  4283                           ;pattern_fuction.c: 959: if(Timer_3S_Times++>=50)
  4284  027A  2704  120A  118A   	fcall	PL18	;call to abstracted procedure
  4285  027D  1903               	skipnz
  4286  027E  024D               	subwf	_Timer_3S_Times^(0+128),w
  4287  027F  1C03               	skipc
  4288  0280  2AD6               	goto	l15809
  4289                           
  4290                           ;pattern_fuction.c: 960: {
  4291                           ;pattern_fuction.c: 961: if(Key_Add_3S_ON)
  4292  0281  1D71               	btfss	_Key_Add_3S_ON/(0+8),_Key_Add_3S_ON& (0+7)
  4293  0282  2A86               	goto	l15773
  4294                           
  4295                           ;pattern_fuction.c: 962: {
  4296                           ;pattern_fuction.c: 963: Water_Temp+=1;;
  4297  0283  1283               	bcf	3,5	;RP0=0, select bank0
  4298  0284  0AEF               	incf	_Water_Temp,f
  4299                           
  4300                           ;pattern_fuction.c: 964: }
  4301  0285  2A88               	goto	l15775
  4302  0286                     l15773:	
  4303                           
  4304                           ;pattern_fuction.c: 965: else
  4305                           ;pattern_fuction.c: 966: Water_Temp-=1;;
  4306  0286  1283               	bcf	3,5	;RP0=0, select bank0
  4307  0287  03EF               	decf	_Water_Temp,f
  4308  0288                     l15775:	
  4309                           
  4310                           ;pattern_fuction.c: 968: if(Water_Temp>95) Water_Temp=40;
  4311  0288  086F               	movf	_Water_Temp,w
  4312  0289  3A80               	xorlw	128
  4313  028A  3E20               	addlw	-224
  4314  028B  1C03               	skipc
  4315  028C  2A8F               	goto	l5416
  4316  028D  3028               	movlw	40
  4317  028E  00EF               	movwf	_Water_Temp
  4318  028F                     l5416:	
  4319                           
  4320                           ;pattern_fuction.c: 969: if(Water_Temp<40) Water_Temp=95;
  4321  028F  086F               	movf	_Water_Temp,w
  4322  0290  3A80               	xorlw	128
  4323  0291  3E58               	addlw	-168
  4324  0292  1803               	skipnc
  4325  0293  2A96               	goto	l15781
  4326  0294  305F               	movlw	95
  4327  0295  00EF               	movwf	_Water_Temp
  4328  0296                     l15781:	
  4329                           
  4330                           ;pattern_fuction.c: 970: Timer_3S_Times=0;
  4331                           
  4332                           ;pattern_fuction.c: 971: Key_Add_3S_ON=0;
  4333                           
  4334                           ;pattern_fuction.c: 972: Key_Reduce_3S_ON=0;
  4335                           
  4336                           ;pattern_fuction.c: 973: display[0]=LCDCode[Water_Temp/10];
  4337  0296  26CE  120A  118A   	fcall	PL8	;call to abstracted procedure
  4338  0299  086F               	movf	_Water_Temp,w
  4339  029A  00DF               	movwf	?___awdiv+2
  4340  029B  01E0               	clrf	?___awdiv+3
  4341  029C  1BDF               	btfsc	?___awdiv+2,7
  4342  029D  03E0               	decf	?___awdiv+3,f
  4343  029E  25EF  120A  118A   	fcall	___awdiv
  4344  02A1  085D               	movf	?___awdiv,w
  4345  02A2  26A8               	fcall	PL2	;call to abstracted procedure
  4346  02A3  160A  118A  2000   	fcall	stringtab
      +       120A  118A         
  4347                           
  4348                           ;pattern_fuction.c: 974: display[1]=LCDCode[Water_Temp%10];
  4349  02A8  26FC  120A  118A   	fcall	PL16	;call to abstracted procedure
  4350  02AB  1BDF               	btfsc	?___awmod+2,7
  4351  02AC  03E0               	decf	?___awmod+3,f
  4352  02AD  2634  120A  118A   	fcall	___awmod
  4353  02B0  085D               	movf	?___awmod,w
  4354  02B1  26A8               	fcall	PL2	;call to abstracted procedure
  4355  02B2  160A  118A  2000   	fcall	stringtab
      +       120A  118A         
  4356  02B7  00A1               	movwf	_display+1	;volatile
  4357  02B8  2AD6               	goto	l15809
  4358  02B9                     l15791:	
  4359                           
  4360                           ;pattern_fuction.c: 977: else
  4361                           ;pattern_fuction.c: 978: if(Add|Reduce)
  4362  02B9  1283               	bcf	3,5	;RP0=0, select bank0
  4363  02BA  0838               	movf	_Add,w
  4364  02BB  0451               	iorwf	_Reduce,w
  4365  02BC  1903               	btfsc	3,2
  4366  02BD  2AD6               	goto	l15809
  4367                           
  4368                           ;pattern_fuction.c: 979: {
  4369                           ;pattern_fuction.c: 980: if(Add) Water_Temp++;
  4370  02BE  0838               	movf	_Add,w
  4371  02BF  1903               	btfsc	3,2
  4372  02C0  2AC3               	goto	l15797
  4373  02C1  0AEF               	incf	_Water_Temp,f
  4374  02C2  2AC7               	goto	l15801
  4375  02C3                     l15797:	
  4376                           
  4377                           ;pattern_fuction.c: 981: else
  4378                           ;pattern_fuction.c: 982: if(Reduce) Water_Temp--;
  4379  02C3  0851               	movf	_Reduce,w
  4380  02C4  1903               	btfsc	3,2
  4381  02C5  2AC7               	goto	l15801
  4382  02C6  03EF               	decf	_Water_Temp,f
  4383  02C7                     l15801:	
  4384                           
  4385                           ;pattern_fuction.c: 984: if(Water_Temp>95) Water_Temp=40;
  4386  02C7  086F               	movf	_Water_Temp,w
  4387  02C8  3A80               	xorlw	128
  4388  02C9  3E20               	addlw	-224
  4389  02CA  1C03               	skipc
  4390  02CB  2ACE               	goto	l5423
  4391  02CC  3028               	movlw	40
  4392  02CD  00EF               	movwf	_Water_Temp
  4393  02CE                     l5423:	
  4394                           
  4395                           ;pattern_fuction.c: 985: if(Water_Temp<40) Water_Temp=95;
  4396  02CE  086F               	movf	_Water_Temp,w
  4397  02CF  3A80               	xorlw	128
  4398  02D0  3E58               	addlw	-168
  4399  02D1  1803               	skipnc
  4400  02D2  2AD5               	goto	l15807
  4401  02D3  305F               	movlw	95
  4402  02D4  00EF               	movwf	_Water_Temp
  4403  02D5                     l15807:	
  4404                           
  4405                           ;pattern_fuction.c: 986: bool_WaterTempChange=1;
  4406  02D5  16F3               	bsf	_bool_WaterTempChange/(0+8),_bool_WaterTempChange& (0+7)
  4407  02D6                     l15809:	
  4408                           
  4409                           ;pattern_fuction.c: 987: }
  4410                           ;pattern_fuction.c: 989: LCD_TEMP_Flash_Times=0;
  4411  02D6  1683               	bsf	3,5	;RP0=1, select bank1
  4412  02D7  01DB               	clrf	_LCD_TEMP_Flash_Times^(0+128)
  4413                           
  4414                           ;pattern_fuction.c: 991: break;
  4415  02D8  0008               	return
  4416  02D9                     l15813:	
  4417  02D9  084F               	movf	_Option,w
  4418                           
  4419                           ; Switch size 1, requested type "space"
  4420                           ; Number of cases is 3, Range of values is 1 to 3
  4421                           ; switch strategies available:
  4422                           ; Name         Instructions Cycles
  4423                           ; simple_byte           10     6 (average)
  4424                           ; direct_byte           20    11 (fixed)
  4425                           ; jumptable            263     9 (fixed)
  4426                           ;	Chosen strategy is simple_byte
  4427  02DA  3A01               	xorlw	1	; case 1
  4428  02DB  1903               	skipnz
  4429  02DC  28E7               	goto	l15611
  4430  02DD  3A03               	xorlw	3	; case 2
  4431  02DE  1903               	skipnz
  4432  02DF  2990               	goto	l15681
  4433  02E0  3A01               	xorlw	1	; case 3
  4434  02E1  1903               	skipnz
  4435  02E2  2A32               	goto	l15745
  4436  02E3  2DEE               	goto	l5514
  4437  02E4                     l5425:	
  4438                           ;pattern_fuction.c: 995: case 6:
  4439                           
  4440                           
  4441                           ;pattern_fuction.c: 998: if((bool_TimeChange==0)&&(bool_WaterTempChange==0))
  4442  02E4  1E73               	btfss	_bool_TimeChange/(0+8),_bool_TimeChange& (0+7)
  4443  02E5  1AF3               	btfsc	_bool_WaterTempChange/(0+8),_bool_WaterTempChange& (0+7)
  4444  02E6  2AE9               	goto	l5426
  4445                           
  4446                           ;pattern_fuction.c: 999: {
  4447                           ;pattern_fuction.c: 1000: bool_TimeChange=1;
  4448  02E7  1673               	bsf	_bool_TimeChange/(0+8),_bool_TimeChange& (0+7)
  4449                           
  4450                           ;pattern_fuction.c: 1001: bool_WaterTempChange=1;
  4451  02E8  16F3               	bsf	_bool_WaterTempChange/(0+8),_bool_WaterTempChange& (0+7)
  4452  02E9                     l5426:	
  4453                           
  4454                           ;pattern_fuction.c: 1003: }
  4455                           ;pattern_fuction.c: 1008: Key_Regular_Lock=0;
  4456                           
  4457                           ;pattern_fuction.c: 1009: Key_Bold_Lock=0;
  4458                           
  4459                           ;pattern_fuction.c: 1010: Key_Iced_Lock=0;
  4460                           
  4461                           ;pattern_fuction.c: 1011: Key_Tea_Lock=0;
  4462                           
  4463                           ;pattern_fuction.c: 1012: Key_Add_Lock=1;
  4464                           
  4465                           ;pattern_fuction.c: 1013: Key_Reduce_Lock=1;
  4466                           
  4467                           ;pattern_fuction.c: 1014: Key_80_Z_Lock=0;
  4468                           
  4469                           ;pattern_fuction.c: 1015: Key_120_Z_Lock=0;
  4470                           
  4471                           ;pattern_fuction.c: 1016: Key_210_Z_Lock=0;
  4472                           
  4473                           ;pattern_fuction.c: 1017: Key_420_Z_Lock=0;
  4474  02E9  26F1               	fcall	PL15	;call to abstracted procedure
  4475                           
  4476                           ;pattern_fuction.c: 1018: Key_Option_Lock=1;
  4477  02EA  1771               	bsf	_Key_Option_Lock/(0+8),_Key_Option_Lock& (0+7)
  4478                           
  4479                           ;pattern_fuction.c: 1019: Key_Start_Lock=1;
  4480  02EB  1572               	bsf	_Key_Start_Lock/(0+8),_Key_Start_Lock& (0+7)
  4481                           
  4482                           ;pattern_fuction.c: 1020: Start=0;
  4483  02EC  1283               	bcf	3,5	;RP0=0, select bank0
  4484  02ED  3007               	movlw	7
  4485  02EE  01D5               	clrf	_Start
  4486                           
  4487                           ;pattern_fuction.c: 1021: Pattern_State=7;
  4488  02EF  1683               	bsf	3,5	;RP0=1, select bank1
  4489  02F0  00E9               	movwf	_Pattern_State^(0+128)
  4490                           
  4491                           ;pattern_fuction.c: 1022: break;
  4492  02F1  0008               	return
  4493  02F2                     l15823:	
  4494                           
  4495                           ;pattern_fuction.c: 1024: LCD_AUTO_Flash_Times=0;
  4496  02F2  01D5               	clrf	_LCD_AUTO_Flash_Times^(0+128)
  4497                           
  4498                           ;pattern_fuction.c: 1026: if(Time_Temp_Counter++>=1250)
  4499                           
  4500                           ;pattern_fuction.c: 1027: {
  4501                           ;pattern_fuction.c: 1028: Time_Temp_Dis=~Time_Temp_Dis;
  4502                           
  4503                           ;pattern_fuction.c: 1029: Time_Temp_Counter=0;
  4504  02F3  26BF  120A  118A   	fcall	PL7	;call to abstracted procedure
  4505                           
  4506                           ;pattern_fuction.c: 1030: }
  4507                           ;pattern_fuction.c: 1032: if(Time_Temp_Dis)
  4508  02F6  1FF2               	btfss	_Time_Temp_Dis/(0+8),_Time_Temp_Dis& (0+7)
  4509  02F7  2B41               	goto	l5429
  4510                           
  4511                           ;pattern_fuction.c: 1033: {
  4512                           ;pattern_fuction.c: 1034: if(bool_TimeChange)
  4513  02F8  1E73               	btfss	_bool_TimeChange/(0+8),_bool_TimeChange& (0+7)
  4514  02F9  2B3F               	goto	l5430
  4515  02FA  30FF               	movlw	255
  4516                           
  4517                           ;pattern_fuction.c: 1035: {
  4518                           ;pattern_fuction.c: 1036: LCD_TIMER_Flash_Times=0;
  4519  02FB  01DC               	clrf	_LCD_TIMER_Flash_Times^(0+128)
  4520                           
  4521                           ;pattern_fuction.c: 1037: LCD_TEMP_Flash_Times=255;
  4522  02FC  00DB               	movwf	_LCD_TEMP_Flash_Times^(0+128)
  4523                           
  4524                           ;pattern_fuction.c: 1038: LCD_HOUR_Flash_Times=255;
  4525  02FD  00D8               	movwf	_LCD_HOUR_Flash_Times^(0+128)
  4526                           
  4527                           ;pattern_fuction.c: 1039: LCD_MINUTE_Flash_Times=255;
  4528  02FE  00D9               	movwf	_LCD_MINUTE_Flash_Times^(0+128)
  4529                           
  4530                           ;pattern_fuction.c: 1040: LCD_COL_Flash_Times=255;
  4531  02FF  00D6               	movwf	_LCD_COL_Flash_Times^(0+128)
  4532                           
  4533                           ;pattern_fuction.c: 1041: display[4]&=~(1<<0);
  4534  0300  1283               	bcf	3,5	;RP0=0, select bank0
  4535  0301  1024               	bcf	_display+4,0	;volatile
  4536                           
  4537                           ;pattern_fuction.c: 1042: display[4]|=1<<3;
  4538  0302  15A4               	bsf	_display+4,3	;volatile
  4539                           
  4540                           ;pattern_fuction.c: 1044: display[0]=LCDCode[Hour/10];
  4541  0303  2711  120A  118A   	fcall	PL20	;call to abstracted procedure
  4542  0306  1BDF               	btfsc	?___awdiv+2,7
  4543  0307  03E0               	decf	?___awdiv+3,f
  4544  0308  25EF  120A  118A   	fcall	___awdiv
  4545  030B  085D               	movf	?___awdiv,w
  4546  030C  26A8               	fcall	PL2	;call to abstracted procedure
  4547  030D  160A  118A  2000   	fcall	stringtab
      +       120A  118A         
  4548                           
  4549                           ;pattern_fuction.c: 1045: display[1]=LCDCode[Hour%10];
  4550  0312  26D8  120A  118A   	fcall	PL9	;call to abstracted procedure
  4551  0315  1BDF               	btfsc	?___awmod+2,7
  4552  0316  03E0               	decf	?___awmod+3,f
  4553  0317  2634  120A  118A   	fcall	___awmod
  4554  031A  085D               	movf	?___awmod,w
  4555  031B  26A8               	fcall	PL2	;call to abstracted procedure
  4556  031C  160A  118A  2000   	fcall	stringtab
      +       120A  118A         
  4557                           
  4558                           ;pattern_fuction.c: 1046: display[2]=LCDCode[Minute/10];
  4559  0321  2718  120A  118A   	fcall	PL25	;call to abstracted procedure
  4560  0324  1BDF               	btfsc	?___awdiv+2,7
  4561  0325  03E0               	decf	?___awdiv+3,f
  4562  0326  25EF  120A  118A   	fcall	___awdiv
  4563  0329  085D               	movf	?___awdiv,w
  4564  032A  26A8               	fcall	PL2	;call to abstracted procedure
  4565  032B  160A  118A  2000   	fcall	stringtab
      +       120A  118A         
  4566                           
  4567                           ;pattern_fuction.c: 1047: display[3]=LCDCode[Minute%10];
  4568  0330  26E0  120A  118A   	fcall	PL10	;call to abstracted procedure
  4569  0333  1BDF               	btfsc	?___awmod+2,7
  4570  0334  03E0               	decf	?___awmod+3,f
  4571  0335  2634  120A  118A   	fcall	___awmod
  4572  0338  085D               	movf	?___awmod,w
  4573  0339  3EBA               	addlw	low (_LCDCode| (0+32768))
  4574  033A  0084               	movwf	4
  4575  033B  3091               	movlw	high (_LCDCode| (0+32768))
  4576  033C  1803               	skipnc
  4577  033D  3E01               	addlw	1
  4578  033E  2B6C               	goto	L13
  4579  033F                     l5430:	
  4580                           ;pattern_fuction.c: 1049: }
  4581                           
  4582                           
  4583                           ;pattern_fuction.c: 1050: else
  4584                           ;pattern_fuction.c: 1051: {
  4585                           ;pattern_fuction.c: 1052: Time_Temp_Dis=0;
  4586  033F  13F2               	bcf	_Time_Temp_Dis/(0+8),_Time_Temp_Dis& (0+7)
  4587  0340  2B75               	goto	l15879
  4588  0341                     l5429:	
  4589                           
  4590                           ;pattern_fuction.c: 1055: else
  4591                           ;pattern_fuction.c: 1056: {
  4592                           ;pattern_fuction.c: 1057: if(bool_WaterTempChange)
  4593  0341  1EF3               	btfss	_bool_WaterTempChange/(0+8),_bool_WaterTempChange& (0+7)
  4594  0342  2B74               	goto	l5433
  4595                           
  4596                           ;pattern_fuction.c: 1058: {
  4597                           ;pattern_fuction.c: 1059: LCD_TIMER_Flash_Times=255;
  4598  0343  30FF               	movlw	255
  4599                           
  4600                           ;pattern_fuction.c: 1060: LCD_TEMP_Flash_Times=0;
  4601                           
  4602                           ;pattern_fuction.c: 1061: LCD_HOUR_Flash_Times=255;
  4603                           
  4604                           ;pattern_fuction.c: 1062: LCD_MINUTE_Flash_Times=255;
  4605                           
  4606                           ;pattern_fuction.c: 1063: LCD_COL_Flash_Times=255;
  4607                           
  4608                           ;pattern_fuction.c: 1064: display[4]&=~(1<<1);
  4609                           
  4610                           ;pattern_fuction.c: 1065: display[4]&=~(1<<3);
  4611                           
  4612                           ;pattern_fuction.c: 1067: display[0]=LCDCode[Water_Temp/10];
  4613  0344  26AF  120A  118A   	fcall	PL6	;call to abstracted procedure
  4614  0347  1BDF               	btfsc	?___awdiv+2,7
  4615  0348  03E0               	decf	?___awdiv+3,f
  4616  0349  25EF  120A  118A   	fcall	___awdiv
  4617  034C  085D               	movf	?___awdiv,w
  4618  034D  26A8               	fcall	PL2	;call to abstracted procedure
  4619  034E  160A  118A  2000   	fcall	stringtab
      +       120A  118A         
  4620                           
  4621                           ;pattern_fuction.c: 1068: display[1]=LCDCode[Water_Temp%10];
  4622  0353  26FC  120A  118A   	fcall	PL16	;call to abstracted procedure
  4623  0356  1BDF               	btfsc	?___awmod+2,7
  4624  0357  03E0               	decf	?___awmod+3,f
  4625  0358  2634  120A  118A   	fcall	___awmod
  4626  035B  085D               	movf	?___awmod,w
  4627  035C  26A8               	fcall	PL2	;call to abstracted procedure
  4628  035D  160A  118A  2000   	fcall	stringtab
      +       120A  118A         
  4629                           
  4630                           ;pattern_fuction.c: 1069: display[2]=LCDCode[12];
  4631  0362  2734               	fcall	PL34	;call to abstracted procedure
  4632  0363  160A  118A  2000   	fcall	stringtab
      +       120A  118A         
  4633  0368  00A2               	movwf	_display+2	;volatile
  4634                           
  4635                           ;pattern_fuction.c: 1070: display[3]=LCDCode[10];
  4636  0369  30C4               	movlw	low ((_LCDCode| (0+32768)+10))
  4637  036A  0084               	movwf	4
  4638  036B  3091               	movlw	high ((_LCDCode| (0+32768)+10))
  4639  036C                     L13:	
  4640  036C  00FF               	movwf	127
  4641  036D  160A  118A  2000   	fcall	stringtab
      +       120A  118A         
  4642  0372  00A3               	movwf	_display+3	;volatile
  4643                           
  4644                           ;pattern_fuction.c: 1072: }
  4645  0373  2B75               	goto	l15879
  4646  0374                     l5433:	
  4647                           
  4648                           ;pattern_fuction.c: 1073: else
  4649                           ;pattern_fuction.c: 1074: {
  4650                           ;pattern_fuction.c: 1075: Time_Temp_Dis=1;
  4651  0374  17F2               	bsf	_Time_Temp_Dis/(0+8),_Time_Temp_Dis& (0+7)
  4652  0375                     l15879:	
  4653                           
  4654                           ;pattern_fuction.c: 1076: }
  4655                           ;pattern_fuction.c: 1077: }
  4656                           ;pattern_fuction.c: 1081: if((Regular|Bold|Iced|Tea)&&(_80_z|_120_z|_210_z|_420_z))
  4657  0375  1283               	bcf	3,5	;RP0=0, select bank0
  4658  0376  0852               	movf	_Regular,w
  4659  0377  043B               	iorwf	_Bold,w
  4660  0378  043F               	iorwf	_Iced,w
  4661  0379  0456               	iorwf	_Tea,w
  4662  037A  1903               	btfsc	3,2
  4663  037B  0008               	return
  4664  037C  085C               	movf	__80_z,w
  4665  037D  0459               	iorwf	__120_z,w
  4666  037E  045A               	iorwf	__210_z,w
  4667  037F  045B               	iorwf	__420_z,w
  4668  0380  1903               	btfsc	3,2
  4669  0381  0008               	return
  4670                           
  4671                           ;pattern_fuction.c: 1082: {
  4672                           ;pattern_fuction.c: 1083: Key_Start_Lock=0;
  4673  0382  1172               	bcf	_Key_Start_Lock/(0+8),_Key_Start_Lock& (0+7)
  4674                           
  4675                           ;pattern_fuction.c: 1084: if(Start)
  4676  0383  0855               	movf	_Start,w
  4677  0384  1903               	btfsc	3,2
  4678  0385  0008               	return
  4679                           
  4680                           ;pattern_fuction.c: 1085: Pattern_State=8;
  4681  0386  3008               	movlw	8
  4682  0387  1683               	bsf	3,5	;RP0=1, select bank1
  4683  0388  00E9               	movwf	_Pattern_State^(0+128)
  4684  0389  0008               	return
  4685  038A                     l15889:	
  4686                           
  4687                           ;pattern_fuction.c: 1094: Pattern_State=9;
  4688  038A  3009               	movlw	9
  4689  038B  00E9               	movwf	_Pattern_State^(0+128)
  4690                           
  4691                           ;pattern_fuction.c: 1095: break;
  4692  038C  0008               	return
  4693  038D                     l15891:	
  4694                           
  4695                           ;pattern_fuction.c: 1101: if(Time_Temp_Counter++>=1250)
  4696                           
  4697                           ;pattern_fuction.c: 1102: {
  4698                           ;pattern_fuction.c: 1103: Time_Temp_Dis=~Time_Temp_Dis;
  4699                           
  4700                           ;pattern_fuction.c: 1104: Time_Temp_Counter=0;
  4701  038D  26BF  120A  118A   	fcall	PL7	;call to abstracted procedure
  4702                           
  4703                           ;pattern_fuction.c: 1105: }
  4704                           ;pattern_fuction.c: 1107: if(Time_Temp_Dis)
  4705  0390  1FF2               	btfss	_Time_Temp_Dis/(0+8),_Time_Temp_Dis& (0+7)
  4706  0391  2BDA               	goto	l5440
  4707                           
  4708                           ;pattern_fuction.c: 1108: {
  4709                           ;pattern_fuction.c: 1109: if(bool_TimeChange)
  4710  0392  1E73               	btfss	_bool_TimeChange/(0+8),_bool_TimeChange& (0+7)
  4711  0393  2BD8               	goto	l5441
  4712  0394  30FF               	movlw	255
  4713                           
  4714                           ;pattern_fuction.c: 1110: {
  4715                           ;pattern_fuction.c: 1111: LCD_TIMER_Flash_Times=0;
  4716  0395  01DC               	clrf	_LCD_TIMER_Flash_Times^(0+128)
  4717                           
  4718                           ;pattern_fuction.c: 1112: LCD_TEMP_Flash_Times=255;
  4719  0396  00DB               	movwf	_LCD_TEMP_Flash_Times^(0+128)
  4720                           
  4721                           ;pattern_fuction.c: 1113: LCD_HOUR_Flash_Times=255;
  4722  0397  00D8               	movwf	_LCD_HOUR_Flash_Times^(0+128)
  4723                           
  4724                           ;pattern_fuction.c: 1114: LCD_MINUTE_Flash_Times=255;
  4725  0398  00D9               	movwf	_LCD_MINUTE_Flash_Times^(0+128)
  4726                           
  4727                           ;pattern_fuction.c: 1115: LCD_COL_Flash_Times=0;
  4728  0399  01D6               	clrf	_LCD_COL_Flash_Times^(0+128)
  4729                           
  4730                           ;pattern_fuction.c: 1116: display[4]&=~(1<<0);
  4731  039A  1283               	bcf	3,5	;RP0=0, select bank0
  4732  039B  1024               	bcf	_display+4,0	;volatile
  4733                           
  4734                           ;pattern_fuction.c: 1119: display[0]=LCDCode[Hour/10];
  4735  039C  2711  120A  118A   	fcall	PL20	;call to abstracted procedure
  4736  039F  1BDF               	btfsc	?___awdiv+2,7
  4737  03A0  03E0               	decf	?___awdiv+3,f
  4738  03A1  25EF  120A  118A   	fcall	___awdiv
  4739  03A4  085D               	movf	?___awdiv,w
  4740  03A5  26A8               	fcall	PL2	;call to abstracted procedure
  4741  03A6  160A  118A  2000   	fcall	stringtab
      +       120A  118A         
  4742                           
  4743                           ;pattern_fuction.c: 1120: display[1]=LCDCode[Hour%10];
  4744  03AB  26D8  120A  118A   	fcall	PL9	;call to abstracted procedure
  4745  03AE  1BDF               	btfsc	?___awmod+2,7
  4746  03AF  03E0               	decf	?___awmod+3,f
  4747  03B0  2634  120A  118A   	fcall	___awmod
  4748  03B3  085D               	movf	?___awmod,w
  4749  03B4  26A8               	fcall	PL2	;call to abstracted procedure
  4750  03B5  160A  118A  2000   	fcall	stringtab
      +       120A  118A         
  4751                           
  4752                           ;pattern_fuction.c: 1121: display[2]=LCDCode[Minute/10];
  4753  03BA  2718  120A  118A   	fcall	PL25	;call to abstracted procedure
  4754  03BD  1BDF               	btfsc	?___awdiv+2,7
  4755  03BE  03E0               	decf	?___awdiv+3,f
  4756  03BF  25EF  120A  118A   	fcall	___awdiv
  4757  03C2  085D               	movf	?___awdiv,w
  4758  03C3  26A8               	fcall	PL2	;call to abstracted procedure
  4759  03C4  160A  118A  2000   	fcall	stringtab
      +       120A  118A         
  4760                           
  4761                           ;pattern_fuction.c: 1122: display[3]=LCDCode[Minute%10];
  4762  03C9  26E0  120A  118A   	fcall	PL10	;call to abstracted procedure
  4763  03CC  1BDF               	btfsc	?___awmod+2,7
  4764  03CD  03E0               	decf	?___awmod+3,f
  4765  03CE  2634  120A  118A   	fcall	___awmod
  4766  03D1  085D               	movf	?___awmod,w
  4767  03D2  3EBA               	addlw	low (_LCDCode| (0+32768))
  4768  03D3  0084               	movwf	4
  4769  03D4  3091               	movlw	high (_LCDCode| (0+32768))
  4770  03D5  1803               	skipnc
  4771  03D6  3E01               	addlw	1
  4772  03D7  2C05               	goto	L14
  4773  03D8                     l5441:	
  4774                           ;pattern_fuction.c: 1124: }
  4775                           
  4776                           
  4777                           ;pattern_fuction.c: 1125: else
  4778                           ;pattern_fuction.c: 1126: {
  4779                           ;pattern_fuction.c: 1127: Time_Temp_Dis=0;
  4780  03D8  13F2               	bcf	_Time_Temp_Dis/(0+8),_Time_Temp_Dis& (0+7)
  4781  03D9  2C0E               	goto	l15943
  4782  03DA                     l5440:	
  4783                           
  4784                           ;pattern_fuction.c: 1130: else
  4785                           ;pattern_fuction.c: 1131: {
  4786                           ;pattern_fuction.c: 1132: if(bool_WaterTempChange)
  4787  03DA  1EF3               	btfss	_bool_WaterTempChange/(0+8),_bool_WaterTempChange& (0+7)
  4788  03DB  2C0D               	goto	l5444
  4789                           
  4790                           ;pattern_fuction.c: 1133: {
  4791                           ;pattern_fuction.c: 1134: LCD_TIMER_Flash_Times=255;
  4792  03DC  30FF               	movlw	255
  4793                           
  4794                           ;pattern_fuction.c: 1135: LCD_TEMP_Flash_Times=0;
  4795                           
  4796                           ;pattern_fuction.c: 1136: LCD_HOUR_Flash_Times=255;
  4797                           
  4798                           ;pattern_fuction.c: 1137: LCD_MINUTE_Flash_Times=255;
  4799                           
  4800                           ;pattern_fuction.c: 1138: LCD_COL_Flash_Times=255;
  4801                           
  4802                           ;pattern_fuction.c: 1139: display[4]&=~(1<<1);
  4803                           
  4804                           ;pattern_fuction.c: 1140: display[4]&=~(1<<3);
  4805                           
  4806                           ;pattern_fuction.c: 1142: display[0]=LCDCode[Water_Temp/10];
  4807  03DD  26AF  120A  118A   	fcall	PL6	;call to abstracted procedure
  4808  03E0  1BDF               	btfsc	?___awdiv+2,7
  4809  03E1  03E0               	decf	?___awdiv+3,f
  4810  03E2  25EF  120A  118A   	fcall	___awdiv
  4811  03E5  085D               	movf	?___awdiv,w
  4812  03E6  26A8               	fcall	PL2	;call to abstracted procedure
  4813  03E7  160A  118A  2000   	fcall	stringtab
      +       120A  118A         
  4814                           
  4815                           ;pattern_fuction.c: 1143: display[1]=LCDCode[Water_Temp%10];
  4816  03EC  26FC  120A  118A   	fcall	PL16	;call to abstracted procedure
  4817  03EF  1BDF               	btfsc	?___awmod+2,7
  4818  03F0  03E0               	decf	?___awmod+3,f
  4819  03F1  2634  120A  118A   	fcall	___awmod
  4820  03F4  085D               	movf	?___awmod,w
  4821  03F5  26A8               	fcall	PL2	;call to abstracted procedure
  4822  03F6  160A  118A  2000   	fcall	stringtab
      +       120A  118A         
  4823                           
  4824                           ;pattern_fuction.c: 1144: display[2]=LCDCode[12];
  4825  03FB  2734               	fcall	PL34	;call to abstracted procedure
  4826  03FC  160A  118A  2000   	fcall	stringtab
      +       120A  118A         
  4827  0401  00A2               	movwf	_display+2	;volatile
  4828                           
  4829                           ;pattern_fuction.c: 1145: display[3]=LCDCode[10];
  4830  0402  30C4               	movlw	low ((_LCDCode| (0+32768)+10))
  4831  0403  0084               	movwf	4
  4832  0404  3091               	movlw	high ((_LCDCode| (0+32768)+10))
  4833  0405                     L14:	
  4834  0405  00FF               	movwf	127
  4835  0406  160A  118A  2000   	fcall	stringtab
      +       120A  118A         
  4836  040B  00A3               	movwf	_display+3	;volatile
  4837                           
  4838                           ;pattern_fuction.c: 1147: }
  4839  040C  2C0E               	goto	l15943
  4840  040D                     l5444:	
  4841                           
  4842                           ;pattern_fuction.c: 1148: else
  4843                           ;pattern_fuction.c: 1149: {
  4844                           ;pattern_fuction.c: 1150: Time_Temp_Dis=1;
  4845  040D  17F2               	bsf	_Time_Temp_Dis/(0+8),_Time_Temp_Dis& (0+7)
  4846  040E                     l15943:	
  4847                           
  4848                           ;pattern_fuction.c: 1151: }
  4849                           ;pattern_fuction.c: 1152: }
  4850                           ;pattern_fuction.c: 1154: if(++TimeCounter>250)
  4851  040E  30FB               	movlw	251
  4852  040F  1683               	bsf	3,5	;RP0=1, select bank1
  4853  0410  0AEE               	incf	_TimeCounter^(0+128),f
  4854  0411  026E               	subwf	_TimeCounter^(0+128),w
  4855  0412  1C03               	skipc
  4856  0413  2C1F               	goto	l5446
  4857  0414  303C               	movlw	60
  4858                           
  4859                           ;pattern_fuction.c: 1155: {
  4860                           ;pattern_fuction.c: 1156: TimeCounter=0;
  4861  0415  01EE               	clrf	_TimeCounter^(0+128)
  4862                           
  4863                           ;pattern_fuction.c: 1157: Second++;
  4864  0416  0AED               	incf	_Second^(0+128),f
  4865                           
  4866                           ;pattern_fuction.c: 1158: if(Second>=60)
  4867  0417  026D               	subwf	_Second^(0+128),w
  4868  0418  1C03               	skipc
  4869  0419  2C1F               	goto	l5446
  4870                           
  4871                           ;pattern_fuction.c: 1159: {
  4872                           ;pattern_fuction.c: 1160: Second=0;
  4873  041A  01ED               	clrf	_Second^(0+128)
  4874                           
  4875                           ;pattern_fuction.c: 1161: Minute--;
  4876  041B  1283               	bcf	3,5	;RP0=0, select bank0
  4877  041C  03CE               	decf	_Minute,f
  4878                           
  4879                           ;pattern_fuction.c: 1162: if(Minute<0)
  4880  041D  1BCE               	btfsc	_Minute,7
  4881                           
  4882                           ;pattern_fuction.c: 1163: {
  4883                           ;pattern_fuction.c: 1164: Hour--;
  4884  041E  03BE               	decf	_Hour,f
  4885  041F                     l5446:	
  4886                           
  4887                           ;pattern_fuction.c: 1165: }
  4888                           ;pattern_fuction.c: 1167: }
  4889                           ;pattern_fuction.c: 1169: }
  4890                           ;pattern_fuction.c: 1171: if((Hour==0)&&(Minute==0))
  4891  041F  1283               	bcf	3,5	;RP0=0, select bank0
  4892  0420  08BE               	movf	_Hour,f
  4893  0421  1D03               	skipz
  4894  0422  0008               	return
  4895  0423  08CE               	movf	_Minute,f
  4896  0424  1D03               	skipz
  4897  0425  0008               	return
  4898  0426  28BD               	goto	l15569
  4899  0427                     l5450:	
  4900                           ;pattern_fuction.c: 1178: case 10:
  4901                           
  4902                           
  4903                           ;pattern_fuction.c: 1180: ANNULUS_LIGHT_State=1;
  4904  0427  1283               	bcf	3,5	;RP0=0, select bank0
  4905  0428  30FF               	movlw	255
  4906  0429  01B7               	clrf	_ANNULUS_LIGHT_State
  4907  042A  0AB7               	incf	_ANNULUS_LIGHT_State,f
  4908                           
  4909                           ;pattern_fuction.c: 1181: SHOW_LIGHT_State=1;
  4910  042B  01D3               	clrf	_SHOW_LIGHT_State
  4911  042C  0AD3               	incf	_SHOW_LIGHT_State,f
  4912                           
  4913                           ;pattern_fuction.c: 1183: LCD_TEMP_Flash_Times=255;
  4914  042D  1683               	bsf	3,5	;RP0=1, select bank1
  4915  042E  00DB               	movwf	_LCD_TEMP_Flash_Times^(0+128)
  4916                           
  4917                           ;pattern_fuction.c: 1184: LCD_AUTO_Flash_Times=255;
  4918  042F  00D5               	movwf	_LCD_AUTO_Flash_Times^(0+128)
  4919                           
  4920                           ;pattern_fuction.c: 1187: LCD_HOUR_Flash_Times=255;
  4921  0430  00D8               	movwf	_LCD_HOUR_Flash_Times^(0+128)
  4922                           
  4923                           ;pattern_fuction.c: 1188: LCD_MINUTE_Flash_Times=255;
  4924  0431  00D9               	movwf	_LCD_MINUTE_Flash_Times^(0+128)
  4925                           
  4926                           ;pattern_fuction.c: 1190: Temp_595[1]|=1<<6;
  4927  0432  1283               	bcf	3,5	;RP0=0, select bank0
  4928  0433  1726               	bsf	_Temp_595+1,6	;volatile
  4929                           
  4930                           ;pattern_fuction.c: 1191: Temp_595[1]|=1<<7;
  4931  0434  17A6               	bsf	_Temp_595+1,7	;volatile
  4932                           
  4933                           ;pattern_fuction.c: 1194: display[4]&=~(1<<1);
  4934  0435  10A4               	bcf	_display+4,1	;volatile
  4935                           
  4936                           ;pattern_fuction.c: 1195: display[4]|=1<<0;
  4937  0436  1424               	bsf	_display+4,0	;volatile
  4938                           
  4939                           ;pattern_fuction.c: 1196: display[4]&=~(1<<2);
  4940  0437  1124               	bcf	_display+4,2	;volatile
  4941                           
  4942                           ;pattern_fuction.c: 1197: LCD_State=5;
  4943  0438  3005               	movlw	5
  4944  0439  1683               	bsf	3,5	;RP0=1, select bank1
  4945  043A  00DA               	movwf	_LCD_State^(0+128)
  4946                           
  4947                           ;pattern_fuction.c: 1199: LED12_State=1;
  4948  043B  01E0               	clrf	_LED12_State^(0+128)
  4949  043C  0AE0               	incf	_LED12_State^(0+128),f
  4950                           
  4951                           ;pattern_fuction.c: 1202: Key_Regular_Lock=1;
  4952  043D  14F2               	bsf	_Key_Regular_Lock/(0+8),_Key_Regular_Lock& (0+7)
  4953                           
  4954                           ;pattern_fuction.c: 1203: Key_Bold_Lock=1;
  4955  043E  1671               	bsf	_Key_Bold_Lock/(0+8),_Key_Bold_Lock& (0+7)
  4956                           
  4957                           ;pattern_fuction.c: 1204: Key_Iced_Lock=1;
  4958  043F  16F1               	bsf	_Key_Iced_Lock/(0+8),_Key_Iced_Lock& (0+7)
  4959                           
  4960                           ;pattern_fuction.c: 1205: Key_Tea_Lock=1;
  4961  0440  15F2               	bsf	_Key_Tea_Lock/(0+8),_Key_Tea_Lock& (0+7)
  4962                           
  4963                           ;pattern_fuction.c: 1206: Key_Add_Lock=1;
  4964  0441  15F1               	bsf	_Key_Add_Lock/(0+8),_Key_Add_Lock& (0+7)
  4965                           
  4966                           ;pattern_fuction.c: 1207: Key_Reduce_Lock=1;
  4967  0442  1472               	bsf	_Key_Reduce_Lock/(0+8),_Key_Reduce_Lock& (0+7)
  4968                           
  4969                           ;pattern_fuction.c: 1208: Key_80_Z_Lock=1;
  4970  0443  14F1               	bsf	_Key_80_Z_Lock/(0+8),_Key_80_Z_Lock& (0+7)
  4971                           
  4972                           ;pattern_fuction.c: 1209: Key_120_Z_Lock=1;
  4973  0444  1770               	bsf	_Key_120_Z_Lock/(0+8),_Key_120_Z_Lock& (0+7)
  4974                           
  4975                           ;pattern_fuction.c: 1210: Key_210_Z_Lock=1;
  4976  0445  17F0               	bsf	_Key_210_Z_Lock/(0+8),_Key_210_Z_Lock& (0+7)
  4977                           
  4978                           ;pattern_fuction.c: 1211: Key_420_Z_Lock=1;
  4979  0446  1471               	bsf	_Key_420_Z_Lock/(0+8),_Key_420_Z_Lock& (0+7)
  4980                           
  4981                           ;pattern_fuction.c: 1212: Key_Option_Lock=1;
  4982  0447  1771               	bsf	_Key_Option_Lock/(0+8),_Key_Option_Lock& (0+7)
  4983                           
  4984                           ;pattern_fuction.c: 1213: Key_Start_Lock=0;
  4985  0448  1172               	bcf	_Key_Start_Lock/(0+8),_Key_Start_Lock& (0+7)
  4986                           
  4987                           ;pattern_fuction.c: 1214: Start=0;
  4988  0449  1283               	bcf	3,5	;RP0=0, select bank0
  4989  044A  30FF               	movlw	255
  4990  044B  01D5               	clrf	_Start
  4991                           
  4992                           ;pattern_fuction.c: 1216: LCD_TIMER_Flash_Times=255;
  4993  044C  1683               	bsf	3,5	;RP0=1, select bank1
  4994  044D  00DC               	movwf	_LCD_TIMER_Flash_Times^(0+128)
  4995                           
  4996                           ;pattern_fuction.c: 1217: LCD_TEMP_Flash_Times=255;
  4997  044E  00DB               	movwf	_LCD_TEMP_Flash_Times^(0+128)
  4998                           
  4999                           ;pattern_fuction.c: 1218: LCD_HOUR_Flash_Times=255;
  5000  044F  00D8               	movwf	_LCD_HOUR_Flash_Times^(0+128)
  5001                           
  5002                           ;pattern_fuction.c: 1219: LCD_MINUTE_Flash_Times=255;
  5003  0450  00D9               	movwf	_LCD_MINUTE_Flash_Times^(0+128)
  5004                           
  5005                           ;pattern_fuction.c: 1221: Pattern_State=11;
  5006  0451  300B               	movlw	11
  5007  0452  00E9               	movwf	_Pattern_State^(0+128)
  5008                           
  5009                           ;pattern_fuction.c: 1222: break;
  5010  0453  0008               	return
  5011  0454                     l16013:	
  5012                           
  5013                           ;pattern_fuction.c: 1225: if(Start) Pattern_State=0;
  5014  0454  1283               	bcf	3,5	;RP0=0, select bank0
  5015  0455  0855               	movf	_Start,w
  5016  0456  1683               	bsf	3,5	;RP0=1, select bank1
  5017  0457  1D03               	skipz
  5018  0458  01E9               	clrf	_Pattern_State^(0+128)
  5019                           
  5020                           ;pattern_fuction.c: 1226: if(WortTimeCount++>=250)
  5021  0459  1683               	bsf	3,5	;RP0=1, select bank3
  5022  045A  1703               	bsf	3,6	;RP1=1, select bank3
  5023  045B  0AE4               	incf	_WortTimeCount^(0+384),f
  5024  045C  1903               	skipnz
  5025  045D  0AE5               	incf	(_WortTimeCount+1)^(0+384),f
  5026  045E  3000               	movlw	0
  5027  045F  0265               	subwf	(_WortTimeCount+1)^(0+384),w
  5028  0460  30FB               	movlw	251
  5029  0461  1903               	skipnz
  5030  0462  0264               	subwf	_WortTimeCount^(0+384),w
  5031  0463  1C03               	skipc
  5032  0464  2C82               	goto	l16039
  5033                           
  5034                           ;pattern_fuction.c: 1227: {
  5035                           ;pattern_fuction.c: 1228: WortTimeCount=0;
  5036  0465  01E4               	clrf	_WortTimeCount^(0+384)
  5037  0466  01E5               	clrf	(_WortTimeCount+1)^(0+384)
  5038                           
  5039                           ;pattern_fuction.c: 1230: if(++Time_Temp_Counter>=6)
  5040  0467  1303               	bcf	3,6	;RP1=0, select bank1
  5041  0468  0ACB               	incf	_Time_Temp_Counter^(0+128),f
  5042  0469  1903               	skipnz
  5043  046A  0ACC               	incf	(_Time_Temp_Counter+1)^(0+128),f
  5044  046B  3000               	movlw	0
  5045  046C  024C               	subwf	(_Time_Temp_Counter+1)^(0+128),w
  5046  046D  3006               	movlw	6
  5047  046E  1903               	skipnz
  5048  046F  024B               	subwf	_Time_Temp_Counter^(0+128),w
  5049  0470  1C03               	skipc
  5050  0471  2C76               	goto	l16027
  5051  0472  3080               	movlw	(0+1) shl (_Time_Temp_Dis& (0+7))
  5052                           
  5053                           ;pattern_fuction.c: 1231: {
  5054                           ;pattern_fuction.c: 1232: Time_Temp_Counter=0;
  5055  0473  01CB               	clrf	_Time_Temp_Counter^(0+128)
  5056  0474  01CC               	clrf	(_Time_Temp_Counter+1)^(0+128)
  5057                           
  5058                           ;pattern_fuction.c: 1233: Time_Temp_Dis=~Time_Temp_Dis;
  5059  0475  06F2               	xorwf	_Time_Temp_Dis/(0+8),f
  5060  0476                     l16027:	
  5061                           
  5062                           ;pattern_fuction.c: 1234: }
  5063                           ;pattern_fuction.c: 1236: WorkSecond+=1;
  5064  0476  1283               	bcf	3,5	;RP0=0, select bank0
  5065  0477  303C               	movlw	60
  5066  0478  0AD8               	incf	_WorkSecond,f
  5067                           
  5068                           ;pattern_fuction.c: 1237: if(WorkSecond>59)
  5069  0479  0258               	subwf	_WorkSecond,w
  5070  047A  1C03               	skipc
  5071  047B  2C82               	goto	l16039
  5072  047C  3064               	movlw	100
  5073                           
  5074                           ;pattern_fuction.c: 1238: {
  5075                           ;pattern_fuction.c: 1239: WorkSecond=0;
  5076  047D  01D8               	clrf	_WorkSecond
  5077                           
  5078                           ;pattern_fuction.c: 1240: WorkMinute++;
  5079  047E  0AD7               	incf	_WorkMinute,f
  5080                           
  5081                           ;pattern_fuction.c: 1241: if(WorkMinute>99) WorkMinute=0;
  5082  047F  0257               	subwf	_WorkMinute,w
  5083  0480  1803               	btfsc	3,0
  5084  0481  01D7               	clrf	_WorkMinute
  5085  0482                     l16039:	
  5086                           
  5087                           ;pattern_fuction.c: 1242: }
  5088                           ;pattern_fuction.c: 1243: }
  5089                           ;pattern_fuction.c: 1245: if(Time_Temp_Dis)
  5090  0482  1FF2               	btfss	_Time_Temp_Dis/(0+8),_Time_Temp_Dis& (0+7)
  5091  0483  2CBF               	goto	l16055
  5092                           
  5093                           ;pattern_fuction.c: 1246: {
  5094                           ;pattern_fuction.c: 1248: {
  5095                           ;pattern_fuction.c: 1253: LCD_COL_Flash_Times=0;
  5096  0484  1683               	bsf	3,5	;RP0=1, select bank1
  5097  0485  1303               	bcf	3,6	;RP1=0, select bank1
  5098  0486  01D6               	clrf	_LCD_COL_Flash_Times^(0+128)
  5099                           
  5100                           ;pattern_fuction.c: 1254: display[4]&=~(1<<0);
  5101  0487  1283               	bcf	3,5	;RP0=0, select bank0
  5102  0488  1024               	bcf	_display+4,0	;volatile
  5103                           
  5104                           ;pattern_fuction.c: 1255: display[4]|=1<<1;
  5105  0489  14A4               	bsf	_display+4,1	;volatile
  5106                           
  5107                           ;pattern_fuction.c: 1258: display[0]=LCDCode[WorkMinute/10];
  5108  048A  300A               	movlw	10
  5109  048B  00DD               	movwf	?___lbdiv
  5110  048C  0857               	movf	_WorkMinute,w
  5111  048D  2671  120A  118A   	fcall	___lbdiv
  5112  0490  26A8               	fcall	PL2	;call to abstracted procedure
  5113  0491  160A  118A  2000   	fcall	stringtab
      +       120A  118A         
  5114  0496  00A0               	movwf	_display	;volatile
  5115                           
  5116                           ;pattern_fuction.c: 1259: display[1]=LCDCode[WorkMinute%10];
  5117  0497  300A               	movlw	10
  5118  0498  00DD               	movwf	?___lbmod
  5119  0499  0857               	movf	_WorkMinute,w
  5120  049A  268C  120A  118A   	fcall	___lbmod
  5121  049D  26A8               	fcall	PL2	;call to abstracted procedure
  5122  049E  160A  118A  2000   	fcall	stringtab
      +       120A  118A         
  5123  04A3  00A1               	movwf	_display+1	;volatile
  5124                           
  5125                           ;pattern_fuction.c: 1260: display[2]=LCDCode[WorkSecond/10];
  5126  04A4  300A               	movlw	10
  5127  04A5  00DD               	movwf	?___lbdiv
  5128  04A6  0858               	movf	_WorkSecond,w
  5129  04A7  2671  120A  118A   	fcall	___lbdiv
  5130  04AA  26A8               	fcall	PL2	;call to abstracted procedure
  5131  04AB  160A  118A  2000   	fcall	stringtab
      +       120A  118A         
  5132  04B0  00A2               	movwf	_display+2	;volatile
  5133                           
  5134                           ;pattern_fuction.c: 1261: display[3]=LCDCode[WorkSecond%10];
  5135  04B1  300A               	movlw	10
  5136  04B2  00DD               	movwf	?___lbmod
  5137  04B3  0858               	movf	_WorkSecond,w
  5138  04B4  268C  120A  118A   	fcall	___lbmod
  5139  04B7  26A8               	fcall	PL2	;call to abstracted procedure
  5140  04B8  160A  118A  2000   	fcall	stringtab
      +       120A  118A         
  5141  04BD  00A3               	movwf	_display+3	;volatile
  5142                           
  5143                           ;pattern_fuction.c: 1263: }
  5144                           ;pattern_fuction.c: 1265: {
  5145                           ;pattern_fuction.c: 1267: }
  5146                           ;pattern_fuction.c: 1268: }
  5147  04BE  2DB2               	goto	l16189
  5148  04BF                     l16055:	
  5149                           
  5150                           ;pattern_fuction.c: 1269: else
  5151                           ;pattern_fuction.c: 1270: {
  5152                           ;pattern_fuction.c: 1272: {
  5153                           ;pattern_fuction.c: 1274: LCD_COL_Flash_Times=255;
  5154  04BF  30FF               	movlw	255
  5155  04C0  1683               	bsf	3,5	;RP0=1, select bank1
  5156  04C1  1303               	bcf	3,6	;RP1=0, select bank1
  5157  04C2  00D6               	movwf	_LCD_COL_Flash_Times^(0+128)
  5158                           
  5159                           ;pattern_fuction.c: 1275: display[4]|=1<<0;
  5160  04C3  1283               	bcf	3,5	;RP0=0, select bank0
  5161  04C4  1424               	bsf	_display+4,0	;volatile
  5162                           
  5163                           ;pattern_fuction.c: 1276: display[4]&=~(1<<1);
  5164  04C5  10A4               	bcf	_display+4,1	;volatile
  5165                           
  5166                           ;pattern_fuction.c: 1277: display[4]&=~(1<<3);
  5167  04C6  11A4               	bcf	_display+4,3	;volatile
  5168                           
  5169                           ;pattern_fuction.c: 1278: Hex_To_Temp(Temperature_Dat);
  5170  04C7  086E               	movf	_Temperature_Dat,w	;volatile
  5171  04C8  273A  120A  118A   	fcall	_Hex_To_Temp
  5172  04CB  2DB2               	goto	l16189
  5173  04CC                     l16065:	
  5174                           
  5175                           ;pattern_fuction.c: 1290: if(_80_z)
  5176  04CC  1283               	bcf	3,5	;RP0=0, select bank0
  5177  04CD  085C               	movf	__80_z,w
  5178  04CE  1903               	btfsc	3,2
  5179  04CF  2CE5               	goto	l16083
  5180                           
  5181                           ;pattern_fuction.c: 1291: {
  5182                           ;pattern_fuction.c: 1292: Solenoid_Work_Time=15;
  5183  04D0  300F               	movlw	15
  5184                           
  5185                           ;pattern_fuction.c: 1293: Solenoid_Stop_Time=5;
  5186                           
  5187                           ;pattern_fuction.c: 1294: if(Regular)
  5188  04D1  26E8  120A  118A   	fcall	PL11	;call to abstracted procedure
  5189  04D4  1903               	btfsc	3,2
  5190  04D5  2CD8               	goto	l16071
  5191                           
  5192                           ;pattern_fuction.c: 1295: {
  5193                           ;pattern_fuction.c: 1296: PATTERN_WORK_TIME=30;
  5194  04D6  301E               	movlw	30
  5195  04D7  2D30               	goto	L11
  5196  04D8                     l16071:	
  5197                           ;pattern_fuction.c: 1297: }
  5198                           
  5199                           
  5200                           ;pattern_fuction.c: 1298: else
  5201                           ;pattern_fuction.c: 1299: if(Bold)
  5202  04D8  083B               	movf	_Bold,w
  5203  04D9  1903               	btfsc	3,2
  5204  04DA  2CDD               	goto	l16075
  5205  04DB                     l16073:	
  5206                           
  5207                           ;pattern_fuction.c: 1300: {
  5208                           ;pattern_fuction.c: 1301: PATTERN_WORK_TIME=75;
  5209  04DB  304B               	movlw	75
  5210  04DC  2D30               	goto	L11
  5211  04DD                     l16075:	
  5212                           ;pattern_fuction.c: 1302: }
  5213                           
  5214                           
  5215                           ;pattern_fuction.c: 1303: else
  5216                           ;pattern_fuction.c: 1304: if(Iced)
  5217  04DD  083F               	movf	_Iced,w
  5218  04DE  1D03               	skipz
  5219  04DF  2CDB               	goto	l16073
  5220                           
  5221                           ;pattern_fuction.c: 1308: else
  5222                           ;pattern_fuction.c: 1309: if(Tea)
  5223  04E0  0856               	movf	_Tea,w
  5224  04E1  1903               	btfsc	3,2
  5225  04E2  2D3C               	goto	l16137
  5226                           
  5227                           ;pattern_fuction.c: 1310: {
  5228                           ;pattern_fuction.c: 1311: PATTERN_WORK_TIME=20;
  5229  04E3  3014               	movlw	20
  5230  04E4  2D30               	goto	L11
  5231  04E5                     l16083:	
  5232                           
  5233                           ;pattern_fuction.c: 1315: else
  5234                           ;pattern_fuction.c: 1316: if(_120_z)
  5235  04E5  0859               	movf	__120_z,w
  5236  04E6  1903               	btfsc	3,2
  5237  04E7  2CFD               	goto	l16101
  5238                           
  5239                           ;pattern_fuction.c: 1317: {
  5240                           ;pattern_fuction.c: 1318: Solenoid_Work_Time=20;
  5241  04E8  3014               	movlw	20
  5242                           
  5243                           ;pattern_fuction.c: 1319: Solenoid_Stop_Time=5;
  5244                           
  5245                           ;pattern_fuction.c: 1320: if(Regular)
  5246  04E9  26E8  120A  118A   	fcall	PL11	;call to abstracted procedure
  5247  04EC  1903               	btfsc	3,2
  5248  04ED  2CF0               	goto	l16089
  5249                           
  5250                           ;pattern_fuction.c: 1321: {
  5251                           ;pattern_fuction.c: 1322: PATTERN_WORK_TIME=53;
  5252  04EE  3035               	movlw	53
  5253  04EF  2D30               	goto	L11
  5254  04F0                     l16089:	
  5255                           ;pattern_fuction.c: 1323: }
  5256                           
  5257                           
  5258                           ;pattern_fuction.c: 1324: else
  5259                           ;pattern_fuction.c: 1325: if(Bold)
  5260  04F0  083B               	movf	_Bold,w
  5261  04F1  1903               	btfsc	3,2
  5262  04F2  2CF5               	goto	l16093
  5263  04F3                     l16091:	
  5264                           
  5265                           ;pattern_fuction.c: 1326: {
  5266                           ;pattern_fuction.c: 1327: PATTERN_WORK_TIME=120;
  5267  04F3  3078               	movlw	120
  5268  04F4  2D30               	goto	L11
  5269  04F5                     l16093:	
  5270                           ;pattern_fuction.c: 1328: }
  5271                           
  5272                           
  5273                           ;pattern_fuction.c: 1329: else
  5274                           ;pattern_fuction.c: 1330: if(Iced)
  5275  04F5  083F               	movf	_Iced,w
  5276  04F6  1D03               	skipz
  5277  04F7  2CF3               	goto	l16091
  5278                           
  5279                           ;pattern_fuction.c: 1334: else
  5280                           ;pattern_fuction.c: 1335: if(Tea)
  5281  04F8  0856               	movf	_Tea,w
  5282  04F9  1903               	btfsc	3,2
  5283  04FA  2D3C               	goto	l16137
  5284                           
  5285                           ;pattern_fuction.c: 1336: {
  5286                           ;pattern_fuction.c: 1337: PATTERN_WORK_TIME=110;
  5287  04FB  306E               	movlw	110
  5288  04FC  2D30               	goto	L11
  5289  04FD                     l16101:	
  5290                           
  5291                           ;pattern_fuction.c: 1340: else
  5292                           ;pattern_fuction.c: 1341: if(_210_z)
  5293  04FD  085A               	movf	__210_z,w
  5294  04FE  1903               	btfsc	3,2
  5295  04FF  2D17               	goto	l16119
  5296                           
  5297                           ;pattern_fuction.c: 1342: {
  5298                           ;pattern_fuction.c: 1343: Solenoid_Work_Time=25;
  5299  0500  3019               	movlw	25
  5300                           
  5301                           ;pattern_fuction.c: 1344: Solenoid_Stop_Time=5;
  5302                           
  5303                           ;pattern_fuction.c: 1345: if(Regular)
  5304  0501  26E8  120A  118A   	fcall	PL11	;call to abstracted procedure
  5305  0504  1903               	btfsc	3,2
  5306  0505  2D08               	goto	l16107
  5307                           
  5308                           ;pattern_fuction.c: 1346: {
  5309                           ;pattern_fuction.c: 1347: PATTERN_WORK_TIME=60;
  5310  0506  303C               	movlw	60
  5311  0507  2D30               	goto	L11
  5312  0508                     l16107:	
  5313                           ;pattern_fuction.c: 1348: }
  5314                           
  5315                           
  5316                           ;pattern_fuction.c: 1349: else
  5317                           ;pattern_fuction.c: 1350: if(Bold)
  5318  0508  083B               	movf	_Bold,w
  5319  0509  1903               	btfsc	3,2
  5320  050A  2D0D               	goto	l16111
  5321                           
  5322                           ;pattern_fuction.c: 1351: {
  5323                           ;pattern_fuction.c: 1352: PATTERN_WORK_TIME=165;
  5324  050B  30A5               	movlw	165
  5325  050C  2D30               	goto	L11
  5326  050D                     l16111:	
  5327                           ;pattern_fuction.c: 1353: }
  5328                           
  5329                           
  5330                           ;pattern_fuction.c: 1354: else
  5331                           ;pattern_fuction.c: 1355: if(Iced)
  5332  050D  083F               	movf	_Iced,w
  5333  050E  1903               	btfsc	3,2
  5334  050F  2D12               	goto	l16115
  5335                           
  5336                           ;pattern_fuction.c: 1356: {
  5337                           ;pattern_fuction.c: 1357: PATTERN_WORK_TIME=125;
  5338  0510  307D               	movlw	125
  5339  0511  2D30               	goto	L11
  5340  0512                     l16115:	
  5341                           ;pattern_fuction.c: 1358: }
  5342                           
  5343                           
  5344                           ;pattern_fuction.c: 1359: else
  5345                           ;pattern_fuction.c: 1360: if(Tea)
  5346  0512  0856               	movf	_Tea,w
  5347  0513  1903               	btfsc	3,2
  5348  0514  2D3C               	goto	l16137
  5349                           
  5350                           ;pattern_fuction.c: 1361: {
  5351                           ;pattern_fuction.c: 1362: PATTERN_WORK_TIME=170;
  5352  0515  30AA               	movlw	170
  5353  0516  2D30               	goto	L11
  5354  0517                     l16119:	
  5355                           
  5356                           ;pattern_fuction.c: 1365: else
  5357                           ;pattern_fuction.c: 1366: if(_420_z)
  5358  0517  085B               	movf	__420_z,w
  5359  0518  1903               	btfsc	3,2
  5360  0519  2D3C               	goto	l16137
  5361                           
  5362                           ;pattern_fuction.c: 1367: {
  5363                           ;pattern_fuction.c: 1368: Solenoid_Work_Time=45;
  5364  051A  302D               	movlw	45
  5365  051B  1683               	bsf	3,5	;RP0=1, select bank1
  5366  051C  00C9               	movwf	_Solenoid_Work_Time^(0+128)
  5367  051D  300A               	movlw	10
  5368  051E  01CA               	clrf	(_Solenoid_Work_Time+1)^(0+128)
  5369                           
  5370                           ;pattern_fuction.c: 1369: Solenoid_Stop_Time=10;
  5371  051F  00C7               	movwf	_Solenoid_Stop_Time^(0+128)
  5372  0520  01C8               	clrf	(_Solenoid_Stop_Time+1)^(0+128)
  5373                           
  5374                           ;pattern_fuction.c: 1370: if(Regular)
  5375  0521  1283               	bcf	3,5	;RP0=0, select bank0
  5376  0522  0852               	movf	_Regular,w
  5377  0523  1903               	btfsc	3,2
  5378  0524  2D27               	goto	l16125
  5379                           
  5380                           ;pattern_fuction.c: 1371: {
  5381                           ;pattern_fuction.c: 1372: PATTERN_WORK_TIME=305;
  5382  0525  3031               	movlw	49
  5383  0526  2D38               	goto	L12
  5384  0527                     l16125:	
  5385                           ;pattern_fuction.c: 1373: }
  5386                           
  5387                           
  5388                           ;pattern_fuction.c: 1374: else
  5389                           ;pattern_fuction.c: 1375: if(Bold)
  5390  0527  083B               	movf	_Bold,w
  5391  0528  1903               	btfsc	3,2
  5392  0529  2D2C               	goto	l16129
  5393                           
  5394                           ;pattern_fuction.c: 1376: {
  5395                           ;pattern_fuction.c: 1377: PATTERN_WORK_TIME=365;
  5396  052A  306D               	movlw	109
  5397  052B  2D38               	goto	L12
  5398  052C                     l16129:	
  5399                           ;pattern_fuction.c: 1378: }
  5400                           
  5401                           
  5402                           ;pattern_fuction.c: 1379: else
  5403                           ;pattern_fuction.c: 1380: if(Iced)
  5404  052C  083F               	movf	_Iced,w
  5405  052D  1903               	btfsc	3,2
  5406  052E  2D34               	goto	l16133
  5407                           
  5408                           ;pattern_fuction.c: 1381: {
  5409                           ;pattern_fuction.c: 1382: PATTERN_WORK_TIME=195;
  5410  052F  30C3               	movlw	195
  5411  0530                     L11:	
  5412  0530  1683               	bsf	3,5	;RP0=1, select bank1
  5413  0531  00B9               	movwf	_PATTERN_WORK_TIME^(0+128)
  5414  0532  01BA               	clrf	(_PATTERN_WORK_TIME+1)^(0+128)
  5415                           
  5416                           ;pattern_fuction.c: 1383: }
  5417  0533  2D3C               	goto	l16137
  5418  0534                     l16133:	
  5419                           
  5420                           ;pattern_fuction.c: 1384: else
  5421                           ;pattern_fuction.c: 1385: if(Tea)
  5422  0534  0856               	movf	_Tea,w
  5423  0535  1903               	btfsc	3,2
  5424  0536  2D3C               	goto	l16137
  5425                           
  5426                           ;pattern_fuction.c: 1386: {
  5427                           ;pattern_fuction.c: 1387: PATTERN_WORK_TIME=330;
  5428  0537  304A               	movlw	74
  5429  0538                     L12:	
  5430  0538  1683               	bsf	3,5	;RP0=1, select bank1
  5431  0539  00B9               	movwf	_PATTERN_WORK_TIME^(0+128)
  5432  053A  3001               	movlw	1
  5433  053B  00BA               	movwf	(_PATTERN_WORK_TIME^(0+128)+1)
  5434  053C                     l16137:	
  5435                           
  5436                           ;pattern_fuction.c: 1388: }
  5437                           ;pattern_fuction.c: 1389: }
  5438                           ;pattern_fuction.c: 1393: Pattern_Work_State=1;
  5439  053C  1683               	bsf	3,5	;RP0=1, select bank1
  5440  053D  01EA               	clrf	_Pattern_Work_State^(0+128)
  5441  053E  0AEA               	incf	_Pattern_Work_State^(0+128),f
  5442                           
  5443                           ;pattern_fuction.c: 1394: break;
  5444  053F  0008               	return
  5445  0540                     l5497:	
  5446                           ;pattern_fuction.c: 1396: case 1:
  5447                           
  5448                           
  5449                           ;pattern_fuction.c: 1397: HOT_MAJOR_State=1;
  5450  0540  1283               	bcf	3,5	;RP0=0, select bank0
  5451  0541  01BD               	clrf	_HOT_MAJOR_State
  5452  0542  0ABD               	incf	_HOT_MAJOR_State,f
  5453                           
  5454                           ;pattern_fuction.c: 1398: RC0=1;
  5455  0543  1407               	bsf	7,0
  5456                           
  5457                           ;pattern_fuction.c: 1399: Solenoid_State=0;
  5458  0544  01D4               	clrf	_Solenoid_State
  5459                           
  5460                           ;pattern_fuction.c: 1401: if(Temperature_Dat>=Water_Temp)
  5461  0545  2727  120A  118A   	fcall	PL31	;call to abstracted procedure
  5462  0548  1C03               	skipc
  5463  0549  0008               	return
  5464                           
  5465                           ;pattern_fuction.c: 1402: {
  5466                           ;pattern_fuction.c: 1403: Pattern_Work_State=2;
  5467  054A  3002               	movlw	2
  5468  054B  1683               	bsf	3,5	;RP0=1, select bank1
  5469  054C  00EA               	movwf	_Pattern_Work_State^(0+128)
  5470                           
  5471                           ;pattern_fuction.c: 1404: Solenoid_State=2;
  5472  054D  1283               	bcf	3,5	;RP0=0, select bank0
  5473  054E  00D4               	movwf	_Solenoid_State
  5474  054F  0008               	return
  5475  0550                     l16145:	
  5476                           
  5477                           ;pattern_fuction.c: 1409: if(Temperature_Dat>=Water_Temp)
  5478  0550  1283               	bcf	3,5	;RP0=0, select bank0
  5479  0551  2727  120A  118A   	fcall	PL31	;call to abstracted procedure
  5480                           
  5481                           ;pattern_fuction.c: 1410: {
  5482                           ;pattern_fuction.c: 1411: HOT_MAJOR_State=0;
  5483  0554  01BD               	clrf	_HOT_MAJOR_State
  5484  0555  1C03               	skipc
  5485                           
  5486                           ;pattern_fuction.c: 1413: else
  5487                           ;pattern_fuction.c: 1414: {
  5488                           ;pattern_fuction.c: 1415: HOT_MAJOR_State=1;
  5489                           
  5490                           ;pattern_fuction.c: 1412: }
  5491  0556  0ABD               	incf	_HOT_MAJOR_State,f
  5492                           
  5493                           ;pattern_fuction.c: 1416: }
  5494                           ;pattern_fuction.c: 1419: if(!Tea)
  5495  0557  08D6               	movf	_Tea,f
  5496  0558  1D03               	skipz
  5497  0559  2D87               	goto	l16167
  5498                           
  5499                           ;pattern_fuction.c: 1420: {
  5500                           ;pattern_fuction.c: 1421: if(Solenoid_ON_Time>=Solenoid_Work_Time)
  5501  055A  1683               	bsf	3,5	;RP0=1, select bank1
  5502  055B  084A               	movf	(_Solenoid_Work_Time+1)^(0+128),w
  5503  055C  0244               	subwf	(_Solenoid_ON_Time+1)^(0+128),w
  5504  055D  1D03               	skipz
  5505  055E  2D61               	goto	u10625
  5506  055F  0849               	movf	_Solenoid_Work_Time^(0+128),w
  5507  0560  0243               	subwf	_Solenoid_ON_Time^(0+128),w
  5508  0561                     u10625:	
  5509  0561  1C03               	skipc
  5510  0562  2D66               	goto	l5503
  5511                           
  5512                           ;pattern_fuction.c: 1422: Solenoid_State=3;
  5513  0563  3003               	movlw	3
  5514  0564  1283               	bcf	3,5	;RP0=0, select bank0
  5515  0565  00D4               	movwf	_Solenoid_State
  5516  0566                     l5503:	
  5517                           
  5518                           ;pattern_fuction.c: 1424: if(Solenoid_OFF_Time>=Solenoid_Stop_Time)
  5519  0566  1683               	bsf	3,5	;RP0=1, select bank1
  5520  0567  0848               	movf	(_Solenoid_Stop_Time+1)^(0+128),w
  5521  0568  0240               	subwf	(_Solenoid_OFF_Time+1)^(0+128),w
  5522  0569  1D03               	skipz
  5523  056A  2D6D               	goto	u10635
  5524  056B  0847               	movf	_Solenoid_Stop_Time^(0+128),w
  5525  056C  023F               	subwf	_Solenoid_OFF_Time^(0+128),w
  5526  056D                     u10635:	
  5527  056D  1C03               	skipc
  5528  056E  2D90               	goto	l16171
  5529                           
  5530                           ;pattern_fuction.c: 1425: if(++Pattern_Work_Times>=250)
  5531  056F  30FA               	movlw	250
  5532  0570  0AEB               	incf	_Pattern_Work_Times^(0+128),f
  5533  0571  026B               	subwf	_Pattern_Work_Times^(0+128),w
  5534  0572  1C03               	skipc
  5535  0573  2D90               	goto	l16171
  5536                           
  5537                           ;pattern_fuction.c: 1426: {
  5538                           ;pattern_fuction.c: 1427: Solenoid_State=1;
  5539  0574  1283               	bcf	3,5	;RP0=0, select bank0
  5540  0575  01D4               	clrf	_Solenoid_State
  5541  0576  0AD4               	incf	_Solenoid_State,f
  5542                           
  5543                           ;pattern_fuction.c: 1428: Pattern_Work_Times=0;
  5544  0577  1683               	bsf	3,5	;RP0=1, select bank1
  5545  0578  01EB               	clrf	_Pattern_Work_Times^(0+128)
  5546                           
  5547                           ;pattern_fuction.c: 1429: Pattern_Work_Time++;
  5548  0579  0ABD               	incf	_Pattern_Work_Time^(0+128),f
  5549  057A  1903               	skipnz
  5550  057B  0ABE               	incf	(_Pattern_Work_Time+1)^(0+128),f
  5551                           
  5552                           ;pattern_fuction.c: 1430: if(Pattern_Work_Time>=PATTERN_WORK_TIME)
  5553  057C  083A               	movf	(_PATTERN_WORK_TIME+1)^(0+128),w
  5554  057D  023E               	subwf	(_Pattern_Work_Time+1)^(0+128),w
  5555  057E  1D03               	skipz
  5556  057F  2D82               	goto	u10655
  5557  0580  0839               	movf	_PATTERN_WORK_TIME^(0+128),w
  5558  0581  023D               	subwf	_Pattern_Work_Time^(0+128),w
  5559  0582                     u10655:	
  5560  0582  1C03               	skipc
  5561  0583  2D90               	goto	l16171
  5562  0584                     l16165:	
  5563                           
  5564                           ;pattern_fuction.c: 1431: Pattern_Work_State=3;
  5565  0584  3003               	movlw	3
  5566  0585  00EA               	movwf	_Pattern_Work_State^(0+128)
  5567  0586  2D90               	goto	l16171
  5568  0587                     l16167:	
  5569                           ;pattern_fuction.c: 1432: }
  5570                           ;pattern_fuction.c: 1434: }
  5571                           
  5572                           
  5573                           ;pattern_fuction.c: 1435: else
  5574                           ;pattern_fuction.c: 1436: {
  5575                           ;pattern_fuction.c: 1437: if(Solenoid_ON_Time>=PATTERN_WORK_TIME)
  5576  0587  1683               	bsf	3,5	;RP0=1, select bank1
  5577  0588  083A               	movf	(_PATTERN_WORK_TIME+1)^(0+128),w
  5578  0589  0244               	subwf	(_Solenoid_ON_Time+1)^(0+128),w
  5579  058A  1D03               	skipz
  5580  058B  2D8E               	goto	u10665
  5581  058C  0839               	movf	_PATTERN_WORK_TIME^(0+128),w
  5582  058D  0243               	subwf	_Solenoid_ON_Time^(0+128),w
  5583  058E                     u10665:	
  5584  058E  1803               	btfsc	3,0
  5585  058F  2D84               	goto	l16165
  5586  0590                     l16171:	
  5587                           
  5588                           ;pattern_fuction.c: 1439: }
  5589                           ;pattern_fuction.c: 1440: RA7=1;
  5590  0590  1283               	bcf	3,5	;RP0=0, select bank0
  5591  0591  1785               	bsf	5,7
  5592                           
  5593                           ;pattern_fuction.c: 1441: break;
  5594  0592  0008               	return
  5595  0593                     l16173:	
  5596                           
  5597                           ;pattern_fuction.c: 1443: HOT_MAJOR_State=0;
  5598  0593  1283               	bcf	3,5	;RP0=0, select bank0
  5599  0594  3023               	movlw	35
  5600  0595  01BD               	clrf	_HOT_MAJOR_State
  5601                           
  5602                           ;pattern_fuction.c: 1445: ANNULUS_LIGHT_State=0;
  5603  0596  01B7               	clrf	_ANNULUS_LIGHT_State
  5604                           
  5605                           ;pattern_fuction.c: 1446: SHOW_LIGHT_State=0;
  5606  0597  01D3               	clrf	_SHOW_LIGHT_State
  5607                           
  5608                           ;pattern_fuction.c: 1448: Solenoid_State=0;
  5609  0598  01D4               	clrf	_Solenoid_State
  5610                           
  5611                           ;pattern_fuction.c: 1449: RA7=0;
  5612  0599  1385               	bcf	5,7
  5613                           
  5614                           ;pattern_fuction.c: 1455: if(WorkMinute>=35)
  5615  059A  0257               	subwf	_WorkMinute,w
  5616  059B  1C03               	skipc
  5617  059C  0008               	return
  5618                           
  5619                           ;pattern_fuction.c: 1456: Pattern_Work_State=4;
  5620  059D  3004               	movlw	4
  5621  059E  1683               	bsf	3,5	;RP0=1, select bank1
  5622  059F  00EA               	movwf	_Pattern_Work_State^(0+128)
  5623  05A0  0008               	return
  5624  05A1                     l16181:	
  5625                           
  5626                           ;pattern_fuction.c: 1461: Rbeep=6;
  5627  05A1  3006               	movlw	6
  5628  05A2  1283               	bcf	3,5	;RP0=0, select bank0
  5629  05A3  00D0               	movwf	_Rbeep
  5630                           
  5631                           ;pattern_fuction.c: 1462: Pattern_LED_Crt=5;
  5632  05A4  3005               	movlw	5
  5633  05A5  1683               	bsf	3,5	;RP0=1, select bank1
  5634  05A6  00BB               	movwf	_Pattern_LED_Crt^(0+128)
  5635  05A7  01BC               	clrf	(_Pattern_LED_Crt+1)^(0+128)
  5636                           
  5637                           ;pattern_fuction.c: 1463: Pattern_Work_State=5;
  5638  05A8  00EA               	movwf	_Pattern_Work_State^(0+128)
  5639                           
  5640                           ;pattern_fuction.c: 1464: break;
  5641  05A9  0008               	return
  5642  05AA                     l5512:	
  5643                           ;pattern_fuction.c: 1465: case 5:
  5644                           
  5645                           
  5646                           ;pattern_fuction.c: 1466: RC0=0;
  5647  05AA  1283               	bcf	3,5	;RP0=0, select bank0
  5648  05AB  1007               	bcf	7,0
  5649                           
  5650                           ;pattern_fuction.c: 1469: if(Start) Pattern_State=0;
  5651  05AC  0855               	movf	_Start,w
  5652  05AD  1903               	btfsc	3,2
  5653  05AE  0008               	return
  5654  05AF  1683               	bsf	3,5	;RP0=1, select bank1
  5655  05B0  01E9               	clrf	_Pattern_State^(0+128)
  5656  05B1  0008               	return
  5657  05B2                     l16189:	
  5658  05B2  1683               	bsf	3,5	;RP0=1, select bank1
  5659  05B3  086A               	movf	_Pattern_Work_State^(0+128),w
  5660                           
  5661                           ; Switch size 1, requested type "space"
  5662                           ; Number of cases is 6, Range of values is 0 to 5
  5663                           ; switch strategies available:
  5664                           ; Name         Instructions Cycles
  5665                           ; simple_byte           19    10 (average)
  5666                           ; direct_byte           26     8 (fixed)
  5667                           ; jumptable            260     6 (fixed)
  5668                           ; rangetable            10     6 (fixed)
  5669                           ; spacedrange           18     9 (fixed)
  5670                           ; locatedrange           6     3 (fixed)
  5671                           ;	Chosen strategy is simple_byte
  5672  05B4  3A00               	xorlw	0	; case 0
  5673  05B5  1903               	skipnz
  5674  05B6  2CCC               	goto	l16065
  5675  05B7  3A01               	xorlw	1	; case 1
  5676  05B8  1903               	skipnz
  5677  05B9  2D40               	goto	l5497
  5678  05BA  3A03               	xorlw	3	; case 2
  5679  05BB  1903               	skipnz
  5680  05BC  2D50               	goto	l16145
  5681  05BD  3A01               	xorlw	1	; case 3
  5682  05BE  1903               	skipnz
  5683  05BF  2D93               	goto	l16173
  5684  05C0  3A07               	xorlw	7	; case 4
  5685  05C1  1903               	skipnz
  5686  05C2  2DA1               	goto	l16181
  5687  05C3  3A01               	xorlw	1	; case 5
  5688  05C4  1903               	skipnz
  5689  05C5  2DAA               	goto	l5512
  5690  05C6  2DEE               	goto	l5514
  5691  05C7                     l16193:	
  5692  05C7  1683               	bsf	3,5	;RP0=1, select bank1
  5693  05C8  0869               	movf	_Pattern_State^(0+128),w
  5694                           
  5695                           ; Switch size 1, requested type "space"
  5696                           ; Number of cases is 12, Range of values is 0 to 11
  5697                           ; switch strategies available:
  5698                           ; Name         Instructions Cycles
  5699                           ; simple_byte           37    19 (average)
  5700                           ; direct_byte           44     8 (fixed)
  5701                           ; jumptable            260     6 (fixed)
  5702                           ; rangetable            16     6 (fixed)
  5703                           ; spacedrange           30     9 (fixed)
  5704                           ; locatedrange          12     3 (fixed)
  5705                           ;	Chosen strategy is simple_byte
  5706  05C9  3A00               	xorlw	0	; case 0
  5707  05CA  1903               	skipnz
  5708  05CB  2817               	goto	l5360
  5709  05CC  3A01               	xorlw	1	; case 1
  5710  05CD  1903               	skipnz
  5711  05CE  2875               	goto	l15531
  5712  05CF  3A03               	xorlw	3	; case 2
  5713  05D0  1903               	skipnz
  5714  05D1  289D               	goto	l15555
  5715  05D2  3A01               	xorlw	1	; case 3
  5716  05D3  1903               	skipnz
  5717  05D4  28A4               	goto	l15559
  5718  05D5  3A07               	xorlw	7	; case 4
  5719  05D6  1903               	skipnz
  5720  05D7  28C1               	goto	l15571
  5721  05D8  3A01               	xorlw	1	; case 5
  5722  05D9  1903               	skipnz
  5723  05DA  28D6               	goto	l15601
  5724  05DB  3A03               	xorlw	3	; case 6
  5725  05DC  1903               	skipnz
  5726  05DD  2AE4               	goto	l5425
  5727  05DE  3A01               	xorlw	1	; case 7
  5728  05DF  1903               	skipnz
  5729  05E0  2AF2               	goto	l15823
  5730  05E1  3A0F               	xorlw	15	; case 8
  5731  05E2  1903               	skipnz
  5732  05E3  2B8A               	goto	l15889
  5733  05E4  3A01               	xorlw	1	; case 9
  5734  05E5  1903               	skipnz
  5735  05E6  2B8D               	goto	l15891
  5736  05E7  3A03               	xorlw	3	; case 10
  5737  05E8  1903               	skipnz
  5738  05E9  2C27               	goto	l5450
  5739  05EA  3A01               	xorlw	1	; case 11
  5740  05EB  1903               	skipnz
  5741  05EC  2C54               	goto	l16013
  5742  05ED  2DEE               	goto	l5514
  5743  05EE                     l5514:	
  5744  05EE  0008               	return
  5745  05EF                     __end_of_Pattern:	
  5746  05EF                     __ptext1282:	
  5747 ;; =============== function ___awmod ends ============
  5748                           
  5749                           
  5750 ;; *************** function ___awdiv *****************
  5751 ;; Defined at:
  5752 ;;		line 5 in file "E:\BBA'DATA\CMS_ID~1.32_\data\sources\awdiv.c"
  5753 ;; Parameters:    Size  Location     Type
  5754 ;;  divisor         2    0[BANK0 ] int 
  5755 ;;  dividend        2    2[BANK0 ] int 
  5756 ;; Auto vars:     Size  Location     Type
  5757 ;;  quotient        2    6[BANK0 ] int 
  5758 ;;  sign            1    5[BANK0 ] unsigned char 
  5759 ;;  counter         1    4[BANK0 ] unsigned char 
  5760 ;; Return value:  Size  Location     Type
  5761 ;;                  2    0[BANK0 ] int 
  5762 ;; Registers used:
  5763 ;;		wreg, status,2, status,0
  5764 ;; Tracked objects:
  5765 ;;		On entry : 60/0
  5766 ;;		On exit  : 60/0
  5767 ;;		Unchanged: FFF9F/0
  5768 ;; Data sizes:     COMMON   BANK0   BANK1   BANK3   BANK2
  5769 ;;      Params:         0       4       0       0       0
  5770 ;;      Locals:         0       4       0       0       0
  5771 ;;      Temps:          0       0       0       0       0
  5772 ;;      Totals:         0       8       0       0       0
  5773 ;;Total ram usage:        8 bytes
  5774 ;; Hardware stack levels used:    1
  5775 ;; Hardware stack levels required when called:    3
  5776 ;; This function calls:
  5777 ;;		Nothing
  5778 ;; This function is called by:
  5779 ;;		_Pattern
  5780 ;; This function uses a non-reentrant model
  5781 ;;
  5782  05EF                     ___awdiv:	
  5783                           
  5784                           ; Regs used in ___awdiv: [wreg+status,2+status,0]
  5785  05EF  01E2               	clrf	___awdiv@sign
  5786  05F0  1FDE               	btfss	___awdiv@divisor+1,7
  5787  05F1  2DF9               	goto	l14987
  5788  05F2  09DD               	comf	___awdiv@divisor,f
  5789  05F3  09DE               	comf	___awdiv@divisor+1,f
  5790  05F4  0ADD               	incf	___awdiv@divisor,f
  5791  05F5  1903               	skipnz
  5792  05F6  0ADE               	incf	___awdiv@divisor+1,f
  5793  05F7  01E2               	clrf	___awdiv@sign
  5794  05F8  0AE2               	incf	___awdiv@sign,f
  5795  05F9                     l14987:	
  5796  05F9  1FE0               	btfss	___awdiv@dividend+1,7
  5797  05FA  2E02               	goto	l14993
  5798  05FB  09DF               	comf	___awdiv@dividend,f
  5799  05FC  09E0               	comf	___awdiv@dividend+1,f
  5800  05FD  0ADF               	incf	___awdiv@dividend,f
  5801  05FE  1903               	skipnz
  5802  05FF  0AE0               	incf	___awdiv@dividend+1,f
  5803  0600  3001               	movlw	1
  5804  0601  06E2               	xorwf	___awdiv@sign,f
  5805  0602                     l14993:	
  5806  0602  01E3               	clrf	___awdiv@quotient
  5807  0603  01E4               	clrf	___awdiv@quotient+1
  5808  0604  085E               	movf	___awdiv@divisor+1,w
  5809  0605  045D               	iorwf	___awdiv@divisor,w
  5810  0606  1903               	skipnz
  5811  0607  2E27               	goto	l15015
  5812  0608  01E1               	clrf	___awdiv@counter
  5813  0609                     L28:	
  5814  0609  0AE1               	incf	___awdiv@counter,f
  5815  060A  1BDE               	btfsc	___awdiv@divisor+1,7
  5816  060B  2E10               	goto	l15003
  5817  060C  1003               	clrc
  5818  060D  0DDD               	rlf	___awdiv@divisor,f
  5819  060E  0DDE               	rlf	___awdiv@divisor+1,f
  5820  060F  2E09               	goto	L28
  5821  0610                     l15003:	
  5822  0610  1003               	clrc
  5823  0611  0DE3               	rlf	___awdiv@quotient,f
  5824  0612  0DE4               	rlf	___awdiv@quotient+1,f
  5825  0613  085E               	movf	___awdiv@divisor+1,w
  5826  0614  0260               	subwf	___awdiv@dividend+1,w
  5827  0615  1D03               	skipz
  5828  0616  2E19               	goto	u9185
  5829  0617  085D               	movf	___awdiv@divisor,w
  5830  0618  025F               	subwf	___awdiv@dividend,w
  5831  0619                     u9185:	
  5832  0619  1C03               	skipc
  5833  061A  2E23               	goto	L29
  5834  061B  085D               	movf	___awdiv@divisor,w
  5835  061C  02DF               	subwf	___awdiv@dividend,f
  5836  061D  085E               	movf	___awdiv@divisor+1,w
  5837  061E  1C03               	skipc
  5838  061F  03E0               	decf	___awdiv@dividend+1,f
  5839  0620  02E0               	subwf	___awdiv@dividend+1,f
  5840  0621  1463               	bsf	___awdiv@quotient,0
  5841  0622  1003               	clrc
  5842  0623                     L29:	
  5843  0623  0CDE               	rrf	___awdiv@divisor+1,f
  5844  0624  0CDD               	rrf	___awdiv@divisor,f
  5845  0625  0BE1               	decfsz	___awdiv@counter,f
  5846  0626  2E10               	goto	l15003
  5847  0627                     l15015:	
  5848  0627  0862               	movf	___awdiv@sign,w
  5849  0628  1903               	btfsc	3,2
  5850  0629  2E2F               	goto	l15019
  5851  062A  09E3               	comf	___awdiv@quotient,f
  5852  062B  09E4               	comf	___awdiv@quotient+1,f
  5853  062C  0AE3               	incf	___awdiv@quotient,f
  5854  062D  1903               	skipnz
  5855  062E  0AE4               	incf	___awdiv@quotient+1,f
  5856  062F                     l15019:	
  5857  062F  0864               	movf	___awdiv@quotient+1,w
  5858  0630  00DE               	movwf	?___awdiv+1
  5859  0631  0863               	movf	___awdiv@quotient,w
  5860  0632  00DD               	movwf	?___awdiv
  5861  0633  0008               	return
  5862  0634                     __end_of___awdiv:	
  5863  0634                     __ptext1281:	
  5864 ;; =============== function _Init_System ends ============
  5865                           
  5866                           
  5867 ;; *************** function ___awmod *****************
  5868 ;; Defined at:
  5869 ;;		line 5 in file "E:\BBA'DATA\CMS_ID~1.32_\data\sources\awmod.c"
  5870 ;; Parameters:    Size  Location     Type
  5871 ;;  divisor         2    0[BANK0 ] int 
  5872 ;;  dividend        2    2[BANK0 ] int 
  5873 ;; Auto vars:     Size  Location     Type
  5874 ;;  sign            1    5[BANK0 ] unsigned char 
  5875 ;;  counter         1    4[BANK0 ] unsigned char 
  5876 ;; Return value:  Size  Location     Type
  5877 ;;                  2    0[BANK0 ] int 
  5878 ;; Registers used:
  5879 ;;		wreg, status,2, status,0
  5880 ;; Tracked objects:
  5881 ;;		On entry : 60/0
  5882 ;;		On exit  : 60/0
  5883 ;;		Unchanged: FFF9F/0
  5884 ;; Data sizes:     COMMON   BANK0   BANK1   BANK3   BANK2
  5885 ;;      Params:         0       4       0       0       0
  5886 ;;      Locals:         0       2       0       0       0
  5887 ;;      Temps:          0       0       0       0       0
  5888 ;;      Totals:         0       6       0       0       0
  5889 ;;Total ram usage:        6 bytes
  5890 ;; Hardware stack levels used:    1
  5891 ;; Hardware stack levels required when called:    3
  5892 ;; This function calls:
  5893 ;;		Nothing
  5894 ;; This function is called by:
  5895 ;;		_Hex_To_Temp
  5896 ;;		_Pattern
  5897 ;; This function uses a non-reentrant model
  5898 ;;
  5899  0634                     ___awmod:	
  5900                           
  5901                           ; Regs used in ___awmod: [wreg+status,2+status,0]
  5902  0634  01E2               	clrf	___awmod@sign
  5903  0635  1FE0               	btfss	___awmod@dividend+1,7
  5904  0636  2E3E               	goto	l15031
  5905  0637  09DF               	comf	___awmod@dividend,f
  5906  0638  09E0               	comf	___awmod@dividend+1,f
  5907  0639  0ADF               	incf	___awmod@dividend,f
  5908  063A  1903               	skipnz
  5909  063B  0AE0               	incf	___awmod@dividend+1,f
  5910  063C  01E2               	clrf	___awmod@sign
  5911  063D  0AE2               	incf	___awmod@sign,f
  5912  063E                     l15031:	
  5913  063E  1FDE               	btfss	___awmod@divisor+1,7
  5914  063F  2E45               	goto	l15035
  5915  0640  09DD               	comf	___awmod@divisor,f
  5916  0641  09DE               	comf	___awmod@divisor+1,f
  5917  0642  0ADD               	incf	___awmod@divisor,f
  5918  0643  1903               	skipnz
  5919  0644  0ADE               	incf	___awmod@divisor+1,f
  5920  0645                     l15035:	
  5921  0645  085E               	movf	___awmod@divisor+1,w
  5922  0646  045D               	iorwf	___awmod@divisor,w
  5923  0647  1903               	skipnz
  5924  0648  2E64               	goto	l15051
  5925  0649  01E1               	clrf	___awmod@counter
  5926  064A                     L26:	
  5927  064A  0AE1               	incf	___awmod@counter,f
  5928  064B  1BDE               	btfsc	___awmod@divisor+1,7
  5929  064C  2E51               	goto	l15043
  5930  064D  1003               	clrc
  5931  064E  0DDD               	rlf	___awmod@divisor,f
  5932  064F  0DDE               	rlf	___awmod@divisor+1,f
  5933  0650  2E4A               	goto	L26
  5934  0651                     l15043:	
  5935  0651  085E               	movf	___awmod@divisor+1,w
  5936  0652  0260               	subwf	___awmod@dividend+1,w
  5937  0653  1D03               	skipz
  5938  0654  2E57               	goto	u9255
  5939  0655  085D               	movf	___awmod@divisor,w
  5940  0656  025F               	subwf	___awmod@dividend,w
  5941  0657                     u9255:	
  5942  0657  1C03               	skipc
  5943  0658  2E60               	goto	L27
  5944  0659  085D               	movf	___awmod@divisor,w
  5945  065A  02DF               	subwf	___awmod@dividend,f
  5946  065B  085E               	movf	___awmod@divisor+1,w
  5947  065C  1C03               	skipc
  5948  065D  03E0               	decf	___awmod@dividend+1,f
  5949  065E  02E0               	subwf	___awmod@dividend+1,f
  5950  065F  1003               	clrc
  5951  0660                     L27:	
  5952  0660  0CDE               	rrf	___awmod@divisor+1,f
  5953  0661  0CDD               	rrf	___awmod@divisor,f
  5954  0662  0BE1               	decfsz	___awmod@counter,f
  5955  0663  2E51               	goto	l15043
  5956  0664                     l15051:	
  5957  0664  0862               	movf	___awmod@sign,w
  5958  0665  1903               	btfsc	3,2
  5959  0666  2E6C               	goto	l15055
  5960  0667  09DF               	comf	___awmod@dividend,f
  5961  0668  09E0               	comf	___awmod@dividend+1,f
  5962  0669  0ADF               	incf	___awmod@dividend,f
  5963  066A  1903               	skipnz
  5964  066B  0AE0               	incf	___awmod@dividend+1,f
  5965  066C                     l15055:	
  5966  066C  0860               	movf	___awmod@dividend+1,w
  5967  066D  00DE               	movwf	?___awmod+1
  5968  066E  085F               	movf	___awmod@dividend,w
  5969  066F  00DD               	movwf	?___awmod
  5970  0670  0008               	return
  5971  0671                     __end_of___awmod:	
  5972  0671                     __ptext1284:	
  5973 ;; =============== function ___lbmod ends ============
  5974                           
  5975                           
  5976 ;; *************** function ___lbdiv *****************
  5977 ;; Defined at:
  5978 ;;		line 5 in file "E:\BBA'DATA\CMS_ID~1.32_\data\sources\lbdiv.c"
  5979 ;; Parameters:    Size  Location     Type
  5980 ;;  dividend        1    wreg     unsigned char 
  5981 ;;  divisor         1    0[BANK0 ] unsigned char 
  5982 ;; Auto vars:     Size  Location     Type
  5983 ;;  dividend        1    1[BANK0 ] unsigned char 
  5984 ;;  quotient        1    3[BANK0 ] unsigned char 
  5985 ;;  counter         1    2[BANK0 ] unsigned char 
  5986 ;; Return value:  Size  Location     Type
  5987 ;;                  1    wreg      unsigned char 
  5988 ;; Registers used:
  5989 ;;		wreg, status,2, status,0
  5990 ;; Tracked objects:
  5991 ;;		On entry : 60/0
  5992 ;;		On exit  : 60/0
  5993 ;;		Unchanged: FFF9F/0
  5994 ;; Data sizes:     COMMON   BANK0   BANK1   BANK3   BANK2
  5995 ;;      Params:         0       1       0       0       0
  5996 ;;      Locals:         0       3       0       0       0
  5997 ;;      Temps:          0       0       0       0       0
  5998 ;;      Totals:         0       4       0       0       0
  5999 ;;Total ram usage:        4 bytes
  6000 ;; Hardware stack levels used:    1
  6001 ;; Hardware stack levels required when called:    3
  6002 ;; This function calls:
  6003 ;;		Nothing
  6004 ;; This function is called by:
  6005 ;;		_Hex_To_Temp
  6006 ;;		_Pattern
  6007 ;; This function uses a non-reentrant model
  6008 ;;
  6009  0671                     ___lbdiv:	
  6010                           
  6011                           ; Regs used in ___lbdiv: [wreg+status,2+status,0]
  6012                           ;___lbdiv@dividend stored from wreg
  6013  0671  00DE               	movwf	___lbdiv@dividend
  6014  0672  01E0               	clrf	___lbdiv@quotient
  6015  0673  085D               	movf	___lbdiv@divisor,w
  6016  0674  1903               	btfsc	3,2
  6017  0675  2E8A               	goto	l14975
  6018  0676  01DF               	clrf	___lbdiv@counter
  6019  0677                     l14961:	
  6020  0677  0ADF               	incf	___lbdiv@counter,f
  6021  0678  1BDD               	btfsc	___lbdiv@divisor,7
  6022  0679  2E7D               	goto	l7979
  6023  067A  1003               	clrc
  6024  067B  0DDD               	rlf	___lbdiv@divisor,f
  6025  067C  2E77               	goto	l14961
  6026  067D                     l7979:	
  6027  067D  1003               	clrc
  6028  067E  0DE0               	rlf	___lbdiv@quotient,f
  6029  067F  085D               	movf	___lbdiv@divisor,w
  6030  0680  025E               	subwf	___lbdiv@dividend,w
  6031  0681  1C03               	skipc
  6032  0682  2E87               	goto	L31
  6033  0683  085D               	movf	___lbdiv@divisor,w
  6034  0684  02DE               	subwf	___lbdiv@dividend,f
  6035  0685  1460               	bsf	___lbdiv@quotient,0
  6036  0686  1003               	clrc
  6037  0687                     L31:	
  6038  0687  0CDD               	rrf	___lbdiv@divisor,f
  6039  0688  0BDF               	decfsz	___lbdiv@counter,f
  6040  0689  2E7D               	goto	l7979
  6041  068A                     l14975:	
  6042  068A  0860               	movf	___lbdiv@quotient,w
  6043  068B  0008               	return
  6044  068C                     __end_of___lbdiv:	
  6045  068C                     __ptext1283:	
  6046 ;; =============== function ___awdiv ends ============
  6047                           
  6048                           
  6049 ;; *************** function ___lbmod *****************
  6050 ;; Defined at:
  6051 ;;		line 5 in file "E:\BBA'DATA\CMS_ID~1.32_\data\sources\lbmod.c"
  6052 ;; Parameters:    Size  Location     Type
  6053 ;;  dividend        1    wreg     unsigned char 
  6054 ;;  divisor         1    0[BANK0 ] unsigned char 
  6055 ;; Auto vars:     Size  Location     Type
  6056 ;;  dividend        1    2[BANK0 ] unsigned char 
  6057 ;;  rem             1    4[BANK0 ] unsigned char 
  6058 ;;  counter         1    3[BANK0 ] unsigned char 
  6059 ;; Return value:  Size  Location     Type
  6060 ;;                  1    wreg      unsigned char 
  6061 ;; Registers used:
  6062 ;;		wreg, status,2, status,0
  6063 ;; Tracked objects:
  6064 ;;		On entry : 60/0
  6065 ;;		On exit  : 60/0
  6066 ;;		Unchanged: FFF9F/0
  6067 ;; Data sizes:     COMMON   BANK0   BANK1   BANK3   BANK2
  6068 ;;      Params:         0       1       0       0       0
  6069 ;;      Locals:         0       3       0       0       0
  6070 ;;      Temps:          0       1       0       0       0
  6071 ;;      Totals:         0       5       0       0       0
  6072 ;;Total ram usage:        5 bytes
  6073 ;; Hardware stack levels used:    1
  6074 ;; Hardware stack levels required when called:    3
  6075 ;; This function calls:
  6076 ;;		Nothing
  6077 ;; This function is called by:
  6078 ;;		_Pattern
  6079 ;; This function uses a non-reentrant model
  6080 ;;
  6081  068C                     ___lbmod:	
  6082                           
  6083                           ; Regs used in ___lbmod: [wreg+status,2+status,0]
  6084                           ;___lbmod@dividend stored from wreg
  6085  068C  00DF               	movwf	___lbmod@dividend
  6086  068D  3008               	movlw	8
  6087  068E  00E0               	movwf	___lbmod@counter
  6088  068F  01E1               	clrf	___lbmod@rem
  6089  0690                     l12553:	
  6090  0690  085F               	movf	___lbmod@dividend,w
  6091  0691  00DE               	movwf	??___lbmod
  6092  0692  3007               	movlw	7
  6093  0693  1003               	clrc
  6094  0694                     L30:	
  6095  0694  0CDE               	rrf	??___lbmod,f
  6096  0695  3EFF               	addlw	-1
  6097  0696  1003               	clrc
  6098  0697  1D03               	skipz
  6099  0698  2E94               	goto	L30
  6100  0699  0D61               	rlf	___lbmod@rem,w
  6101  069A  045E               	iorwf	??___lbmod,w
  6102  069B  00E1               	movwf	___lbmod@rem
  6103  069C  1003               	clrc
  6104  069D  0DDF               	rlf	___lbmod@dividend,f
  6105  069E  085D               	movf	___lbmod@divisor,w
  6106  069F  0261               	subwf	___lbmod@rem,w
  6107  06A0  1C03               	skipc
  6108  06A1  2EA4               	goto	l12561
  6109  06A2  085D               	movf	___lbmod@divisor,w
  6110  06A3  02E1               	subwf	___lbmod@rem,f
  6111  06A4                     l12561:	
  6112  06A4  0BE0               	decfsz	___lbmod@counter,f
  6113  06A5  2E90               	goto	l12553
  6114  06A6  0861               	movf	___lbmod@rem,w
  6115  06A7  0008               	return
  6116  06A8                     __end_of___lbmod:	
  6117  06A8                     PL2:	
  6118  06A8  3EBA               	addlw	low (_LCDCode| (0+32768))
  6119  06A9  0084               	movwf	4
  6120  06AA  3091               	movlw	high (_LCDCode| (0+32768))
  6121  06AB  1803               	skipnc
  6122  06AC  3E01               	addlw	1
  6123  06AD  00FF               	movwf	127
  6124  06AE  0008               	return
  6125  06AF                     PL6:	
  6126  06AF  00DC               	movwf	_LCD_TIMER_Flash_Times^(0+128)
  6127  06B0  30FF               	movlw	255
  6128  06B1  01DB               	clrf	_LCD_TEMP_Flash_Times^(0+128)
  6129  06B2  00D8               	movwf	_LCD_HOUR_Flash_Times^(0+128)
  6130  06B3  00D9               	movwf	_LCD_MINUTE_Flash_Times^(0+128)
  6131  06B4  00D6               	movwf	_LCD_COL_Flash_Times^(0+128)
  6132  06B5  1283               	bcf	3,5	;RP0=0, select bank0
  6133  06B6  10A4               	bcf	_display+4,1	;volatile
  6134  06B7  11A4               	bcf	_display+4,3	;volatile
  6135  06B8  300A               	movlw	10
  6136  06B9  00DD               	movwf	?___awdiv
  6137  06BA  01DE               	clrf	?___awdiv+1
  6138  06BB  086F               	movf	_Water_Temp,w
  6139  06BC  00DF               	movwf	?___awdiv+2
  6140  06BD  01E0               	clrf	?___awdiv+3
  6141  06BE  0008               	return
  6142  06BF                     PL7:	
  6143  06BF  0ACB               	incf	_Time_Temp_Counter^(0+128),f
  6144  06C0  1903               	skipnz
  6145  06C1  0ACC               	incf	(_Time_Temp_Counter+1)^(0+128),f
  6146  06C2  3004               	movlw	4
  6147  06C3  024C               	subwf	(_Time_Temp_Counter+1)^(0+128),w
  6148  06C4  30E3               	movlw	227
  6149  06C5  1903               	skipnz
  6150  06C6  024B               	subwf	_Time_Temp_Counter^(0+128),w
  6151  06C7  1C03               	skipc
  6152  06C8  0008               	return
  6153  06C9  3080               	movlw	(0+1) shl (_Time_Temp_Dis& (0+7))
  6154  06CA  06F2               	xorwf	_Time_Temp_Dis/(0+8),f
  6155  06CB  01CB               	clrf	_Time_Temp_Counter^(0+128)
  6156  06CC  01CC               	clrf	(_Time_Temp_Counter+1)^(0+128)
  6157  06CD  0008               	return
  6158  06CE                     PL8:	
  6159  06CE  1683               	bsf	3,5	;RP0=1, select bank1
  6160  06CF  300A               	movlw	10
  6161  06D0  01CD               	clrf	_Timer_3S_Times^(0+128)
  6162  06D1  01CE               	clrf	(_Timer_3S_Times+1)^(0+128)
  6163  06D2  1171               	bcf	_Key_Add_3S_ON/(0+8),_Key_Add_3S_ON& (0+7)
  6164  06D3  13F1               	bcf	_Key_Reduce_3S_ON/(0+8),_Key_Reduce_3S_ON& (0+7)
  6165  06D4  1283               	bcf	3,5	;RP0=0, select bank0
  6166  06D5  00DD               	movwf	?___awdiv
  6167  06D6  01DE               	clrf	?___awdiv+1
  6168  06D7  0008               	return
  6169  06D8                     PL9:	
  6170  06D8  00A0               	movwf	_display	;volatile
  6171  06D9  300A               	movlw	10
  6172  06DA  00DD               	movwf	?___awmod
  6173  06DB  01DE               	clrf	?___awmod+1
  6174  06DC  083E               	movf	_Hour,w
  6175  06DD  00DF               	movwf	?___awmod+2
  6176  06DE  01E0               	clrf	?___awmod+3
  6177  06DF  0008               	return
  6178  06E0                     PL10:	
  6179  06E0  00A2               	movwf	_display+2	;volatile
  6180  06E1  300A               	movlw	10
  6181  06E2  00DD               	movwf	?___awmod
  6182  06E3  01DE               	clrf	?___awmod+1
  6183  06E4  084E               	movf	_Minute,w
  6184  06E5  00DF               	movwf	?___awmod+2
  6185  06E6  01E0               	clrf	?___awmod+3
  6186  06E7  0008               	return
  6187  06E8                     PL11:	
  6188  06E8  1683               	bsf	3,5	;RP0=1, select bank1
  6189  06E9  00C9               	movwf	_Solenoid_Work_Time^(0+128)
  6190  06EA  3005               	movlw	5
  6191  06EB  01CA               	clrf	(_Solenoid_Work_Time+1)^(0+128)
  6192  06EC  00C7               	movwf	_Solenoid_Stop_Time^(0+128)
  6193  06ED  01C8               	clrf	(_Solenoid_Stop_Time+1)^(0+128)
  6194  06EE  1283               	bcf	3,5	;RP0=0, select bank0
  6195  06EF  0852               	movf	_Regular,w
  6196  06F0  0008               	return
  6197  06F1                     PL15:	
  6198  06F1  10F2               	bcf	_Key_Regular_Lock/(0+8),_Key_Regular_Lock& (0+7)
  6199  06F2  1271               	bcf	_Key_Bold_Lock/(0+8),_Key_Bold_Lock& (0+7)
  6200  06F3  12F1               	bcf	_Key_Iced_Lock/(0+8),_Key_Iced_Lock& (0+7)
  6201  06F4  11F2               	bcf	_Key_Tea_Lock/(0+8),_Key_Tea_Lock& (0+7)
  6202  06F5  15F1               	bsf	_Key_Add_Lock/(0+8),_Key_Add_Lock& (0+7)
  6203  06F6  1472               	bsf	_Key_Reduce_Lock/(0+8),_Key_Reduce_Lock& (0+7)
  6204  06F7  10F1               	bcf	_Key_80_Z_Lock/(0+8),_Key_80_Z_Lock& (0+7)
  6205  06F8  1370               	bcf	_Key_120_Z_Lock/(0+8),_Key_120_Z_Lock& (0+7)
  6206  06F9  13F0               	bcf	_Key_210_Z_Lock/(0+8),_Key_210_Z_Lock& (0+7)
  6207  06FA  1071               	bcf	_Key_420_Z_Lock/(0+8),_Key_420_Z_Lock& (0+7)
  6208  06FB  0008               	return
  6209  06FC                     PL16:	
  6210  06FC  00A0               	movwf	_display	;volatile
  6211  06FD  300A               	movlw	10
  6212  06FE  00DD               	movwf	?___awmod
  6213  06FF  01DE               	clrf	?___awmod+1
  6214  0700  086F               	movf	_Water_Temp,w
  6215  0701  00DF               	movwf	?___awmod+2
  6216  0702  01E0               	clrf	?___awmod+3
  6217  0703  0008               	return
  6218  0704                     PL18:	
  6219  0704  0ACD               	incf	_Timer_3S_Times^(0+128),f
  6220  0705  1903               	skipnz
  6221  0706  0ACE               	incf	(_Timer_3S_Times+1)^(0+128),f
  6222  0707  3000               	movlw	0
  6223  0708  024E               	subwf	(_Timer_3S_Times+1)^(0+128),w
  6224  0709  3433               	retlw	51
  6225  070A                     PL19:	
  6226  070A  1283               	bcf	3,5	;RP0=0, select bank0
  6227  070B  00DD               	movwf	?___awdiv
  6228  070C  01DE               	clrf	?___awdiv+1
  6229  070D  084E               	movf	_Minute,w
  6230  070E  00DF               	movwf	?___awdiv+2
  6231  070F  01E0               	clrf	?___awdiv+3
  6232  0710  0008               	return
  6233  0711                     PL20:	
  6234  0711  300A               	movlw	10
  6235  0712  00DD               	movwf	?___awdiv
  6236  0713  01DE               	clrf	?___awdiv+1
  6237  0714  083E               	movf	_Hour,w
  6238  0715  00DF               	movwf	?___awdiv+2
  6239  0716  01E0               	clrf	?___awdiv+3
  6240  0717  0008               	return
  6241  0718                     PL25:	
  6242  0718  00A1               	movwf	_display+1	;volatile
  6243  0719  300A               	movlw	10
  6244  071A  00DD               	movwf	?___awdiv
  6245  071B  01DE               	clrf	?___awdiv+1
  6246  071C  084E               	movf	_Minute,w
  6247  071D  00DF               	movwf	?___awdiv+2
  6248  071E  01E0               	clrf	?___awdiv+3
  6249  071F  0008               	return
  6250  0720                     PL30:	
  6251  0720  1683               	bsf	3,5	;RP0=1, select bank1
  6252  0721  00A0               	movwf	_Display_Temp^(0+128)	;volatile
  6253  0722  300A               	movlw	10
  6254  0723  1283               	bcf	3,5	;RP0=0, select bank0
  6255  0724  00DD               	movwf	?___awmod
  6256  0725  01DE               	clrf	?___awmod+1
  6257  0726  0008               	return
  6258  0727                     PL31:	
  6259  0727  086E               	movf	_Temperature_Dat,w
  6260  0728  3A80               	xorlw	128
  6261  0729  00E8               	movwf	??_Pattern
  6262  072A  086F               	movf	_Water_Temp,w
  6263  072B  3A80               	xorlw	128
  6264  072C  02E8               	subwf	??_Pattern,f
  6265  072D  0008               	return
  6266  072E                     PL33:	
  6267  072E  30BA               	movlw	low (_LCDCode| (0+32768))
  6268  072F  0084               	movwf	4
  6269  0730  3091               	movlw	high (_LCDCode| (0+32768))
  6270  0731  1283               	bcf	3,5	;RP0=0, select bank0
  6271  0732  00FF               	movwf	127
  6272  0733  0008               	return
  6273  0734                     PL34:	
  6274  0734  00A1               	movwf	_display+1	;volatile
  6275  0735  30C6               	movlw	low ((_LCDCode| (0+32768)+12))
  6276  0736  0084               	movwf	4
  6277  0737  3091               	movlw	high ((_LCDCode| (0+32768)+12))
  6278  0738  00FF               	movwf	127
  6279  0739  0008               	return
  6280  073A                     __ptext1277:	
  6281 ;; =============== function _KeyClearIn ends ============
  6282                           
  6283                           
  6284 ;; *************** function _Hex_To_Temp *****************
  6285 ;; Defined at:
  6286 ;;		line 43 in file "E:\BBA'DATA\\\V4.7\LCD.c"
  6287 ;; Parameters:    Size  Location     Type
  6288 ;;  data            1    wreg     char 
  6289 ;; Auto vars:     Size  Location     Type
  6290 ;;  data            1   10[BANK0 ] char 
  6291 ;;  BCD             3    7[BANK0 ] unsigned char [3]
  6292 ;;  i               1    6[BANK0 ] char 
  6293 ;; Return value:  Size  Location     Type
  6294 ;;		None               void
  6295 ;; Registers used:
  6296 ;;		wreg, fsr0l, fsr0h, status,2, status,0, btemp+1, pclath, cstack
  6297 ;; Tracked objects:
  6298 ;;		On entry : 60/0
  6299 ;;		On exit  : 60/0
  6300 ;;		Unchanged: FFE9F/0
  6301 ;; Data sizes:     COMMON   BANK0   BANK1   BANK3   BANK2
  6302 ;;      Params:         0       0       0       0       0
  6303 ;;      Locals:         0       5       0       0       0
  6304 ;;      Temps:          0       0       0       0       0
  6305 ;;      Totals:         0       5       0       0       0
  6306 ;;Total ram usage:        5 bytes
  6307 ;; Hardware stack levels used:    1
  6308 ;; Hardware stack levels required when called:    4
  6309 ;; This function calls:
  6310 ;;		___awmod
  6311 ;;		___lbdiv
  6312 ;; This function is called by:
  6313 ;;		_Pattern
  6314 ;; This function uses a non-reentrant model
  6315 ;;
  6316  073A                     _Hex_To_Temp:	
  6317                           
  6318                           ; Regs used in _Hex_To_Temp: [wreg-fsr0h+status,2+status,0+btemp+1+pclath+cstack]
  6319                           ;Hex_To_Temp@data stored from wreg
  6320  073A  00E7               	movwf	Hex_To_Temp@data
  6321                           
  6322                           ;LCD.c: 50: if(data>=100)
  6323  073B  3A80               	xorlw	128
  6324  073C  3E1C               	addlw	-228
  6325  073D  1C03               	skipc
  6326  073E  2F45               	goto	l3795
  6327                           
  6328                           ;LCD.c: 51: {
  6329                           ;LCD.c: 52: i=2;
  6330  073F  3002               	movlw	2
  6331  0740  00E3               	movwf	Hex_To_Temp@i
  6332                           
  6333                           ;LCD.c: 53: display[3]=LCDCode[12];
  6334  0741  30C6               	movlw	low ((_LCDCode| (0+32768)+12))
  6335  0742  0084               	movwf	4
  6336  0743  3091               	movlw	high ((_LCDCode| (0+32768)+12))
  6337  0744  2F4C               	goto	L24
  6338  0745                     l3795:	
  6339                           ;LCD.c: 54: }
  6340                           
  6341  0745  300C               	movlw	12
  6342                           
  6343                           ;LCD.c: 55: else
  6344                           ;LCD.c: 56: {
  6345                           ;LCD.c: 57: i=1;
  6346  0746  01E3               	clrf	Hex_To_Temp@i
  6347  0747  0AE3               	incf	Hex_To_Temp@i,f
  6348                           
  6349                           ;LCD.c: 58: BCD[2]=12;
  6350  0748  00E6               	movwf	Hex_To_Temp@BCD+2
  6351                           
  6352                           ;LCD.c: 59: display[3]=LCDCode[10];
  6353  0749  30C4               	movlw	low ((_LCDCode| (0+32768)+10))
  6354  074A  0084               	movwf	4
  6355  074B  3091               	movlw	high ((_LCDCode| (0+32768)+10))
  6356  074C                     L24:	
  6357  074C  00FF               	movwf	127
  6358  074D  160A  118A  2000   	fcall	stringtab
      +       120A  118A         
  6359  0752  00A3               	movwf	_display+3	;volatile
  6360  0753                     l15271:	
  6361  0753  08E7               	movf	Hex_To_Temp@data,f
  6362  0754  1903               	btfsc	3,2
  6363  0755  2F70               	goto	l15273
  6364                           
  6365                           ;LCD.c: 63: {
  6366                           ;LCD.c: 64: BCD[i--]=data%10;
  6367  0756  0863               	movf	Hex_To_Temp@i,w
  6368  0757  3E64               	addlw	Hex_To_Temp@BCD& (0+255)
  6369  0758  0084               	movwf	4
  6370  0759  300A               	movlw	10
  6371  075A  00DD               	movwf	?___awmod
  6372  075B  01DE               	clrf	?___awmod+1
  6373  075C  0867               	movf	Hex_To_Temp@data,w
  6374  075D  00DF               	movwf	?___awmod+2
  6375  075E  01E0               	clrf	?___awmod+3
  6376  075F  1BDF               	btfsc	?___awmod+2,7
  6377  0760  03E0               	decf	?___awmod+3,f
  6378  0761  2634  120A  118A   	fcall	___awmod
  6379  0764  085D               	movf	?___awmod,w
  6380  0765  1383               	bcf	3,7	;select IRP bank0
  6381  0766  0080               	movwf	0
  6382  0767  300A               	movlw	10
  6383  0768  03E3               	decf	Hex_To_Temp@i,f
  6384                           
  6385                           ;LCD.c: 65: data /= 10;
  6386  0769  00DD               	movwf	?___lbdiv
  6387  076A  0867               	movf	Hex_To_Temp@data,w
  6388  076B  2671  120A  118A   	fcall	___lbdiv
  6389  076E  00E7               	movwf	Hex_To_Temp@data
  6390  076F  2F53               	goto	l15271
  6391  0770                     l15273:	
  6392                           
  6393                           ;LCD.c: 67: }
  6394                           ;LCD.c: 68: display[0]=LCDCode[BCD[0]];
  6395  0770  0864               	movf	Hex_To_Temp@BCD,w
  6396  0771  26A8               	fcall	PL2	;call to abstracted procedure
  6397  0772  160A  118A  2000   	fcall	stringtab
      +       120A  118A         
  6398  0777  00A0               	movwf	_display	;volatile
  6399                           
  6400                           ;LCD.c: 69: display[1]=LCDCode[BCD[1]];
  6401  0778  0865               	movf	Hex_To_Temp@BCD+1,w
  6402  0779  26A8               	fcall	PL2	;call to abstracted procedure
  6403  077A  160A  118A  2000   	fcall	stringtab
      +       120A  118A         
  6404  077F  00A1               	movwf	_display+1	;volatile
  6405                           
  6406                           ;LCD.c: 70: display[2]=LCDCode[BCD[2]];
  6407  0780  0866               	movf	Hex_To_Temp@BCD+2,w
  6408  0781  26A8               	fcall	PL2	;call to abstracted procedure
  6409  0782  160A  118A  2000   	fcall	stringtab
  6410  0785  00A2               	movwf	_display+2	;volatile
  6411  0786  0008               	return
  6412  0787                     __end_of_Hex_To_Temp:	
  6413                           
  6414                           	psect	text1278
  6415  0814                     __ptext1278:	
  6416 ;; =============== function _Hex_To_Temp ends ============
  6417                           
  6418                           
  6419 ;; *************** function _NtcAD_Testing *****************
  6420 ;; Defined at:
  6421 ;;		line 170 in file "E:\BBA'DATA\\\V4.7\AD.c"
  6422 ;; Parameters:    Size  Location     Type
  6423 ;;  i               1    wreg     unsigned char 
  6424 ;; Auto vars:     Size  Location     Type
  6425 ;;  i               1   11[BANK0 ] unsigned char 
  6426 ;;  data            2   12[BANK0 ] volatile unsigned short 
  6427 ;; Return value:  Size  Location     Type
  6428 ;;		None               void
  6429 ;; Registers used:
  6430 ;;		wreg, fsr0l, fsr0h, status,2, status,0, btemp+1, pclath, cstack
  6431 ;; Tracked objects:
  6432 ;;		On entry : 40/0
  6433 ;;		On exit  : 60/0
  6434 ;;		Unchanged: FFE00/0
  6435 ;; Data sizes:     COMMON   BANK0   BANK1   BANK3   BANK2
  6436 ;;      Params:         0       0       0       0       0
  6437 ;;      Locals:         0       3       0       0       0
  6438 ;;      Temps:          0       4       0       0       0
  6439 ;;      Totals:         0       7       0       0       0
  6440 ;;Total ram usage:        7 bytes
  6441 ;; Hardware stack levels used:    1
  6442 ;; Hardware stack levels required when called:    4
  6443 ;; This function calls:
  6444 ;;		_AD_Sample
  6445 ;;		___lwdiv
  6446 ;; This function is called by:
  6447 ;;		_main
  6448 ;; This function uses a non-reentrant model
  6449 ;;
  6450  0814                     _NtcAD_Testing:	
  6451                           
  6452                           ; Regs used in _NtcAD_Testing: [wreg-fsr0h+status,2+status,0+btemp+1+pclath+cstack]
  6453                           ;NtcAD_Testing@i stored from wreg
  6454  0814  1283               	bcf	3,5	;RP0=0, select bank0
  6455  0815  00E8               	movwf	NtcAD_Testing@i
  6456                           
  6457                           ;AD.c: 171: static volatile unsigned char adtimes=0;
  6458                           ;AD.c: 172: static volatile unsigned short admin,admax=0,adsum=0;
  6459                           ;AD.c: 173: volatile unsigned short data;
  6460                           ;AD.c: 174: static volatile signed char range=0;
  6461                           ;AD.c: 175: static volatile signed char TAB_pos=0;
  6462                           ;AD.c: 184: if(AD_Sample(i))
  6463  0816  212C  120A  158A   	fcall	_AD_Sample
  6464  0819  3A00               	xorlw	0
  6465  081A  1903               	skipnz
  6466  081B  292A               	goto	l15253
  6467                           
  6468                           ;AD.c: 185: {
  6469                           ;AD.c: 187: data = (ADRESH<<4);
  6470  081C  081E               	movf	30,w	;volatile
  6471  081D  00E9               	movwf	NtcAD_Testing@data
  6472  081E  30F0               	movlw	240
  6473  081F  01EA               	clrf	NtcAD_Testing@data+1
  6474  0820  0EE9               	swapf	NtcAD_Testing@data,f
  6475  0821  0EEA               	swapf	NtcAD_Testing@data+1,f
  6476  0822  05EA               	andwf	NtcAD_Testing@data+1,f
  6477  0823  0869               	movf	NtcAD_Testing@data,w
  6478  0824  390F               	andlw	15
  6479  0825  04EA               	iorwf	NtcAD_Testing@data+1,f
  6480  0826  30F0               	movlw	240
  6481  0827  05E9               	andwf	NtcAD_Testing@data,f
  6482                           
  6483                           ;AD.c: 188: data |= (ADRESL>>4);
  6484  0828  1683               	bsf	3,5	;RP0=1, select bank1
  6485  0829  0E1E               	swapf	30,w	;volatile
  6486  082A  390F               	andlw	15
  6487  082B  1283               	bcf	3,5	;RP0=0, select bank0
  6488  082C  04E9               	iorwf	NtcAD_Testing@data,f	;volatile
  6489                           
  6490                           ;AD.c: 190: if(0 == admax)
  6491  082D  0829               	movf	NtcAD_Testing@admax+1,w	;volatile
  6492  082E  0428               	iorwf	NtcAD_Testing@admax,w	;volatile
  6493  082F  1D03               	skipz
  6494  0830  2836               	goto	l15205
  6495                           
  6496                           ;AD.c: 191: {
  6497                           ;AD.c: 192: admax = data;
  6498  0831  086A               	movf	NtcAD_Testing@data+1,w	;volatile
  6499  0832  00A9               	movwf	NtcAD_Testing@admax+1	;volatile
  6500  0833  0869               	movf	NtcAD_Testing@data,w	;volatile
  6501  0834  00A8               	movwf	NtcAD_Testing@admax	;volatile
  6502  0835  284B               	goto	l15211
  6503  0836                     l15205:	
  6504                           ;AD.c: 194: }
  6505                           
  6506                           ;AD.c: 193: admin = data;
  6507                           
  6508                           
  6509                           ;AD.c: 195: else if(data > admax)
  6510  0836  086A               	movf	NtcAD_Testing@data+1,w	;volatile
  6511  0837  0229               	subwf	NtcAD_Testing@admax+1,w	;volatile
  6512  0838  1D03               	skipz
  6513  0839  283C               	goto	u9325
  6514  083A  0869               	movf	NtcAD_Testing@data,w	;volatile
  6515  083B  0228               	subwf	NtcAD_Testing@admax,w	;volatile
  6516  083C                     u9325:	
  6517  083C  1803               	skipnc
  6518  083D  2843               	goto	l15209
  6519                           
  6520                           ;AD.c: 196: {
  6521                           ;AD.c: 197: admax = data;
  6522  083E  086A               	movf	NtcAD_Testing@data+1,w	;volatile
  6523  083F  00A9               	movwf	NtcAD_Testing@admax+1	;volatile
  6524  0840  0869               	movf	NtcAD_Testing@data,w	;volatile
  6525  0841  00A8               	movwf	NtcAD_Testing@admax	;volatile
  6526                           
  6527                           ;AD.c: 198: }
  6528  0842  284F               	goto	l6818
  6529  0843                     l15209:	
  6530                           
  6531                           ;AD.c: 199: else if(data < admin)
  6532  0843  082B               	movf	NtcAD_Testing@admin+1,w	;volatile
  6533  0844  026A               	subwf	NtcAD_Testing@data+1,w	;volatile
  6534  0845  1D03               	skipz
  6535  0846  2849               	goto	u9335
  6536  0847  082A               	movf	NtcAD_Testing@admin,w	;volatile
  6537  0848  0269               	subwf	NtcAD_Testing@data,w	;volatile
  6538  0849                     u9335:	
  6539  0849  1803               	skipnc
  6540  084A  284F               	goto	l6818
  6541  084B                     l15211:	
  6542                           
  6543                           ;AD.c: 200: {
  6544                           ;AD.c: 201: admin = data;
  6545  084B  086A               	movf	NtcAD_Testing@data+1,w	;volatile
  6546  084C  00AB               	movwf	NtcAD_Testing@admin+1	;volatile
  6547  084D  0869               	movf	NtcAD_Testing@data,w	;volatile
  6548  084E  00AA               	movwf	NtcAD_Testing@admin	;volatile
  6549  084F                     l6818:	
  6550                           
  6551                           ;AD.c: 202: }
  6552                           ;AD.c: 203: adsum += data;
  6553  084F  0869               	movf	NtcAD_Testing@data,w	;volatile
  6554  0850  1683               	bsf	3,5	;RP0=1, select bank1
  6555  0851  07A5               	addwf	NtcAD_Testing@adsum^(0+128),f	;volatile
  6556  0852  1803               	skipnc
  6557  0853  0AA6               	incf	(NtcAD_Testing@adsum+1)^(0+128),f	;volatile
  6558  0854  1283               	bcf	3,5	;RP0=0, select bank0
  6559  0855  086A               	movf	NtcAD_Testing@data+1,w	;volatile
  6560  0856  1683               	bsf	3,5	;RP0=1, select bank1
  6561  0857  07A6               	addwf	(NtcAD_Testing@adsum+1)^(0+128),f	;volatile
  6562                           
  6563                           ;AD.c: 204: if(++adtimes >= 8)
  6564  0858  3008               	movlw	8
  6565  0859  1283               	bcf	3,5	;RP0=0, select bank0
  6566  085A  0AB5               	incf	NtcAD_Testing@adtimes,f	;volatile
  6567  085B  0235               	subwf	NtcAD_Testing@adtimes,w	;volatile
  6568  085C  1C03               	skipc
  6569  085D  0008               	return
  6570                           
  6571                           ;AD.c: 205: {
  6572                           ;AD.c: 206: adsum -= admax;
  6573  085E  0828               	movf	NtcAD_Testing@admax,w	;volatile
  6574  085F  1683               	bsf	3,5	;RP0=1, select bank1
  6575  0860  02A5               	subwf	NtcAD_Testing@adsum^(0+128),f	;volatile
  6576  0861  1283               	bcf	3,5	;RP0=0, select bank0
  6577  0862  0829               	movf	NtcAD_Testing@admax+1,w	;volatile
  6578  0863  1683               	bsf	3,5	;RP0=1, select bank1
  6579  0864  1C03               	skipc
  6580  0865  03A6               	decf	(NtcAD_Testing@adsum+1)^(0+128),f	;volatile
  6581  0866  02A6               	subwf	(NtcAD_Testing@adsum+1)^(0+128),f	;volatile
  6582                           
  6583                           ;AD.c: 207: adsum -= admin;
  6584  0867  1283               	bcf	3,5	;RP0=0, select bank0
  6585  0868  082A               	movf	NtcAD_Testing@admin,w	;volatile
  6586  0869  1683               	bsf	3,5	;RP0=1, select bank1
  6587  086A  02A5               	subwf	NtcAD_Testing@adsum^(0+128),f	;volatile
  6588  086B  1283               	bcf	3,5	;RP0=0, select bank0
  6589  086C  082B               	movf	NtcAD_Testing@admin+1,w	;volatile
  6590  086D  1683               	bsf	3,5	;RP0=1, select bank1
  6591  086E  1C03               	skipc
  6592  086F  03A6               	decf	(NtcAD_Testing@adsum+1)^(0+128),f	;volatile
  6593  0870  02A6               	subwf	(NtcAD_Testing@adsum+1)^(0+128),f	;volatile
  6594                           
  6595                           ;AD.c: 209: AdResult_12bit=adsum/6;
  6596  0871  3006               	movlw	6
  6597  0872  1283               	bcf	3,5	;RP0=0, select bank0
  6598  0873  00DD               	movwf	?___lwdiv
  6599  0874  01DE               	clrf	?___lwdiv+1
  6600  0875  1683               	bsf	3,5	;RP0=1, select bank1
  6601  0876  0826               	movf	(NtcAD_Testing@adsum+1)^(0+128),w	;volatile
  6602  0877  1283               	bcf	3,5	;RP0=0, select bank0
  6603  0878  00E0               	movwf	?___lwdiv+3
  6604  0879  1683               	bsf	3,5	;RP0=1, select bank1
  6605  087A  0825               	movf	NtcAD_Testing@adsum^(0+128),w	;volatile
  6606  087B  1283               	bcf	3,5	;RP0=0, select bank0
  6607  087C  00DF               	movwf	?___lwdiv+2
  6608  087D  2145  120A  158A   	fcall	___lwdiv
  6609  0880  085E               	movf	?___lwdiv+1,w
  6610  0881  00AD               	movwf	_AdResult_12bit+1
  6611  0882  085D               	movf	?___lwdiv,w
  6612  0883  00AC               	movwf	_AdResult_12bit
  6613                           
  6614                           ;AD.c: 210: range=0;
  6615  0884  01B6               	clrf	NtcAD_Testing@range	;volatile
  6616                           
  6617                           ;AD.c: 211: BreakTimeOut = 106;
  6618  0885  306A               	movlw	106
  6619  0886  00BC               	movwf	_BreakTimeOut
  6620  0887                     l15249:	
  6621                           ;AD.c: 212: while(BreakTimeOut--)
  6622                           
  6623  0887  03BC               	decf	_BreakTimeOut,f
  6624  0888  083C               	movf	_BreakTimeOut,w
  6625  0889  3AFF               	xorlw	255
  6626  088A  1903               	btfsc	3,2
  6627  088B  2927               	goto	l15251
  6628                           
  6629                           ;AD.c: 213: {
  6630                           ;AD.c: 215: TAB_pos=Temperature_Dat+range;
  6631  088C  0836               	movf	NtcAD_Testing@range,w
  6632  088D  076E               	addwf	_Temperature_Dat,w
  6633  088E  00B4               	movwf	NtcAD_Testing@TAB_pos	;volatile
  6634                           
  6635                           ;AD.c: 216: if(TAB_pos<=105)
  6636  088F  0834               	movf	NtcAD_Testing@TAB_pos,w	;volatile
  6637  0890  3A80               	xorlw	128
  6638  0891  3E16               	addlw	-234
  6639  0892  1803               	skipnc
  6640  0893  28CF               	goto	l15233
  6641                           
  6642                           ;AD.c: 217: {
  6643                           ;AD.c: 218: if((AdResult_12bit>=TempTab[TAB_pos][0])&&(AdResult_12bit<=TempTab[TAB_pos][
      +                          1]))
  6644  0894  0834               	movf	NtcAD_Testing@TAB_pos,w	;volatile
  6645  0895  00E4               	movwf	??_NtcAD_Testing
  6646  0896  3090               	movlw	high (_TempTab| (0+32768))
  6647  0897  216F               	fcall	PL4	;call to abstracted procedure
  6648  0898  3012               	movlw	low (_TempTab| (0+32768))
  6649  0899  0764               	addwf	??_NtcAD_Testing,w
  6650  089A  0084               	movwf	4
  6651  089B  1803               	skipnc
  6652  089C  0AFF               	incf	127,f
  6653  089D  160A  118A  2000   	fcall	stringtab
      +       120A  158A         
  6654  08A2  00E6               	movwf	??_NtcAD_Testing+2
  6655  08A3  160A  118A  2000   	fcall	stringtab
      +       120A  158A         
  6656  08A8  00E7               	movwf	??_NtcAD_Testing+3
  6657  08A9  022D               	subwf	_AdResult_12bit+1,w	;volatile
  6658  08AA  1D03               	skipz
  6659  08AB  28AE               	goto	u9365
  6660  08AC  0866               	movf	??_NtcAD_Testing+2,w
  6661  08AD  022C               	subwf	_AdResult_12bit,w	;volatile
  6662  08AE                     u9365:	
  6663  08AE  1C03               	skipc
  6664  08AF  28CF               	goto	l15233
  6665  08B0  0834               	movf	NtcAD_Testing@TAB_pos,w	;volatile
  6666  08B1  00E4               	movwf	??_NtcAD_Testing
  6667  08B2  3090               	movlw	high ((_TempTab| (0+32768)+2))
  6668  08B3  216F               	fcall	PL4	;call to abstracted procedure
  6669  08B4  3014               	movlw	low ((_TempTab| (0+32768)+2))
  6670  08B5  0764               	addwf	??_NtcAD_Testing,w
  6671  08B6  0084               	movwf	4
  6672  08B7  1803               	skipnc
  6673  08B8  0AFF               	incf	127,f
  6674  08B9  160A  118A  2000   	fcall	stringtab
      +       120A  158A         
  6675  08BE  00E6               	movwf	??_NtcAD_Testing+2
  6676  08BF  160A  118A  2000   	fcall	stringtab
      +       120A  158A         
  6677  08C4  00E7               	movwf	??_NtcAD_Testing+3
  6678  08C5  082D               	movf	_AdResult_12bit+1,w	;volatile
  6679  08C6  0267               	subwf	??_NtcAD_Testing+3,w
  6680  08C7  1D03               	skipz
  6681  08C8  28CB               	goto	u9375
  6682  08C9  082C               	movf	_AdResult_12bit,w	;volatile
  6683  08CA  0266               	subwf	??_NtcAD_Testing+2,w
  6684  08CB                     u9375:	
  6685  08CB  1C03               	skipc
  6686  08CC  28CF               	goto	l15233
  6687  08CD                     l15231:	
  6688                           
  6689                           ;AD.c: 219: {
  6690                           ;AD.c: 220: Temperature_Dat=TAB_pos;
  6691  08CD  0834               	movf	NtcAD_Testing@TAB_pos,w	;volatile
  6692  08CE  2926               	goto	L25
  6693  08CF                     l15233:	
  6694                           ;AD.c: 221: break;
  6695                           
  6696                           
  6697                           ;AD.c: 222: }
  6698                           ;AD.c: 223: }
  6699                           ;AD.c: 224: TAB_pos=Temperature_Dat-range;
  6700  08CF  0836               	movf	NtcAD_Testing@range,w
  6701  08D0  026E               	subwf	_Temperature_Dat,w
  6702  08D1  00B4               	movwf	NtcAD_Testing@TAB_pos	;volatile
  6703                           
  6704                           ;AD.c: 225: if(TAB_pos>=0)
  6705  08D2  1BB4               	btfsc	NtcAD_Testing@TAB_pos,7	;volatile
  6706  08D3  290D               	goto	l15243
  6707                           
  6708                           ;AD.c: 226: {
  6709                           ;AD.c: 227: if(AdResult_12bit<=TempTab[TAB_pos][1]&&AdResult_12bit>=TempTab[TAB_pos][0])
  6710  08D4  0834               	movf	NtcAD_Testing@TAB_pos,w	;volatile
  6711  08D5  00E4               	movwf	??_NtcAD_Testing
  6712  08D6  3090               	movlw	high ((_TempTab| (0+32768)+2))
  6713  08D7  216F               	fcall	PL4	;call to abstracted procedure
  6714  08D8  3014               	movlw	low ((_TempTab| (0+32768)+2))
  6715  08D9  0764               	addwf	??_NtcAD_Testing,w
  6716  08DA  0084               	movwf	4
  6717  08DB  1803               	skipnc
  6718  08DC  0AFF               	incf	127,f
  6719  08DD  160A  118A  2000   	fcall	stringtab
      +       120A  158A         
  6720  08E2  00E6               	movwf	??_NtcAD_Testing+2
  6721  08E3  160A  118A  2000   	fcall	stringtab
      +       120A  158A         
  6722  08E8  00E7               	movwf	??_NtcAD_Testing+3
  6723  08E9  082D               	movf	_AdResult_12bit+1,w	;volatile
  6724  08EA  0267               	subwf	??_NtcAD_Testing+3,w
  6725  08EB  1D03               	skipz
  6726  08EC  28EF               	goto	u9395
  6727  08ED  082C               	movf	_AdResult_12bit,w	;volatile
  6728  08EE  0266               	subwf	??_NtcAD_Testing+2,w
  6729  08EF                     u9395:	
  6730  08EF  1C03               	skipc
  6731  08F0  290D               	goto	l15243
  6732  08F1  0834               	movf	NtcAD_Testing@TAB_pos,w	;volatile
  6733  08F2  00E4               	movwf	??_NtcAD_Testing
  6734  08F3  3090               	movlw	high (_TempTab| (0+32768))
  6735  08F4  216F               	fcall	PL4	;call to abstracted procedure
  6736  08F5  3012               	movlw	low (_TempTab| (0+32768))
  6737  08F6  0764               	addwf	??_NtcAD_Testing,w
  6738  08F7  0084               	movwf	4
  6739  08F8  1803               	skipnc
  6740  08F9  0AFF               	incf	127,f
  6741  08FA  160A  118A  2000   	fcall	stringtab
      +       120A  158A         
  6742  08FF  00E6               	movwf	??_NtcAD_Testing+2
  6743  0900  160A  118A  2000   	fcall	stringtab
      +       120A  158A         
  6744  0905  00E7               	movwf	??_NtcAD_Testing+3
  6745  0906  022D               	subwf	_AdResult_12bit+1,w	;volatile
  6746  0907  1D03               	skipz
  6747  0908  290B               	goto	u9405
  6748  0909  0866               	movf	??_NtcAD_Testing+2,w
  6749  090A  022C               	subwf	_AdResult_12bit,w	;volatile
  6750  090B                     u9405:	
  6751  090B  1803               	btfsc	3,0
  6752  090C  28CD               	goto	l15231
  6753  090D                     l15243:	
  6754                           
  6755                           ;AD.c: 231: }
  6756                           ;AD.c: 232: }
  6757                           ;AD.c: 233: range++;
  6758  090D  0AB6               	incf	NtcAD_Testing@range,f	;volatile
  6759                           
  6760                           ;AD.c: 234: if(AdResult_12bit>=TempTab[105][1])
  6761  090E  30B8               	movlw	low ((_TempTab| (0+32768)+422))
  6762  090F  0084               	movwf	4
  6763  0910  3091               	movlw	high ((_TempTab| (0+32768)+422))
  6764  0911  00FF               	movwf	127
  6765  0912  160A  118A  2000   	fcall	stringtab
      +       120A  158A         
  6766  0917  00E4               	movwf	??_NtcAD_Testing
  6767  0918  160A  118A  2000   	fcall	stringtab
      +       120A  158A         
  6768  091D  00E5               	movwf	??_NtcAD_Testing+1
  6769  091E  022D               	subwf	_AdResult_12bit+1,w	;volatile
  6770  091F  1D03               	skipz
  6771  0920  2923               	goto	u9415
  6772  0921  0864               	movf	??_NtcAD_Testing,w
  6773  0922  022C               	subwf	_AdResult_12bit,w	;volatile
  6774  0923                     u9415:	
  6775  0923  1C03               	skipc
  6776  0924  2887               	goto	l15249
  6777                           
  6778                           ;AD.c: 235: {
  6779                           ;AD.c: 236: Temperature_Dat=105;
  6780  0925  3069               	movlw	105
  6781  0926                     L25:	
  6782  0926  00EE               	movwf	_Temperature_Dat	;volatile
  6783  0927                     l15251:	
  6784                           ;AD.c: 237: break;
  6785                           
  6786                           
  6787                           ;AD.c: 238: }
  6788                           ;AD.c: 240: }
  6789                           ;AD.c: 241: adsum = 0;
  6790                           
  6791                           ;AD.c: 242: admin = 0;
  6792                           
  6793                           ;AD.c: 243: admax = 0;
  6794  0927  2179               	fcall	PL17	;call to abstracted procedure
  6795                           
  6796                           ;AD.c: 244: adtimes = 0;
  6797  0928  01B5               	clrf	NtcAD_Testing@adtimes	;volatile
  6798  0929  0008               	return
  6799  092A                     l15253:	
  6800                           
  6801                           ;AD.c: 248: else
  6802                           ;AD.c: 249: {
  6803                           ;AD.c: 250: adsum = 0;
  6804                           
  6805                           ;AD.c: 251: admin = 0;
  6806                           
  6807                           ;AD.c: 252: admax = 0;
  6808  092A  2179               	fcall	PL17	;call to abstracted procedure
  6809  092B  0008               	return
  6810  092C                     __end_of_NtcAD_Testing:	
  6811  092C                     __ptext1291:	
  6812 ;; =============== function _KeyIsIn ends ============
  6813                           
  6814                           
  6815 ;; *************** function _AD_Sample *****************
  6816 ;; Defined at:
  6817 ;;		line 120 in file "E:\BBA'DATA\\\V4.7\AD.c"
  6818 ;; Parameters:    Size  Location     Type
  6819 ;;  adch            1    wreg     unsigned char 
  6820 ;; Auto vars:     Size  Location     Type
  6821 ;;  adch            1    1[BANK0 ] unsigned char 
  6822 ;; Return value:  Size  Location     Type
  6823 ;;                  1    wreg      unsigned char 
  6824 ;; Registers used:
  6825 ;;		wreg, status,2, status,0
  6826 ;; Tracked objects:
  6827 ;;		On entry : 60/0
  6828 ;;		On exit  : 60/0
  6829 ;;		Unchanged: FFE00/0
  6830 ;; Data sizes:     COMMON   BANK0   BANK1   BANK3   BANK2
  6831 ;;      Params:         0       0       0       0       0
  6832 ;;      Locals:         0       1       0       0       0
  6833 ;;      Temps:          0       1       0       0       0
  6834 ;;      Totals:         0       2       0       0       0
  6835 ;;Total ram usage:        2 bytes
  6836 ;; Hardware stack levels used:    1
  6837 ;; Hardware stack levels required when called:    3
  6838 ;; This function calls:
  6839 ;;		Nothing
  6840 ;; This function is called by:
  6841 ;;		_NtcAD_Testing
  6842 ;; This function uses a non-reentrant model
  6843 ;;
  6844  092C                     _AD_Sample:	
  6845                           
  6846                           ; Regs used in _AD_Sample: [wreg+status,2+status,0]
  6847                           ;AD_Sample@adch stored from wreg
  6848  092C  00DE               	movwf	AD_Sample@adch
  6849                           
  6850                           ;AD.c: 121: RC0=1;
  6851  092D  1407               	bsf	7,0
  6852                           
  6853                           ;AD.c: 126: ADCON1 = 0;
  6854  092E  1683               	bsf	3,5	;RP0=1, select bank1
  6855  092F  019F               	clrf	31	;volatile
  6856                           
  6857                           ;AD.c: 136: ADCON0 = 0X041 | (adch << 2);
  6858  0930  1283               	bcf	3,5	;RP0=0, select bank0
  6859  0931  085E               	movf	AD_Sample@adch,w
  6860  0932  00DD               	movwf	??_AD_Sample
  6861  0933  1003               	clrc
  6862  0934  0DDD               	rlf	??_AD_Sample,f
  6863  0935  1003               	clrc
  6864  0936  0D5D               	rlf	??_AD_Sample,w
  6865  0937  3841               	iorlw	65
  6866  0938  009F               	movwf	31	;volatile
  6867  0939  0000               	nop	;#
  6868  093A  0000               	nop	;#
  6869                           
  6870                           ;AD.c: 149: GODONE = 1;
  6871  093B  1283               	bcf	3,5	;RP0=0, select bank0
  6872  093C  1303               	bcf	3,6	;RP1=0, select bank0
  6873  093D  30FF               	movlw	255
  6874  093E  149F               	bsf	31,1
  6875                           
  6876                           ;AD.c: 150: BreakTimeOut = 0xff;
  6877  093F  00BC               	movwf	_BreakTimeOut
  6878  0940                     l6797:	
  6879                           ;AD.c: 151: while(GODONE)
  6880                           
  6881  0940  1C9F               	btfss	31,1
  6882  0941  3401               	retlw	1
  6883                           
  6884                           ;AD.c: 152: {
  6885                           ;AD.c: 153: if(0 == (--BreakTimeOut))
  6886  0942  0BBC               	decfsz	_BreakTimeOut,f
  6887  0943  2940               	goto	l6797
  6888                           
  6889                           ;AD.c: 154: {
  6890                           ;AD.c: 156: return 0;
  6891  0944  3400               	retlw	0
  6892  0945                     __end_of_AD_Sample:	
  6893                           ;AD.c: 157: }
  6894                           ;AD.c: 158: }
  6895                           ;AD.c: 159: return 1;
  6896                           
  6897  0945                     __ptext1285:	
  6898 ;; =============== function ___lbdiv ends ============
  6899                           
  6900                           
  6901 ;; *************** function ___lwdiv *****************
  6902 ;; Defined at:
  6903 ;;		line 5 in file "E:\BBA'DATA\CMS_ID~1.32_\data\sources\lwdiv.c"
  6904 ;; Parameters:    Size  Location     Type
  6905 ;;  divisor         2    0[BANK0 ] unsigned int 
  6906 ;;  dividend        2    2[BANK0 ] unsigned int 
  6907 ;; Auto vars:     Size  Location     Type
  6908 ;;  quotient        2    5[BANK0 ] unsigned int 
  6909 ;;  counter         1    4[BANK0 ] unsigned char 
  6910 ;; Return value:  Size  Location     Type
  6911 ;;                  2    0[BANK0 ] unsigned int 
  6912 ;; Registers used:
  6913 ;;		wreg, status,2, status,0
  6914 ;; Tracked objects:
  6915 ;;		On entry : 60/0
  6916 ;;		On exit  : 60/0
  6917 ;;		Unchanged: FFF9F/0
  6918 ;; Data sizes:     COMMON   BANK0   BANK1   BANK3   BANK2
  6919 ;;      Params:         0       4       0       0       0
  6920 ;;      Locals:         0       3       0       0       0
  6921 ;;      Temps:          0       0       0       0       0
  6922 ;;      Totals:         0       7       0       0       0
  6923 ;;Total ram usage:        7 bytes
  6924 ;; Hardware stack levels used:    1
  6925 ;; Hardware stack levels required when called:    3
  6926 ;; This function calls:
  6927 ;;		Nothing
  6928 ;; This function is called by:
  6929 ;;		_NtcAD_Testing
  6930 ;; This function uses a non-reentrant model
  6931 ;;
  6932  0945                     ___lwdiv:	
  6933                           
  6934                           ; Regs used in ___lwdiv: [wreg+status,2+status,0]
  6935  0945  01E2               	clrf	___lwdiv@quotient
  6936  0946  01E3               	clrf	___lwdiv@quotient+1
  6937  0947  085E               	movf	___lwdiv@divisor+1,w
  6938  0948  045D               	iorwf	___lwdiv@divisor,w
  6939  0949  1903               	skipnz
  6940  094A  296A               	goto	l14951
  6941  094B  01E1               	clrf	___lwdiv@counter
  6942  094C                     L32:	
  6943  094C  0AE1               	incf	___lwdiv@counter,f
  6944  094D  1BDE               	btfsc	___lwdiv@divisor+1,7
  6945  094E  2953               	goto	l14939
  6946  094F  1003               	clrc
  6947  0950  0DDD               	rlf	___lwdiv@divisor,f
  6948  0951  0DDE               	rlf	___lwdiv@divisor+1,f
  6949  0952  294C               	goto	L32
  6950  0953                     l14939:	
  6951  0953  1003               	clrc
  6952  0954  0DE2               	rlf	___lwdiv@quotient,f
  6953  0955  0DE3               	rlf	___lwdiv@quotient+1,f
  6954  0956  085E               	movf	___lwdiv@divisor+1,w
  6955  0957  0260               	subwf	___lwdiv@dividend+1,w
  6956  0958  1D03               	skipz
  6957  0959  295C               	goto	u9085
  6958  095A  085D               	movf	___lwdiv@divisor,w
  6959  095B  025F               	subwf	___lwdiv@dividend,w
  6960  095C                     u9085:	
  6961  095C  1C03               	skipc
  6962  095D  2966               	goto	L33
  6963  095E  085D               	movf	___lwdiv@divisor,w
  6964  095F  02DF               	subwf	___lwdiv@dividend,f
  6965  0960  085E               	movf	___lwdiv@divisor+1,w
  6966  0961  1C03               	skipc
  6967  0962  03E0               	decf	___lwdiv@dividend+1,f
  6968  0963  02E0               	subwf	___lwdiv@dividend+1,f
  6969  0964  1462               	bsf	___lwdiv@quotient,0
  6970  0965  1003               	clrc
  6971  0966                     L33:	
  6972  0966  0CDE               	rrf	___lwdiv@divisor+1,f
  6973  0967  0CDD               	rrf	___lwdiv@divisor,f
  6974  0968  0BE1               	decfsz	___lwdiv@counter,f
  6975  0969  2953               	goto	l14939
  6976  096A                     l14951:	
  6977  096A  0863               	movf	___lwdiv@quotient+1,w
  6978  096B  00DE               	movwf	?___lwdiv+1
  6979  096C  0862               	movf	___lwdiv@quotient,w
  6980  096D  00DD               	movwf	?___lwdiv
  6981  096E  0008               	return
  6982  096F                     __end_of___lwdiv:	
  6983  096F                     PL4:	
  6984  096F  01E5               	clrf	??_NtcAD_Testing+1
  6985  0970  1003               	clrc
  6986  0971  0DE4               	rlf	??_NtcAD_Testing,f
  6987  0972  0DE5               	rlf	??_NtcAD_Testing+1,f
  6988  0973  1003               	clrc
  6989  0974  0DE4               	rlf	??_NtcAD_Testing,f
  6990  0975  0DE5               	rlf	??_NtcAD_Testing+1,f
  6991  0976  0765               	addwf	??_NtcAD_Testing+1,w
  6992  0977  00FF               	movwf	127
  6993  0978  0008               	return
  6994  0979                     PL17:	
  6995  0979  1683               	bsf	3,5	;RP0=1, select bank1
  6996  097A  01A5               	clrf	NtcAD_Testing@adsum^(0+128)	;volatile
  6997  097B  01A6               	clrf	(NtcAD_Testing@adsum+1)^(0+128)	;volatile
  6998  097C  1283               	bcf	3,5	;RP0=0, select bank0
  6999  097D  01AA               	clrf	NtcAD_Testing@admin	;volatile
  7000  097E  01AB               	clrf	NtcAD_Testing@admin+1	;volatile
  7001  097F  01A8               	clrf	NtcAD_Testing@admax	;volatile
  7002  0980  01A9               	clrf	NtcAD_Testing@admax+1	;volatile
  7003  0981  0008               	return
  7004                           
  7005                           	psect	text1280
  7006  1523                     __ptext1280:	
  7007 ;; =============== function _ShutDowm_Device ends ============
  7008                           
  7009                           
  7010 ;; *************** function _Init_System *****************
  7011 ;; Defined at:
  7012 ;;		line 17 in file "E:\BBA'DATA\\\V4.7\main.c"
  7013 ;; Parameters:    Size  Location     Type
  7014 ;;		None
  7015 ;; Auto vars:     Size  Location     Type
  7016 ;;		None
  7017 ;; Return value:  Size  Location     Type
  7018 ;;		None               void
  7019 ;; Registers used:
  7020 ;;		wreg, fsr0l, fsr0h, status,2, status,0, pclath, cstack
  7021 ;; Tracked objects:
  7022 ;;		On entry : 17F/0
  7023 ;;		On exit  : 60/40
  7024 ;;		Unchanged: FFE00/0
  7025 ;; Data sizes:     COMMON   BANK0   BANK1   BANK3   BANK2
  7026 ;;      Params:         0       0       0       0       0
  7027 ;;      Locals:         0       0       0       0       0
  7028 ;;      Temps:          0       0       0       0       0
  7029 ;;      Totals:         0       0       0       0       0
  7030 ;;Total ram usage:        0 bytes
  7031 ;; Hardware stack levels used:    1
  7032 ;; Hardware stack levels required when called:    4
  7033 ;; This function calls:
  7034 ;;		__74HC595_SET
  7035 ;;		_DelayX
  7036 ;; This function is called by:
  7037 ;;		_main
  7038 ;; This function uses a non-reentrant model
  7039 ;;
  7040  1523                     _Init_System:	
  7041                           
  7042                           ; Regs used in _Init_System: [wreg-fsr0h+status,2+status,0+pclath+cstack]
  7043  1523  0000               	nop	;#
  7044                           
  7045                           ;main.c: 19: INTCON = 0;
  7046  1524  018B               	clrf	11	;volatile
  7047                           
  7048                           ;main.c: 20: OSCCON = 0X71;
  7049  1525  3071               	movlw	113
  7050  1526  1683               	bsf	3,5	;RP0=1, select bank1
  7051  1527  1303               	bcf	3,6	;RP1=0, select bank1
  7052  1528  008F               	movwf	15	;volatile
  7053                           
  7054                           ;main.c: 21: OPTION_REG = 0;
  7055  1529  0181               	clrf	1	;volatile
  7056                           
  7057                           ;main.c: 25: TRISE = 0B11110011;
  7058  152A  30F3               	movlw	243
  7059                           
  7060                           ;main.c: 26: TRISB = 0B11111111;
  7061                           
  7062                           ;main.c: 27: TRISC = 0B10111100;
  7063                           
  7064                           ;main.c: 29: TRISA = 0B00111111;
  7065  152B  25E1  160A  118A   	fcall	PL23	;call to abstracted procedure
  7066                           
  7067                           ;main.c: 38: PIE1 = 2;
  7068  152E  3002               	movlw	2
  7069  152F  008C               	movwf	12	;volatile
  7070                           
  7071                           ;main.c: 39: PR2 = 250;
  7072  1530  30FA               	movlw	250
  7073  1531  0092               	movwf	18	;volatile
  7074                           
  7075                           ;main.c: 40: T2CON = 6;
  7076  1532  3006               	movlw	6
  7077  1533  1283               	bcf	3,5	;RP0=0, select bank0
  7078  1534  0092               	movwf	18	;volatile
  7079                           
  7080                           ;main.c: 43: RC0=0;
  7081  1535  1007               	bcf	7,0
  7082                           
  7083                           ;main.c: 44: RA6=0;
  7084  1536  1305               	bcf	5,6
  7085                           
  7086                           ;main.c: 45: Temp_595[0]&=~(1<<7);
  7087  1537  13A5               	bcf	_Temp_595,7	;volatile
  7088  1538  30FF               	movlw	255
  7089                           
  7090                           ;main.c: 46: RA7=0;
  7091  1539  1385               	bcf	5,7
  7092                           
  7093                           ;main.c: 47: Temp_595[0]=0XFF;
  7094  153A  00A5               	movwf	_Temp_595	;volatile
  7095                           
  7096                           ;main.c: 48: Temp_595[1]=0XFF;
  7097  153B  00A6               	movwf	_Temp_595+1	;volatile
  7098                           
  7099                           ;main.c: 49: Temp_595[2]=0XFF;
  7100  153C  00A7               	movwf	_Temp_595+2	;volatile
  7101                           
  7102                           ;main.c: 50: RC0=1;
  7103  153D  1407               	bsf	7,0
  7104                           
  7105                           ;main.c: 52: _74HC595_SET();
  7106  153E  25AA  160A  118A   	fcall	__74HC595_SET
  7107  1541  30E8               	movlw	232
  7108                           
  7109                           ;main.c: 53: RE2=0;
  7110  1542  1109               	bcf	9,2
  7111                           
  7112                           ;main.c: 54: DelayX(1000);
  7113  1543  00DD               	movwf	?_DelayX
  7114  1544  3003               	movlw	3
  7115  1545  00DE               	movwf	?_DelayX+1
  7116  1546  25D2               	fcall	_DelayX
  7117                           
  7118                           ;main.c: 57: IOCB=0x02;
  7119  1547  3002               	movlw	2
  7120  1548  1683               	bsf	3,5	;RP0=1, select bank1
  7121  1549  0096               	movwf	22	;volatile
  7122                           
  7123                           ;main.c: 58: OPTION_REG&=~(1<<7);
  7124  154A  1381               	bcf	1,7	;volatile
  7125                           
  7126                           ;main.c: 59: INTCON = 0B11001000;
  7127  154B  30C8               	movlw	200
  7128  154C  008B               	movwf	11	;volatile
  7129                           
  7130                           ;main.c: 61: WPUB=0B00000010;
  7131  154D  3002               	movlw	2
  7132  154E  0095               	movwf	21	;volatile
  7133                           
  7134                           ;main.c: 63: WDTCON=0;
  7135  154F  1283               	bcf	3,5	;RP0=0, select bank2
  7136  1550  1703               	bsf	3,6	;RP1=1, select bank2
  7137  1551  0185               	clrf	5	;volatile
  7138  1552  0008               	return
  7139  1553                     __end_of_Init_System:	
  7140  1553                     __ptext1279:	
  7141 ;; =============== function _NtcAD_Testing ends ============
  7142                           
  7143                           
  7144 ;; *************** function _ShutDowm_Device *****************
  7145 ;; Defined at:
  7146 ;;		line 1714 in file "E:\BBA'DATA\\\V4.7\pattern_fuction.c"
  7147 ;; Parameters:    Size  Location     Type
  7148 ;;		None
  7149 ;; Auto vars:     Size  Location     Type
  7150 ;;		None
  7151 ;; Return value:  Size  Location     Type
  7152 ;;		None               void
  7153 ;; Registers used:
  7154 ;;		wreg, fsr0l, fsr0h, status,2, status,0, pclath, cstack
  7155 ;; Tracked objects:
  7156 ;;		On entry : 60/20
  7157 ;;		On exit  : 60/60
  7158 ;;		Unchanged: FFE00/0
  7159 ;; Data sizes:     COMMON   BANK0   BANK1   BANK3   BANK2
  7160 ;;      Params:         0       0       0       0       0
  7161 ;;      Locals:         0       0       0       0       0
  7162 ;;      Temps:          0       0       0       0       0
  7163 ;;      Totals:         0       0       0       0       0
  7164 ;;Total ram usage:        0 bytes
  7165 ;; Hardware stack levels used:    1
  7166 ;; Hardware stack levels required when called:    4
  7167 ;; This function calls:
  7168 ;;		__74HC595_SET
  7169 ;; This function is called by:
  7170 ;;		_main
  7171 ;; This function uses a non-reentrant model
  7172 ;;
  7173  1553                     _ShutDowm_Device:	
  7174                           
  7175                           ;pattern_fuction.c: 1726: ADCON0 = 0;
  7176                           
  7177                           ; Regs used in _ShutDowm_Device: [wreg-fsr0h+status,2+status,0+pclath+cstack]
  7178  1553  1283               	bcf	3,5	;RP0=0, select bank0
  7179  1554  019F               	clrf	31	;volatile
  7180                           
  7181                           ;pattern_fuction.c: 1729: Temp_595[0]=0xFF;
  7182  1555  30FF               	movlw	255
  7183  1556  00A5               	movwf	_Temp_595	;volatile
  7184                           
  7185                           ;pattern_fuction.c: 1730: Temp_595[1]=0xFF;
  7186  1557  00A6               	movwf	_Temp_595+1	;volatile
  7187                           
  7188                           ;pattern_fuction.c: 1731: Temp_595[2]=0x00;
  7189  1558  01A7               	clrf	_Temp_595+2	;volatile
  7190                           
  7191                           ;pattern_fuction.c: 1733: Temp_595[0]&=~(1<<7);
  7192  1559  13A5               	bcf	_Temp_595,7	;volatile
  7193                           
  7194                           ;pattern_fuction.c: 1734: Temp_595[0]&=~(1<<6);
  7195  155A  1325               	bcf	_Temp_595,6	;volatile
  7196                           
  7197                           ;pattern_fuction.c: 1735: RA7=0;
  7198  155B  1385               	bcf	5,7
  7199                           
  7200                           ;pattern_fuction.c: 1736: RC0=0;
  7201  155C  1007               	bcf	7,0
  7202                           
  7203                           ;pattern_fuction.c: 1737: RA6=0;
  7204  155D  1305               	bcf	5,6
  7205                           
  7206                           ;pattern_fuction.c: 1738: Temp_595[1]&=~(1<<7);
  7207  155E  13A6               	bcf	_Temp_595+1,7	;volatile
  7208                           
  7209                           ;pattern_fuction.c: 1739: Temp_595[1]&=~(1<<6);
  7210  155F  1326               	bcf	_Temp_595+1,6	;volatile
  7211                           
  7212                           ;pattern_fuction.c: 1741: _74HC595_SET();
  7213  1560  25AA  160A  118A   	fcall	__74HC595_SET
  7214                           
  7215                           ;pattern_fuction.c: 1744: TRISC &= ~(0x3C);
  7216  1563  30C3               	movlw	195
  7217  1564  1683               	bsf	3,5	;RP0=1, select bank1
  7218  1565  0587               	andwf	7,f	;volatile
  7219                           
  7220                           ;pattern_fuction.c: 1745: RC2=0;
  7221  1566  1283               	bcf	3,5	;RP0=0, select bank0
  7222  1567  1107               	bcf	7,2
  7223                           
  7224                           ;pattern_fuction.c: 1746: RC3=0;
  7225  1568  1187               	bcf	7,3
  7226                           
  7227                           ;pattern_fuction.c: 1747: RC4=0;
  7228  1569  1207               	bcf	7,4
  7229                           
  7230                           ;pattern_fuction.c: 1748: RC5=0;
  7231  156A  1287               	bcf	7,5
  7232                           
  7233                           ;pattern_fuction.c: 1750: WDTCON=0;
  7234  156B  1703               	bsf	3,6	;RP1=1, select bank2
  7235  156C  0185               	clrf	5	;volatile
  7236                           
  7237                           ;pattern_fuction.c: 1752: TRISE = 0B00000000;
  7238  156D  1683               	bsf	3,5	;RP0=1, select bank1
  7239  156E  1303               	bcf	3,6	;RP1=0, select bank1
  7240  156F  0189               	clrf	9	;volatile
  7241                           
  7242                           ;pattern_fuction.c: 1753: TRISB = 0B00000010;
  7243  1570  3002               	movlw	2
  7244  1571  0086               	movwf	6	;volatile
  7245                           
  7246                           ;pattern_fuction.c: 1756: TRISA = 0B00000000;
  7247  1572  0185               	clrf	5	;volatile
  7248                           
  7249                           ;pattern_fuction.c: 1757: TRISC = 0B00000000;
  7250  1573  0187               	clrf	7	;volatile
  7251                           
  7252                           ;pattern_fuction.c: 1759: RE1=0;
  7253  1574  1283               	bcf	3,5	;RP0=0, select bank0
  7254  1575  1089               	bcf	9,1
  7255                           
  7256                           ;pattern_fuction.c: 1760: RB1=0;
  7257  1576  1086               	bcf	6,1
  7258                           
  7259                           ;pattern_fuction.c: 1762: LCDCON0=0;
  7260  1577  1683               	bsf	3,5	;RP0=1, select bank3
  7261  1578  1703               	bsf	3,6	;RP1=1, select bank3
  7262  1579  0190               	clrf	16	;volatile
  7263                           
  7264                           ;pattern_fuction.c: 1763: LCDADD=0;
  7265  157A  0192               	clrf	18	;volatile
  7266                           
  7267                           ;pattern_fuction.c: 1764: COMEN =0;
  7268  157B  0197               	clrf	23	;volatile
  7269                           
  7270                           ;pattern_fuction.c: 1765: TRISC =0;
  7271  157C  1303               	bcf	3,6	;RP1=0, select bank1
  7272  157D  0187               	clrf	7	;volatile
  7273                           
  7274                           ;pattern_fuction.c: 1768: KEYCON0&=0x80;
  7275  157E  3080               	movlw	128
  7276  157F  1283               	bcf	3,5	;RP0=0, select bank2
  7277  1580  1703               	bsf	3,6	;RP1=1, select bank2
  7278  1581  0593               	andwf	19,f	;volatile
  7279                           
  7280                           ;pattern_fuction.c: 1769: RB1=RB1;
  7281  1582  1303               	bcf	3,6	;RP1=0, select bank0
  7282  1583  1C86               	btfss	6,1
  7283  1584  2D89               	goto	u9280
  7284  1585  1283               	bcf	3,5	;RP0=0, select bank0
  7285  1586  1303               	bcf	3,6	;RP1=0, select bank0
  7286  1587  1486               	bsf	6,1
  7287  1588  2D8C               	goto	l15151
  7288  1589                     u9280:	
  7289  1589  1283               	bcf	3,5	;RP0=0, select bank0
  7290  158A  1303               	bcf	3,6	;RP1=0, select bank0
  7291  158B  1086               	bcf	6,1
  7292  158C                     l15151:	
  7293  158C  0064               	clrwdt	;#
  7294                           
  7295                           ;pattern_fuction.c: 1771: INTCON=0B00001000;
  7296  158D  3008               	movlw	8
  7297  158E  008B               	movwf	11	;volatile
  7298  158F  0000               	nop	;#
  7299  1590  0000               	nop	;#
  7300  1591  0000               	nop	;#
  7301  1592  0000               	nop	;#
  7302  1593  0063               	sleep	;#
  7303  1594  0000               	nop	;#
  7304  1595  0000               	nop	;#
  7305                           
  7306                           ;pattern_fuction.c: 1780: INTCON = 0B11000000;
  7307  1596  30C0               	movlw	192
  7308  1597  008B               	movwf	11	;volatile
  7309  1598  0000               	nop	;#
  7310  1599  0000               	nop	;#
  7311  159A  0064               	clrwdt	;#
  7312  159B  0000               	nop	;#
  7313  159C  0000               	nop	;#
  7314                           
  7315                           ;pattern_fuction.c: 1790: TRISE = 0B11110011;
  7316  159D  30F3               	movlw	243
  7317  159E  1683               	bsf	3,5	;RP0=1, select bank1
  7318  159F  1303               	bcf	3,6	;RP1=0, select bank1
  7319                           
  7320                           ;pattern_fuction.c: 1791: TRISB = 0B11111111;
  7321                           
  7322                           ;pattern_fuction.c: 1792: TRISC = 0B10111100;
  7323                           
  7324                           ;pattern_fuction.c: 1794: TRISA = 0B00111111;
  7325  15A0  25E1               	fcall	PL23	;call to abstracted procedure
  7326  15A1  30B0               	movlw	176
  7327                           
  7328                           ;pattern_fuction.c: 1795: No_AC=0;
  7329  15A2  1372               	bcf	_No_AC/(0+8),_No_AC& (0+7)
  7330                           
  7331                           ;pattern_fuction.c: 1796: LH_Count=0;
  7332  15A3  01B7               	clrf	_LH_Count^(0+128)
  7333  15A4  01B8               	clrf	(_LH_Count+1)^(0+128)
  7334                           
  7335                           ;pattern_fuction.c: 1798: LCDCON0=0B10110000;
  7336  15A5  1703               	bsf	3,6	;RP1=1, select bank3
  7337  15A6  0090               	movwf	16	;volatile
  7338                           
  7339                           ;pattern_fuction.c: 1799: LCDADD =0B01100000;
  7340  15A7  3060               	movlw	96
  7341  15A8  0092               	movwf	18	;volatile
  7342  15A9  0008               	return
  7343  15AA                     __end_of_ShutDowm_Device:	
  7344  15AA                     __ptext1300:	
  7345 ;; =============== function _KeyServer ends ============
  7346                           
  7347                           
  7348 ;; *************** function __74HC595_SET *****************
  7349 ;; Defined at:
  7350 ;;		line 6 in file "E:\BBA'DATA\\\V4.7\74HC595.c"
  7351 ;; Parameters:    Size  Location     Type
  7352 ;;		None
  7353 ;; Auto vars:     Size  Location     Type
  7354 ;;  j               1    2[BANK0 ] char 
  7355 ;;  i               1    1[BANK0 ] char 
  7356 ;; Return value:  Size  Location     Type
  7357 ;;		None               void
  7358 ;; Registers used:
  7359 ;;		wreg, fsr0l, fsr0h, status,2, status,0
  7360 ;; Tracked objects:
  7361 ;;		On entry : 20/40
  7362 ;;		On exit  : 160/0
  7363 ;;		Unchanged: FFE9F/0
  7364 ;; Data sizes:     COMMON   BANK0   BANK1   BANK3   BANK2
  7365 ;;      Params:         0       0       0       0       0
  7366 ;;      Locals:         0       2       0       0       0
  7367 ;;      Temps:          0       1       0       0       0
  7368 ;;      Totals:         0       3       0       0       0
  7369 ;;Total ram usage:        3 bytes
  7370 ;; Hardware stack levels used:    1
  7371 ;; Hardware stack levels required when called:    3
  7372 ;; This function calls:
  7373 ;;		Nothing
  7374 ;; This function is called by:
  7375 ;;		_Init_System
  7376 ;;		_main
  7377 ;;		_ShutDowm_Device
  7378 ;; This function uses a non-reentrant model
  7379 ;;
  7380  15AA                     __74HC595_SET:	
  7381                           
  7382                           ;74HC595.c: 7: signed char i,j;
  7383                           ;74HC595.c: 8: for(i=0;i<3;i++)
  7384                           
  7385                           ; Regs used in __74HC595_SET: [wreg-fsr0h+status,2+status,0]
  7386  15AA  1303               	bcf	3,6	;RP1=0, select bank0
  7387  15AB  01DE               	clrf	__74HC595_SET@i
  7388  15AC                     l11441:	
  7389                           
  7390                           ;74HC595.c: 9: for(j=0;j<8;j++)
  7391  15AC  01DF               	clrf	__74HC595_SET@j
  7392  15AD                     l11447:	
  7393                           
  7394                           ;74HC595.c: 10: {
  7395                           ;74HC595.c: 11: if(Temp_595[i]&(1<<j))
  7396  15AD  085E               	movf	__74HC595_SET@i,w
  7397  15AE  3E25               	addlw	_Temp_595& (0+255)
  7398  15AF  0084               	movwf	4
  7399  15B0  3001               	movlw	1
  7400  15B1  00DD               	movwf	??__74HC595_SET
  7401  15B2  0A5F               	incf	__74HC595_SET@j,w
  7402  15B3  2DB6               	goto	u3944
  7403  15B4                     u3945:	
  7404  15B4  1003               	clrc
  7405  15B5  0DDD               	rlf	??__74HC595_SET,f
  7406  15B6                     u3944:	
  7407  15B6  3EFF               	addlw	-1
  7408  15B7  1D03               	skipz
  7409  15B8  2DB4               	goto	u3945
  7410  15B9  085D               	movf	??__74HC595_SET,w
  7411  15BA  1383               	bcf	3,7	;select IRP bank0
  7412  15BB  0500               	andwf	0,w
  7413  15BC  1903               	btfsc	3,2
  7414  15BD  2DC0               	goto	l2552
  7415                           
  7416                           ;74HC595.c: 12: {
  7417                           ;74HC595.c: 13: RE3=1;
  7418  15BE  1589               	bsf	9,3
  7419                           
  7420                           ;74HC595.c: 14: }
  7421  15BF  2DC1               	goto	l2553
  7422  15C0                     l2552:	
  7423                           
  7424                           ;74HC595.c: 15: else
  7425                           ;74HC595.c: 16: {
  7426                           ;74HC595.c: 17: RE3=0;
  7427  15C0  1189               	bcf	9,3
  7428  15C1                     l2553:	
  7429                           
  7430                           ;74HC595.c: 18: }
  7431                           ;74HC595.c: 19: RC1=1;
  7432  15C1  1487               	bsf	7,1
  7433                           
  7434                           ;74HC595.c: 20: RC1=0;
  7435  15C2  1087               	bcf	7,1
  7436  15C3  0ADF               	incf	__74HC595_SET@j,f
  7437  15C4  085F               	movf	__74HC595_SET@j,w
  7438  15C5  3A80               	xorlw	128
  7439  15C6  3E78               	addlw	-136
  7440  15C7  1C03               	skipc
  7441  15C8  2DAD               	goto	l11447
  7442  15C9  0ADE               	incf	__74HC595_SET@i,f
  7443  15CA  085E               	movf	__74HC595_SET@i,w
  7444  15CB  3A80               	xorlw	128
  7445  15CC  3E7D               	addlw	-131
  7446  15CD  1C03               	skipc
  7447  15CE  2DAC               	goto	l11441
  7448                           
  7449                           ;74HC595.c: 21: }
  7450                           ;74HC595.c: 23: RC6=1;
  7451  15CF  1707               	bsf	7,6
  7452                           
  7453                           ;74HC595.c: 24: RC6=0;
  7454  15D0  1307               	bcf	7,6
  7455  15D1  0008               	return
  7456  15D2                     __end_of__74HC595_SET:	
  7457  15D2                     __ptext1301:	
  7458 ;; =============== function __74HC595_SET ends ============
  7459                           
  7460                           
  7461 ;; *************** function _DelayX *****************
  7462 ;; Defined at:
  7463 ;;		line 11 in file "E:\BBA'DATA\\\V4.7\main.c"
  7464 ;; Parameters:    Size  Location     Type
  7465 ;;  i               2    0[BANK0 ] unsigned int 
  7466 ;; Auto vars:     Size  Location     Type
  7467 ;;		None
  7468 ;; Return value:  Size  Location     Type
  7469 ;;		None               void
  7470 ;; Registers used:
  7471 ;;		wreg
  7472 ;; Tracked objects:
  7473 ;;		On entry : 160/0
  7474 ;;		On exit  : 60/0
  7475 ;;		Unchanged: FFE00/0
  7476 ;; Data sizes:     COMMON   BANK0   BANK1   BANK3   BANK2
  7477 ;;      Params:         0       2       0       0       0
  7478 ;;      Locals:         0       0       0       0       0
  7479 ;;      Temps:          0       0       0       0       0
  7480 ;;      Totals:         0       2       0       0       0
  7481 ;;Total ram usage:        2 bytes
  7482 ;; Hardware stack levels used:    1
  7483 ;; Hardware stack levels required when called:    3
  7484 ;; This function calls:
  7485 ;;		Nothing
  7486 ;; This function is called by:
  7487 ;;		_Init_System
  7488 ;; This function uses a non-reentrant model
  7489 ;;
  7490  15D2                     _DelayX:	
  7491  15D2                     l14165:	
  7492                           ;main.c: 13: while(i--) {asm("nop");}
  7493                           
  7494                           ; Regs used in _DelayX: [wreg]
  7495                           
  7496  15D2  3001               	movlw	1
  7497  15D3  1283               	bcf	3,5	;RP0=0, select bank0
  7498  15D4  1303               	bcf	3,6	;RP1=0, select bank0
  7499  15D5  02DD               	subwf	DelayX@i,f
  7500  15D6  3000               	movlw	0
  7501  15D7  1C03               	skipc
  7502  15D8  03DE               	decf	DelayX@i+1,f
  7503  15D9  02DE               	subwf	DelayX@i+1,f
  7504  15DA  0A5D               	incf	DelayX@i,w
  7505  15DB  1903               	skipnz
  7506  15DC  0A5E               	incf	DelayX@i+1,w
  7507  15DD  1903               	btfsc	3,2
  7508  15DE  0008               	return
  7509  15DF  0000               	nop	;#
  7510  15E0  2DD2               	goto	l14165
  7511  15E1                     __end_of_DelayX:	
  7512  15E1                     PL23:	
  7513  15E1  0089               	movwf	9	;volatile
  7514  15E2  30FF               	movlw	255
  7515  15E3  0086               	movwf	6	;volatile
  7516  15E4  30BC               	movlw	188
  7517  15E5  0087               	movwf	7	;volatile
  7518  15E6  303F               	movlw	63
  7519  15E7  0085               	movwf	5	;volatile
  7520  15E8  0008               	return
  7521                           
  7522                           	psect	text1292
  7523  15E9                     __ptext1292:	
  7524 ;; =============== function _AD_Sample ends ============
  7525                           
  7526                           
  7527 ;; *************** function _LED_Crt *****************
  7528 ;; Defined at:
  7529 ;;		line 1479 in file "E:\BBA'DATA\\\V4.7\pattern_fuction.c"
  7530 ;; Parameters:    Size  Location     Type
  7531 ;;		None
  7532 ;; Auto vars:     Size  Location     Type
  7533 ;;		None
  7534 ;; Return value:  Size  Location     Type
  7535 ;;		None               void
  7536 ;; Registers used:
  7537 ;;		wreg, fsr0l, fsr0h, status,2, status,0
  7538 ;; Tracked objects:
  7539 ;;		On entry : 40/20
  7540 ;;		On exit  : 40/0
  7541 ;;		Unchanged: FFF9F/0
  7542 ;; Data sizes:     COMMON   BANK0   BANK1   BANK3   BANK2
  7543 ;;      Params:         0       0       0       0       0
  7544 ;;      Locals:         0       0       0       0       0
  7545 ;;      Temps:          0       0       0       0       0
  7546 ;;      Totals:         0       0       0       0       0
  7547 ;;Total ram usage:        0 bytes
  7548 ;; Hardware stack levels used:    1
  7549 ;; Hardware stack levels required when called:    3
  7550 ;; This function calls:
  7551 ;;		Nothing
  7552 ;; This function is called by:
  7553 ;;		_Pattern
  7554 ;; This function uses a non-reentrant model
  7555 ;;
  7556  15E9                     _LED_Crt:	
  7557                           
  7558                           ;pattern_fuction.c: 1480: switch(Pattern_LED_Crt)
  7559                           
  7560                           ; Regs used in _LED_Crt: [wreg-fsr0h+status,2+status,0]
  7561  15E9  2EC9               	goto	l14875
  7562  15EA                     l14699:	
  7563                           
  7564                           ;pattern_fuction.c: 1483: BG_LED_State=2;
  7565  15EA  3002               	movlw	2
  7566  15EB  1283               	bcf	3,5	;RP0=0, select bank0
  7567  15EC  00BA               	movwf	_BG_LED_State
  7568                           
  7569                           ;pattern_fuction.c: 1484: BG_LED_ON_Time=0;
  7570  15ED  01B9               	clrf	_BG_LED_ON_Time
  7571                           
  7572                           ;pattern_fuction.c: 1486: ANNULUS_LIGHT_State=2;
  7573  15EE  00B7               	movwf	_ANNULUS_LIGHT_State
  7574                           
  7575                           ;pattern_fuction.c: 1487: SHOW_LIGHT_State=2;
  7576  15EF  00D3               	movwf	_SHOW_LIGHT_State
  7577                           
  7578                           ;pattern_fuction.c: 1488: ANNULUS_LIGHT_Flash_Times=0;
  7579  15F0  01FA               	clrf	_ANNULUS_LIGHT_Flash_Times
  7580                           
  7581                           ;pattern_fuction.c: 1489: SHOW_LIGHT_Flash_Times=0;
  7582  15F1  1683               	bsf	3,5	;RP0=1, select bank1
  7583  15F2  01EC               	clrf	_SHOW_LIGHT_Flash_Times^(0+128)
  7584                           
  7585                           ;pattern_fuction.c: 1491: LED_Flash_HZ=0;
  7586  15F3  01FB               	clrf	_LED_Flash_HZ
  7587                           
  7588                           ;pattern_fuction.c: 1492: LED_Flash_Bool=1;
  7589  15F4  16F2               	bsf	_LED_Flash_Bool/(0+8),_LED_Flash_Bool& (0+7)
  7590                           
  7591                           ;pattern_fuction.c: 1493: LED1_Flash_Times=0;
  7592  15F5  1283               	bcf	3,5	;RP0=0, select bank0
  7593  15F6  01C3               	clrf	_LED1_Flash_Times
  7594                           
  7595                           ;pattern_fuction.c: 1494: LED1_State=2;
  7596  15F7  00C4               	movwf	_LED1_State
  7597                           
  7598                           ;pattern_fuction.c: 1495: LED2_State=2;
  7599  15F8  00C5               	movwf	_LED2_State
  7600                           
  7601                           ;pattern_fuction.c: 1496: LED3_State=2;
  7602  15F9  00C6               	movwf	_LED3_State
  7603                           
  7604                           ;pattern_fuction.c: 1497: LED4_State=2;
  7605  15FA  00C7               	movwf	_LED4_State
  7606                           
  7607                           ;pattern_fuction.c: 1498: LED5_State=2;
  7608  15FB  00C8               	movwf	_LED5_State
  7609                           
  7610                           ;pattern_fuction.c: 1499: LED6_State=2;
  7611  15FC  00C9               	movwf	_LED6_State
  7612                           
  7613                           ;pattern_fuction.c: 1500: LED7_State=2;
  7614  15FD  00CA               	movwf	_LED7_State
  7615                           
  7616                           ;pattern_fuction.c: 1501: LED8_State=2;
  7617  15FE  00CB               	movwf	_LED8_State
  7618                           
  7619                           ;pattern_fuction.c: 1502: LED9_State=2;
  7620  15FF  00CC               	movwf	_LED9_State
  7621                           
  7622                           ;pattern_fuction.c: 1503: LED10_State=2;
  7623  1600  00C1               	movwf	_LED10_State
  7624                           
  7625                           ;pattern_fuction.c: 1504: LED11_State=2;
  7626  1601  00C2               	movwf	_LED11_State
  7627                           
  7628                           ;pattern_fuction.c: 1505: LED12_State=2;
  7629  1602  1683               	bsf	3,5	;RP0=1, select bank1
  7630  1603  00E0               	movwf	_LED12_State^(0+128)
  7631                           
  7632                           ;pattern_fuction.c: 1506: Pattern_LED_Crt=1;
  7633  1604  01BB               	clrf	_Pattern_LED_Crt^(0+128)
  7634  1605  0ABB               	incf	_Pattern_LED_Crt^(0+128),f
  7635  1606  01BC               	clrf	(_Pattern_LED_Crt+1)^(0+128)
  7636                           
  7637                           ;pattern_fuction.c: 1507: break;
  7638  1607  0008               	return
  7639  1608                     l14743:	
  7640                           
  7641                           ;pattern_fuction.c: 1510: if(LED1_Flash_Times>3)
  7642  1608  3004               	movlw	4
  7643  1609  1283               	bcf	3,5	;RP0=0, select bank0
  7644  160A  0243               	subwf	_LED1_Flash_Times,w
  7645  160B  1C03               	skipc
  7646  160C  2E16               	goto	l14751
  7647                           
  7648                           ;pattern_fuction.c: 1511: {
  7649                           ;pattern_fuction.c: 1512: BG_LED_State=3;
  7650  160D  3003               	movlw	3
  7651  160E  00BA               	movwf	_BG_LED_State
  7652                           
  7653                           ;pattern_fuction.c: 1513: if(!LED_Flash_Bool)
  7654  160F  1AF2               	btfsc	_LED_Flash_Bool/(0+8),_LED_Flash_Bool& (0+7)
  7655  1610  2E16               	goto	l14751
  7656                           
  7657                           ;pattern_fuction.c: 1514: {
  7658                           ;pattern_fuction.c: 1515: LED1_State=0;
  7659  1611  01C4               	clrf	_LED1_State
  7660                           
  7661                           ;pattern_fuction.c: 1516: LED2_State=0;
  7662                           
  7663                           ;pattern_fuction.c: 1517: LED3_State=0;
  7664                           
  7665                           ;pattern_fuction.c: 1518: LED4_State=0;
  7666                           
  7667                           ;pattern_fuction.c: 1519: LED5_State=0;
  7668                           
  7669                           ;pattern_fuction.c: 1520: LED6_State=0;
  7670                           
  7671                           ;pattern_fuction.c: 1521: LED7_State=0;
  7672                           
  7673                           ;pattern_fuction.c: 1522: LED8_State=0;
  7674                           
  7675                           ;pattern_fuction.c: 1523: LED9_State=0;
  7676                           
  7677                           ;pattern_fuction.c: 1524: LED10_State=0;
  7678                           
  7679                           ;pattern_fuction.c: 1525: LED11_State=0;
  7680                           
  7681                           ;pattern_fuction.c: 1526: LED12_State=0;
  7682  1612  26E4  160A  118A   	fcall	PL12	;call to abstracted procedure
  7683  1615  01E0               	clrf	_LED12_State^(0+128)
  7684  1616                     l14751:	
  7685                           
  7686                           ;pattern_fuction.c: 1527: }
  7687                           ;pattern_fuction.c: 1528: }
  7688                           ;pattern_fuction.c: 1529: if(ANNULUS_LIGHT_Flash_Times>3)
  7689  1616  3004               	movlw	4
  7690  1617  027A               	subwf	_ANNULUS_LIGHT_Flash_Times,w
  7691  1618  1803               	btfsc	3,0
  7692                           
  7693                           ;pattern_fuction.c: 1530: {
  7694                           ;pattern_fuction.c: 1531: if(!LED_Flash_Bool)
  7695  1619  1AF2               	btfsc	_LED_Flash_Bool/(0+8),_LED_Flash_Bool& (0+7)
  7696  161A  0008               	return
  7697                           
  7698                           ;pattern_fuction.c: 1532: {
  7699                           ;pattern_fuction.c: 1533: ANNULUS_LIGHT_State=0;
  7700  161B  1283               	bcf	3,5	;RP0=0, select bank0
  7701  161C  01B7               	clrf	_ANNULUS_LIGHT_State
  7702                           
  7703                           ;pattern_fuction.c: 1534: SHOW_LIGHT_State=0;
  7704  161D  01D3               	clrf	_SHOW_LIGHT_State
  7705                           
  7706                           ;pattern_fuction.c: 1535: }
  7707                           ;pattern_fuction.c: 1536: }
  7708                           ;pattern_fuction.c: 1537: break;
  7709  161E  0008               	return
  7710  161F                     l5525:	
  7711                           ;pattern_fuction.c: 1539: case 2:
  7712                           
  7713                           
  7714                           ;pattern_fuction.c: 1540: BG_LED_State=1;
  7715  161F  1283               	bcf	3,5	;RP0=0, select bank0
  7716  1620  01BA               	clrf	_BG_LED_State
  7717  1621  0ABA               	incf	_BG_LED_State,f
  7718                           
  7719                           ;pattern_fuction.c: 1541: ANNULUS_LIGHT_State=0;
  7720  1622  01B7               	clrf	_ANNULUS_LIGHT_State
  7721                           
  7722                           ;pattern_fuction.c: 1542: SHOW_LIGHT_State=0;
  7723  1623  01D3               	clrf	_SHOW_LIGHT_State
  7724                           
  7725                           ;pattern_fuction.c: 1543: LED1_State=0;
  7726  1624  01C4               	clrf	_LED1_State
  7727                           
  7728                           ;pattern_fuction.c: 1544: LED2_State=0;
  7729                           
  7730                           ;pattern_fuction.c: 1545: LED3_State=0;
  7731                           
  7732                           ;pattern_fuction.c: 1546: LED4_State=0;
  7733                           
  7734                           ;pattern_fuction.c: 1547: LED5_State=0;
  7735                           
  7736                           ;pattern_fuction.c: 1548: LED6_State=0;
  7737                           
  7738                           ;pattern_fuction.c: 1549: LED7_State=0;
  7739                           
  7740                           ;pattern_fuction.c: 1550: LED8_State=0;
  7741                           
  7742                           ;pattern_fuction.c: 1551: LED9_State=0;
  7743                           
  7744                           ;pattern_fuction.c: 1552: LED10_State=0;
  7745                           
  7746                           ;pattern_fuction.c: 1553: LED11_State=0;
  7747                           
  7748                           ;pattern_fuction.c: 1554: LED12_State=0;
  7749  1625  26E4               	fcall	PL12	;call to abstracted procedure
  7750  1626  3003               	movlw	3
  7751  1627  01E0               	clrf	_LED12_State^(0+128)
  7752                           
  7753                           ;pattern_fuction.c: 1555: Pattern_LED_Crt=3;
  7754  1628  00BB               	movwf	_Pattern_LED_Crt^(0+128)
  7755  1629  01BC               	clrf	(_Pattern_LED_Crt+1)^(0+128)
  7756                           
  7757                           ;pattern_fuction.c: 1556: break;
  7758  162A  0008               	return
  7759  162B                     l14761:	
  7760                           
  7761                           ;pattern_fuction.c: 1560: if(Option)
  7762  162B  1283               	bcf	3,5	;RP0=0, select bank0
  7763  162C  084F               	movf	_Option,w
  7764  162D  1903               	btfsc	3,2
  7765  162E  2E32               	goto	l14765
  7766                           
  7767                           ;pattern_fuction.c: 1561: {
  7768                           ;pattern_fuction.c: 1562: LED11_State=1;
  7769  162F  01C2               	clrf	_LED11_State
  7770  1630  0AC2               	incf	_LED11_State,f
  7771                           
  7772                           ;pattern_fuction.c: 1563: }
  7773  1631  2E33               	goto	l14767
  7774  1632                     l14765:	
  7775                           
  7776                           ;pattern_fuction.c: 1564: else
  7777                           ;pattern_fuction.c: 1565: {
  7778                           ;pattern_fuction.c: 1566: LED11_State=0;
  7779  1632  01C2               	clrf	_LED11_State
  7780  1633                     l14767:	
  7781                           
  7782                           ;pattern_fuction.c: 1567: }
  7783                           ;pattern_fuction.c: 1568: if(Start)
  7784  1633  0855               	movf	_Start,w
  7785  1634  1903               	btfsc	3,2
  7786  1635  2E39               	goto	l14771
  7787                           
  7788                           ;pattern_fuction.c: 1569: {
  7789                           ;pattern_fuction.c: 1570: LED12_State=1;
  7790  1636  1683               	bsf	3,5	;RP0=1, select bank1
  7791  1637  01E0               	clrf	_LED12_State^(0+128)
  7792  1638  0AE0               	incf	_LED12_State^(0+128),f
  7793  1639                     l14771:	
  7794                           ;pattern_fuction.c: 1571: }
  7795                           
  7796                           
  7797                           ;pattern_fuction.c: 1575: }
  7798                           ;pattern_fuction.c: 1576: if(Regular)
  7799  1639  1283               	bcf	3,5	;RP0=0, select bank0
  7800  163A  0852               	movf	_Regular,w
  7801  163B  1903               	btfsc	3,2
  7802  163C  2E41               	goto	l14777
  7803                           
  7804                           ;pattern_fuction.c: 1577: {
  7805                           ;pattern_fuction.c: 1578: LED1_State=1;
  7806  163D  01C4               	clrf	_LED1_State
  7807  163E  0AC4               	incf	_LED1_State,f
  7808                           
  7809                           ;pattern_fuction.c: 1579: LED2_State=0;
  7810  163F  01C5               	clrf	_LED2_State
  7811  1640  2E47               	goto	L35
  7812  1641                     l14777:	
  7813                           ;pattern_fuction.c: 1582: }
  7814                           
  7815                           ;pattern_fuction.c: 1581: LED4_State=0;
  7816                           
  7817                           ;pattern_fuction.c: 1580: LED3_State=0;
  7818                           
  7819                           
  7820                           ;pattern_fuction.c: 1583: else if(Bold)
  7821  1641  083B               	movf	_Bold,w
  7822  1642  1903               	btfsc	3,2
  7823  1643  2E49               	goto	l14783
  7824                           
  7825                           ;pattern_fuction.c: 1584: {
  7826                           ;pattern_fuction.c: 1585: LED1_State=0;
  7827  1644  01C4               	clrf	_LED1_State
  7828                           
  7829                           ;pattern_fuction.c: 1586: LED2_State=1;
  7830  1645  01C5               	clrf	_LED2_State
  7831  1646  0AC5               	incf	_LED2_State,f
  7832  1647                     L35:	
  7833                           
  7834                           ;pattern_fuction.c: 1587: LED3_State=0;
  7835  1647  01C6               	clrf	_LED3_State
  7836  1648  2E50               	goto	L36
  7837  1649                     l14783:	
  7838                           ;pattern_fuction.c: 1589: }
  7839                           
  7840                           ;pattern_fuction.c: 1588: LED4_State=0;
  7841                           
  7842                           
  7843                           ;pattern_fuction.c: 1590: else if(Iced)
  7844  1649  083F               	movf	_Iced,w
  7845  164A  1903               	btfsc	3,2
  7846  164B  2E52               	goto	l14789
  7847                           
  7848                           ;pattern_fuction.c: 1591: {
  7849                           ;pattern_fuction.c: 1592: LED1_State=0;
  7850  164C  01C4               	clrf	_LED1_State
  7851                           
  7852                           ;pattern_fuction.c: 1593: LED2_State=0;
  7853  164D  01C5               	clrf	_LED2_State
  7854                           
  7855                           ;pattern_fuction.c: 1594: LED3_State=1;
  7856  164E  01C6               	clrf	_LED3_State
  7857  164F  0AC6               	incf	_LED3_State,f
  7858  1650                     L36:	
  7859                           
  7860                           ;pattern_fuction.c: 1595: LED4_State=0;
  7861  1650  01C7               	clrf	_LED4_State
  7862                           
  7863                           ;pattern_fuction.c: 1596: }
  7864  1651  2E5A               	goto	l14795
  7865  1652                     l14789:	
  7866                           
  7867                           ;pattern_fuction.c: 1597: else if(Tea)
  7868  1652  0856               	movf	_Tea,w
  7869  1653  1903               	btfsc	3,2
  7870  1654  2E5A               	goto	l14795
  7871                           
  7872                           ;pattern_fuction.c: 1598: {
  7873                           ;pattern_fuction.c: 1599: LED1_State=0;
  7874  1655  01C4               	clrf	_LED1_State
  7875                           
  7876                           ;pattern_fuction.c: 1600: LED2_State=0;
  7877  1656  01C5               	clrf	_LED2_State
  7878                           
  7879                           ;pattern_fuction.c: 1601: LED3_State=0;
  7880  1657  01C6               	clrf	_LED3_State
  7881                           
  7882                           ;pattern_fuction.c: 1602: LED4_State=1;
  7883  1658  01C7               	clrf	_LED4_State
  7884  1659  0AC7               	incf	_LED4_State,f
  7885  165A                     l14795:	
  7886                           
  7887                           ;pattern_fuction.c: 1603: }
  7888                           ;pattern_fuction.c: 1605: if(_80_z)
  7889  165A  085C               	movf	__80_z,w
  7890  165B  1903               	btfsc	3,2
  7891  165C  2E63               	goto	l14801
  7892                           
  7893                           ;pattern_fuction.c: 1606: {
  7894                           ;pattern_fuction.c: 1607: LED7_State=1;
  7895  165D  01CA               	clrf	_LED7_State
  7896  165E  0ACA               	incf	_LED7_State,f
  7897                           
  7898                           ;pattern_fuction.c: 1608: LED8_State=0;
  7899  165F  01CB               	clrf	_LED8_State
  7900                           
  7901                           ;pattern_fuction.c: 1609: LED9_State=0;
  7902  1660  01CC               	clrf	_LED9_State
  7903                           
  7904                           ;pattern_fuction.c: 1610: LED10_State=0;
  7905  1661  01C1               	clrf	_LED10_State
  7906                           
  7907                           ;pattern_fuction.c: 1611: }
  7908  1662  0008               	return
  7909  1663                     l14801:	
  7910                           
  7911                           ;pattern_fuction.c: 1612: else if(_120_z)
  7912  1663  0859               	movf	__120_z,w
  7913  1664  1903               	btfsc	3,2
  7914  1665  2E6C               	goto	l14807
  7915                           
  7916                           ;pattern_fuction.c: 1613: {
  7917                           ;pattern_fuction.c: 1614: LED7_State=0;
  7918  1666  01CA               	clrf	_LED7_State
  7919                           
  7920                           ;pattern_fuction.c: 1615: LED8_State=1;
  7921  1667  01CB               	clrf	_LED8_State
  7922  1668  0ACB               	incf	_LED8_State,f
  7923                           
  7924                           ;pattern_fuction.c: 1616: LED9_State=0;
  7925  1669  01CC               	clrf	_LED9_State
  7926                           
  7927                           ;pattern_fuction.c: 1617: LED10_State=0;
  7928  166A  01C1               	clrf	_LED10_State
  7929                           
  7930                           ;pattern_fuction.c: 1618: }
  7931  166B  0008               	return
  7932  166C                     l14807:	
  7933                           
  7934                           ;pattern_fuction.c: 1619: else if(_210_z)
  7935  166C  085A               	movf	__210_z,w
  7936  166D  1903               	btfsc	3,2
  7937  166E  2E75               	goto	l14813
  7938                           
  7939                           ;pattern_fuction.c: 1620: {
  7940                           ;pattern_fuction.c: 1621: LED7_State=0;
  7941  166F  01CA               	clrf	_LED7_State
  7942                           
  7943                           ;pattern_fuction.c: 1622: LED8_State=0;
  7944  1670  01CB               	clrf	_LED8_State
  7945                           
  7946                           ;pattern_fuction.c: 1623: LED9_State=1;
  7947  1671  01CC               	clrf	_LED9_State
  7948  1672  0ACC               	incf	_LED9_State,f
  7949                           
  7950                           ;pattern_fuction.c: 1624: LED10_State=0;
  7951  1673  01C1               	clrf	_LED10_State
  7952                           
  7953                           ;pattern_fuction.c: 1625: }
  7954  1674  0008               	return
  7955  1675                     l14813:	
  7956                           
  7957                           ;pattern_fuction.c: 1626: else if(_420_z)
  7958  1675  085B               	movf	__420_z,w
  7959  1676  1903               	btfsc	3,2
  7960  1677  0008               	return
  7961                           
  7962                           ;pattern_fuction.c: 1627: {
  7963                           ;pattern_fuction.c: 1628: LED7_State=0;
  7964  1678  01CA               	clrf	_LED7_State
  7965                           
  7966                           ;pattern_fuction.c: 1629: LED8_State=0;
  7967  1679  01CB               	clrf	_LED8_State
  7968                           
  7969                           ;pattern_fuction.c: 1630: LED9_State=0;
  7970  167A  01CC               	clrf	_LED9_State
  7971                           
  7972                           ;pattern_fuction.c: 1631: LED10_State=1;
  7973  167B  01C1               	clrf	_LED10_State
  7974  167C  0AC1               	incf	_LED10_State,f
  7975  167D  0008               	return
  7976  167E                     l14819:	
  7977                           
  7978                           ;pattern_fuction.c: 1635: Pattern_LED_Crt=5;
  7979  167E  3005               	movlw	5
  7980  167F  00BB               	movwf	_Pattern_LED_Crt^(0+128)
  7981  1680  01BC               	clrf	(_Pattern_LED_Crt+1)^(0+128)
  7982                           
  7983                           ;pattern_fuction.c: 1636: break;
  7984  1681  0008               	return
  7985  1682                     l5546:	
  7986                           ;pattern_fuction.c: 1638: case 5:
  7987                           
  7988                           
  7989                           ;pattern_fuction.c: 1639: BG_LED_State=1;
  7990  1682  1283               	bcf	3,5	;RP0=0, select bank0
  7991  1683  3002               	movlw	2
  7992  1684  01BA               	clrf	_BG_LED_State
  7993  1685  0ABA               	incf	_BG_LED_State,f
  7994                           
  7995                           ;pattern_fuction.c: 1640: LED12_State=2;
  7996  1686  1683               	bsf	3,5	;RP0=1, select bank1
  7997  1687  00E0               	movwf	_LED12_State^(0+128)
  7998                           
  7999                           ;pattern_fuction.c: 1641: LED12_Flash_Times=0;
  8000  1688  01DF               	clrf	_LED12_Flash_Times^(0+128)
  8001                           
  8002                           ;pattern_fuction.c: 1642: if(Regular)
  8003  1689  1283               	bcf	3,5	;RP0=0, select bank0
  8004  168A  0852               	movf	_Regular,w
  8005  168B  1903               	btfsc	3,2
  8006  168C  2E91               	goto	l14831
  8007                           
  8008                           ;pattern_fuction.c: 1643: {
  8009                           ;pattern_fuction.c: 1644: LED1_State=2;
  8010  168D  3002               	movlw	2
  8011  168E  00C4               	movwf	_LED1_State
  8012                           
  8013                           ;pattern_fuction.c: 1645: LED1_Flash_Times=0;
  8014  168F  01C3               	clrf	_LED1_Flash_Times
  8015                           
  8016                           ;pattern_fuction.c: 1646: }
  8017  1690  2EA8               	goto	l14849
  8018  1691                     l14831:	
  8019                           
  8020                           ;pattern_fuction.c: 1647: else
  8021                           ;pattern_fuction.c: 1648: if(Bold)
  8022  1691  083B               	movf	_Bold,w
  8023  1692  1903               	btfsc	3,2
  8024  1693  2E99               	goto	l14837
  8025                           
  8026                           ;pattern_fuction.c: 1649: {
  8027                           ;pattern_fuction.c: 1650: LED2_State=2;
  8028  1694  3002               	movlw	2
  8029  1695  00C5               	movwf	_LED2_State
  8030                           
  8031                           ;pattern_fuction.c: 1651: LED2_Flash_Times=0;
  8032  1696  1683               	bsf	3,5	;RP0=1, select bank1
  8033  1697  01E1               	clrf	_LED2_Flash_Times^(0+128)
  8034                           
  8035                           ;pattern_fuction.c: 1652: }
  8036  1698  2EA8               	goto	l14849
  8037  1699                     l14837:	
  8038                           
  8039                           ;pattern_fuction.c: 1653: else
  8040                           ;pattern_fuction.c: 1654: if(Iced)
  8041  1699  083F               	movf	_Iced,w
  8042  169A  1903               	btfsc	3,2
  8043  169B  2EA1               	goto	l14843
  8044                           
  8045                           ;pattern_fuction.c: 1655: {
  8046                           ;pattern_fuction.c: 1656: LED3_State=2;
  8047  169C  3002               	movlw	2
  8048  169D  00C6               	movwf	_LED3_State
  8049                           
  8050                           ;pattern_fuction.c: 1657: LED3_Flash_Times=0;
  8051  169E  1683               	bsf	3,5	;RP0=1, select bank1
  8052  169F  01E2               	clrf	_LED3_Flash_Times^(0+128)
  8053                           
  8054                           ;pattern_fuction.c: 1658: }
  8055  16A0  2EA8               	goto	l14849
  8056  16A1                     l14843:	
  8057                           
  8058                           ;pattern_fuction.c: 1659: else
  8059                           ;pattern_fuction.c: 1660: if(Tea)
  8060  16A1  0856               	movf	_Tea,w
  8061  16A2  1903               	btfsc	3,2
  8062  16A3  2EA8               	goto	l14849
  8063                           
  8064                           ;pattern_fuction.c: 1661: {
  8065                           ;pattern_fuction.c: 1662: LED4_State=2;
  8066  16A4  3002               	movlw	2
  8067  16A5  00C7               	movwf	_LED4_State
  8068                           
  8069                           ;pattern_fuction.c: 1663: LED4_Flash_Times=0;
  8070  16A6  1683               	bsf	3,5	;RP0=1, select bank1
  8071  16A7  01E3               	clrf	_LED4_Flash_Times^(0+128)
  8072  16A8                     l14849:	
  8073                           
  8074                           ;pattern_fuction.c: 1664: }
  8075                           ;pattern_fuction.c: 1665: if(_80_z)
  8076  16A8  1283               	bcf	3,5	;RP0=0, select bank0
  8077  16A9  085C               	movf	__80_z,w
  8078  16AA  1903               	btfsc	3,2
  8079  16AB  2EB1               	goto	l14855
  8080                           
  8081                           ;pattern_fuction.c: 1666: {
  8082                           ;pattern_fuction.c: 1667: LED7_State=2;
  8083  16AC  3002               	movlw	2
  8084  16AD  00CA               	movwf	_LED7_State
  8085                           
  8086                           ;pattern_fuction.c: 1668: LED7_Flash_Times=0;
  8087  16AE  1683               	bsf	3,5	;RP0=1, select bank1
  8088  16AF  01E6               	clrf	_LED7_Flash_Times^(0+128)
  8089                           
  8090                           ;pattern_fuction.c: 1669: }
  8091  16B0  0008               	return
  8092  16B1                     l14855:	
  8093                           
  8094                           ;pattern_fuction.c: 1670: else
  8095                           ;pattern_fuction.c: 1671: if(_120_z)
  8096  16B1  0859               	movf	__120_z,w
  8097  16B2  1903               	btfsc	3,2
  8098  16B3  2EB9               	goto	l14861
  8099                           
  8100                           ;pattern_fuction.c: 1672: {
  8101                           ;pattern_fuction.c: 1673: LED8_State=2;
  8102  16B4  3002               	movlw	2
  8103  16B5  00CB               	movwf	_LED8_State
  8104                           
  8105                           ;pattern_fuction.c: 1674: LED8_Flash_Times=0;
  8106  16B6  1683               	bsf	3,5	;RP0=1, select bank1
  8107  16B7  01E7               	clrf	_LED8_Flash_Times^(0+128)
  8108                           
  8109                           ;pattern_fuction.c: 1675: }
  8110  16B8  0008               	return
  8111  16B9                     l14861:	
  8112                           
  8113                           ;pattern_fuction.c: 1676: else
  8114                           ;pattern_fuction.c: 1677: if(_210_z)
  8115  16B9  085A               	movf	__210_z,w
  8116  16BA  1903               	btfsc	3,2
  8117  16BB  2EC1               	goto	l14867
  8118                           
  8119                           ;pattern_fuction.c: 1678: {
  8120                           ;pattern_fuction.c: 1679: LED9_State=2;
  8121  16BC  3002               	movlw	2
  8122  16BD  00CC               	movwf	_LED9_State
  8123                           
  8124                           ;pattern_fuction.c: 1680: LED9_Flash_Times=0;
  8125  16BE  1683               	bsf	3,5	;RP0=1, select bank1
  8126  16BF  01E8               	clrf	_LED9_Flash_Times^(0+128)
  8127                           
  8128                           ;pattern_fuction.c: 1681: }
  8129  16C0  0008               	return
  8130  16C1                     l14867:	
  8131                           
  8132                           ;pattern_fuction.c: 1682: else
  8133                           ;pattern_fuction.c: 1683: if(_420_z)
  8134  16C1  085B               	movf	__420_z,w
  8135  16C2  1903               	btfsc	3,2
  8136  16C3  0008               	return
  8137                           
  8138                           ;pattern_fuction.c: 1684: {
  8139                           ;pattern_fuction.c: 1685: LED10_State=2;
  8140  16C4  3002               	movlw	2
  8141  16C5  00C1               	movwf	_LED10_State
  8142                           
  8143                           ;pattern_fuction.c: 1686: LED10_Flash_Times=0;
  8144  16C6  1683               	bsf	3,5	;RP0=1, select bank1
  8145  16C7  01DD               	clrf	_LED10_Flash_Times^(0+128)
  8146  16C8  0008               	return
  8147  16C9                     l14875:	
  8148                           
  8149                           ; Switch on 2 bytes has been partitioned into a top level switch of size 1, and 1 sub-sw
      +                          itches
  8150                           ; Switch size 1, requested type "space"
  8151                           ; Number of cases is 1, Range of values is 0 to 0
  8152                           ; switch strategies available:
  8153                           ; Name         Instructions Cycles
  8154                           ; simple_byte            4     3 (average)
  8155                           ; direct_byte           11     8 (fixed)
  8156                           ; jumptable            260     6 (fixed)
  8157                           ; rangetable             5     6 (fixed)
  8158                           ; spacedrange            8     9 (fixed)
  8159                           ; locatedrange           1     3 (fixed)
  8160                           ;	Chosen strategy is simple_byte
  8161  16C9  1683               	bsf	3,5	;RP0=1, select bank1
  8162  16CA  083C               	movf	(_Pattern_LED_Crt+1)^(0+128),w
  8163  16CB  3A00               	xorlw	0	; case 0
  8164  16CC  1903               	skipnz
  8165  16CD  2ECF               	goto	l16481
  8166  16CE  2EE3               	goto	l5561
  8167  16CF                     l16481:	
  8168                           
  8169                           ; Switch size 1, requested type "space"
  8170                           ; Number of cases is 6, Range of values is 0 to 5
  8171                           ; switch strategies available:
  8172                           ; Name         Instructions Cycles
  8173                           ; simple_byte           19    10 (average)
  8174                           ; direct_byte           26     8 (fixed)
  8175                           ; jumptable            260     6 (fixed)
  8176                           ; rangetable            10     6 (fixed)
  8177                           ; spacedrange           18     9 (fixed)
  8178                           ; locatedrange           6     3 (fixed)
  8179                           ;	Chosen strategy is simple_byte
  8180  16CF  083B               	movf	_Pattern_LED_Crt^(0+128),w
  8181  16D0  3A00               	xorlw	0	; case 0
  8182  16D1  1903               	skipnz
  8183  16D2  2DEA               	goto	l14699
  8184  16D3  3A01               	xorlw	1	; case 1
  8185  16D4  1903               	skipnz
  8186  16D5  2E08               	goto	l14743
  8187  16D6  3A03               	xorlw	3	; case 2
  8188  16D7  1903               	skipnz
  8189  16D8  2E1F               	goto	l5525
  8190  16D9  3A01               	xorlw	1	; case 3
  8191  16DA  1903               	skipnz
  8192  16DB  2E2B               	goto	l14761
  8193  16DC  3A07               	xorlw	7	; case 4
  8194  16DD  1903               	skipnz
  8195  16DE  2E7E               	goto	l14819
  8196  16DF  3A01               	xorlw	1	; case 5
  8197  16E0  1903               	skipnz
  8198  16E1  2E82               	goto	l5546
  8199  16E2  2EE3               	goto	l5561
  8200  16E3                     l5561:	
  8201  16E3  0008               	return
  8202  16E4                     __end_of_LED_Crt:	
  8203  16E4                     PL12:	
  8204  16E4  01C5               	clrf	_LED2_State
  8205  16E5  01C6               	clrf	_LED3_State
  8206  16E6  01C7               	clrf	_LED4_State
  8207  16E7  01C8               	clrf	_LED5_State
  8208  16E8  01C9               	clrf	_LED6_State
  8209  16E9  01CA               	clrf	_LED7_State
  8210  16EA  01CB               	clrf	_LED8_State
  8211  16EB  01CC               	clrf	_LED9_State
  8212  16EC  01C1               	clrf	_LED10_State
  8213  16ED  01C2               	clrf	_LED11_State
  8214  16EE  1683               	bsf	3,5	;RP0=1, select bank1
  8215  16EF  0008               	return
  8216                           
  8217                           	psect	text1293
  8218  1487                     __ptext1293:	
  8219 ;; =============== function _LED_Crt ends ============
  8220                           
  8221                           
  8222 ;; *************** function _HOT_MAJOR_State_F *****************
  8223 ;; Defined at:
  8224 ;;		line 595 in file "E:\BBA'DATA\\\V4.7\pattern_fuction.c"
  8225 ;; Parameters:    Size  Location     Type
  8226 ;;		None
  8227 ;; Auto vars:     Size  Location     Type
  8228 ;;		None
  8229 ;; Return value:  Size  Location     Type
  8230 ;;		None               void
  8231 ;; Registers used:
  8232 ;;		wreg, fsr0l, fsr0h, status,2, status,0
  8233 ;; Tracked objects:
  8234 ;;		On entry : 40/0
  8235 ;;		On exit  : 40/0
  8236 ;;		Unchanged: FFF9F/0
  8237 ;; Data sizes:     COMMON   BANK0   BANK1   BANK3   BANK2
  8238 ;;      Params:         0       0       0       0       0
  8239 ;;      Locals:         0       0       0       0       0
  8240 ;;      Temps:          0       0       0       0       0
  8241 ;;      Totals:         0       0       0       0       0
  8242 ;;Total ram usage:        0 bytes
  8243 ;; Hardware stack levels used:    1
  8244 ;; Hardware stack levels required when called:    3
  8245 ;; This function calls:
  8246 ;;		Nothing
  8247 ;; This function is called by:
  8248 ;;		_main
  8249 ;; This function uses a non-reentrant model
  8250 ;;
  8251  1487                     _HOT_MAJOR_State_F:	
  8252                           
  8253                           ;pattern_fuction.c: 596: switch(HOT_MAJOR_State)
  8254                           
  8255                           ; Regs used in _HOT_MAJOR_State_F: [wreg-fsr0h+status,2+status,0]
  8256  1487  2CC2               	goto	l14695
  8257  1488                     l5321:	
  8258                           ;pattern_fuction.c: 597: {
  8259                           ;pattern_fuction.c: 598: case 0:
  8260                           
  8261                           
  8262                           ;pattern_fuction.c: 599: RA6=0;
  8263  1488  1305               	bcf	5,6
  8264                           
  8265                           ;pattern_fuction.c: 600: break;
  8266  1489  0008               	return
  8267  148A                     l5323:	
  8268                           ;pattern_fuction.c: 601: case 1:
  8269                           
  8270                           
  8271                           ;pattern_fuction.c: 602: RA6=1;
  8272  148A  1705               	bsf	5,6
  8273                           
  8274                           ;pattern_fuction.c: 603: break;
  8275  148B  0008               	return
  8276  148C                     l5324:	
  8277                           ;pattern_fuction.c: 604: case 2:
  8278                           
  8279                           
  8280                           ;pattern_fuction.c: 605: RA6=1;
  8281  148C  1705               	bsf	5,6
  8282                           
  8283                           ;pattern_fuction.c: 606: if(++HOT_MAJOR_ON_Times>=250)
  8284  148D  1683               	bsf	3,5	;RP0=1, select bank1
  8285  148E  0AAF               	incf	_HOT_MAJOR_ON_Times^(0+128),f
  8286  148F  1903               	skipnz
  8287  1490  0AB0               	incf	(_HOT_MAJOR_ON_Times+1)^(0+128),f
  8288  1491  3000               	movlw	0
  8289  1492  0230               	subwf	(_HOT_MAJOR_ON_Times+1)^(0+128),w
  8290  1493  30FA               	movlw	250
  8291  1494  1903               	skipnz
  8292  1495  022F               	subwf	_HOT_MAJOR_ON_Times^(0+128),w
  8293  1496  1C03               	skipc
  8294  1497  2CA4               	goto	l14681
  8295  1498  3000               	movlw	0
  8296                           
  8297                           ;pattern_fuction.c: 607: {
  8298                           ;pattern_fuction.c: 608: HOT_MAJOR_ON_Times=0;
  8299  1499  01AF               	clrf	_HOT_MAJOR_ON_Times^(0+128)
  8300  149A  01B0               	clrf	(_HOT_MAJOR_ON_Times+1)^(0+128)
  8301                           
  8302                           ;pattern_fuction.c: 609: if(HOT_MAJOR_ON_Time<255)
  8303  149B  022E               	subwf	(_HOT_MAJOR_ON_Time+1)^(0+128),w
  8304  149C  30FF               	movlw	255
  8305  149D  1903               	skipnz
  8306  149E  022D               	subwf	_HOT_MAJOR_ON_Time^(0+128),w
  8307  149F  1803               	skipnc
  8308  14A0  2CA4               	goto	l14681
  8309                           
  8310                           ;pattern_fuction.c: 610: HOT_MAJOR_ON_Time++;
  8311  14A1  0AAD               	incf	_HOT_MAJOR_ON_Time^(0+128),f
  8312  14A2  1903               	skipnz
  8313  14A3  0AAE               	incf	(_HOT_MAJOR_ON_Time+1)^(0+128),f
  8314  14A4                     l14681:	
  8315                           
  8316                           ;pattern_fuction.c: 611: }
  8317                           ;pattern_fuction.c: 612: HOT_MAJOR_OFF_Time=0;
  8318  14A4  01A9               	clrf	_HOT_MAJOR_OFF_Time^(0+128)
  8319  14A5  01AA               	clrf	(_HOT_MAJOR_OFF_Time+1)^(0+128)
  8320                           
  8321                           ;pattern_fuction.c: 613: break;
  8322  14A6  0008               	return
  8323  14A7                     l5327:	
  8324                           ;pattern_fuction.c: 615: case 3:
  8325                           
  8326                           
  8327                           ;pattern_fuction.c: 616: RA6=0;
  8328  14A7  1305               	bcf	5,6
  8329                           
  8330                           ;pattern_fuction.c: 617: if(++HOT_MAJOR_OFF_Times>=250)
  8331  14A8  1683               	bsf	3,5	;RP0=1, select bank1
  8332  14A9  0AAB               	incf	_HOT_MAJOR_OFF_Times^(0+128),f
  8333  14AA  1903               	skipnz
  8334  14AB  0AAC               	incf	(_HOT_MAJOR_OFF_Times+1)^(0+128),f
  8335  14AC  3000               	movlw	0
  8336  14AD  022C               	subwf	(_HOT_MAJOR_OFF_Times+1)^(0+128),w
  8337  14AE  30FA               	movlw	250
  8338  14AF  1903               	skipnz
  8339  14B0  022B               	subwf	_HOT_MAJOR_OFF_Times^(0+128),w
  8340  14B1  1C03               	skipc
  8341  14B2  2CBF               	goto	l14691
  8342  14B3  3000               	movlw	0
  8343                           
  8344                           ;pattern_fuction.c: 618: {
  8345                           ;pattern_fuction.c: 619: HOT_MAJOR_OFF_Times=0;
  8346  14B4  01AB               	clrf	_HOT_MAJOR_OFF_Times^(0+128)
  8347  14B5  01AC               	clrf	(_HOT_MAJOR_OFF_Times+1)^(0+128)
  8348                           
  8349                           ;pattern_fuction.c: 620: if(HOT_MAJOR_OFF_Time<255)
  8350  14B6  022A               	subwf	(_HOT_MAJOR_OFF_Time+1)^(0+128),w
  8351  14B7  30FF               	movlw	255
  8352  14B8  1903               	skipnz
  8353  14B9  0229               	subwf	_HOT_MAJOR_OFF_Time^(0+128),w
  8354  14BA  1803               	skipnc
  8355  14BB  2CBF               	goto	l14691
  8356                           
  8357                           ;pattern_fuction.c: 621: HOT_MAJOR_OFF_Time++;
  8358  14BC  0AA9               	incf	_HOT_MAJOR_OFF_Time^(0+128),f
  8359  14BD  1903               	skipnz
  8360  14BE  0AAA               	incf	(_HOT_MAJOR_OFF_Time+1)^(0+128),f
  8361  14BF                     l14691:	
  8362                           
  8363                           ;pattern_fuction.c: 622: }
  8364                           ;pattern_fuction.c: 623: HOT_MAJOR_ON_Time=0;
  8365  14BF  01AD               	clrf	_HOT_MAJOR_ON_Time^(0+128)
  8366  14C0  01AE               	clrf	(_HOT_MAJOR_ON_Time+1)^(0+128)
  8367                           
  8368                           ;pattern_fuction.c: 624: break;
  8369  14C1  0008               	return
  8370  14C2                     l14695:	
  8371  14C2  1283               	bcf	3,5	;RP0=0, select bank0
  8372  14C3  083D               	movf	_HOT_MAJOR_State,w
  8373                           
  8374                           ; Switch size 1, requested type "space"
  8375                           ; Number of cases is 4, Range of values is 0 to 3
  8376                           ; switch strategies available:
  8377                           ; Name         Instructions Cycles
  8378                           ; simple_byte           13     7 (average)
  8379                           ; direct_byte           20     8 (fixed)
  8380                           ; jumptable            260     6 (fixed)
  8381                           ; rangetable             8     6 (fixed)
  8382                           ; spacedrange           14     9 (fixed)
  8383                           ; locatedrange           4     3 (fixed)
  8384                           ;	Chosen strategy is simple_byte
  8385  14C4  3A00               	xorlw	0	; case 0
  8386  14C5  1903               	skipnz
  8387  14C6  2C88               	goto	l5321
  8388  14C7  3A01               	xorlw	1	; case 1
  8389  14C8  1903               	skipnz
  8390  14C9  2C8A               	goto	l5323
  8391  14CA  3A03               	xorlw	3	; case 2
  8392  14CB  1903               	skipnz
  8393  14CC  2C8C               	goto	l5324
  8394  14CD  3A01               	xorlw	1	; case 3
  8395  14CE  1903               	skipnz
  8396  14CF  2CA7               	goto	l5327
  8397  14D0  2CD1               	goto	l5330
  8398  14D1                     l5330:	
  8399  14D1  0008               	return
  8400  14D2                     __end_of_HOT_MAJOR_State_F:	
  8401                           
  8402                           	psect	text1294
  8403  1440                     __ptext1294:	
  8404 ;; =============== function _HOT_MAJOR_State_F ends ============
  8405                           
  8406                           
  8407 ;; *************** function _Solenoid_State_F *****************
  8408 ;; Defined at:
  8409 ;;		line 631 in file "E:\BBA'DATA\\\V4.7\pattern_fuction.c"
  8410 ;; Parameters:    Size  Location     Type
  8411 ;;		None
  8412 ;; Auto vars:     Size  Location     Type
  8413 ;;		None
  8414 ;; Return value:  Size  Location     Type
  8415 ;;		None               void
  8416 ;; Registers used:
  8417 ;;		wreg, fsr0l, fsr0h, status,2, status,0
  8418 ;; Tracked objects:
  8419 ;;		On entry : 40/0
  8420 ;;		On exit  : 40/0
  8421 ;;		Unchanged: FFF9F/0
  8422 ;; Data sizes:     COMMON   BANK0   BANK1   BANK3   BANK2
  8423 ;;      Params:         0       0       0       0       0
  8424 ;;      Locals:         0       0       0       0       0
  8425 ;;      Temps:          0       0       0       0       0
  8426 ;;      Totals:         0       0       0       0       0
  8427 ;;Total ram usage:        0 bytes
  8428 ;; Hardware stack levels used:    1
  8429 ;; Hardware stack levels required when called:    3
  8430 ;; This function calls:
  8431 ;;		Nothing
  8432 ;; This function is called by:
  8433 ;;		_main
  8434 ;; This function uses a non-reentrant model
  8435 ;;
  8436  1440                     _Solenoid_State_F:	
  8437                           
  8438                           ;pattern_fuction.c: 632: switch(Solenoid_State)
  8439                           
  8440                           ; Regs used in _Solenoid_State_F: [wreg-fsr0h+status,2+status,0]
  8441  1440  2C77               	goto	l14669
  8442  1441                     l5334:	
  8443                           ;pattern_fuction.c: 633: {
  8444                           ;pattern_fuction.c: 634: case 0:
  8445                           
  8446                           
  8447                           ;pattern_fuction.c: 635: RE2=0;
  8448  1441  1109               	bcf	9,2
  8449                           
  8450                           ;pattern_fuction.c: 636: break;
  8451  1442  0008               	return
  8452  1443                     l5336:	
  8453                           ;pattern_fuction.c: 637: case 1:
  8454                           
  8455                           
  8456                           ;pattern_fuction.c: 638: RE2=1;
  8457  1443  1509               	bsf	9,2
  8458                           
  8459                           ;pattern_fuction.c: 639: break;
  8460  1444  0008               	return
  8461  1445                     l5337:	
  8462                           ;pattern_fuction.c: 640: case 2:
  8463                           
  8464                           
  8465                           ;pattern_fuction.c: 641: RE2=1;
  8466  1445  1509               	bsf	9,2
  8467                           
  8468                           ;pattern_fuction.c: 642: if(Solenoid_ON_Times++>250)
  8469  1446  1683               	bsf	3,5	;RP0=1, select bank1
  8470  1447  0AC5               	incf	_Solenoid_ON_Times^(0+128),f
  8471  1448  1903               	skipnz
  8472  1449  0AC6               	incf	(_Solenoid_ON_Times+1)^(0+128),f
  8473  144A  3000               	movlw	0
  8474  144B  0246               	subwf	(_Solenoid_ON_Times+1)^(0+128),w
  8475  144C  30FC               	movlw	252
  8476  144D  1903               	skipnz
  8477  144E  0245               	subwf	_Solenoid_ON_Times^(0+128),w
  8478  144F  1C03               	skipc
  8479  1450  2C5B               	goto	l14655
  8480                           
  8481                           ;pattern_fuction.c: 643: {
  8482                           ;pattern_fuction.c: 644: Solenoid_ON_Times=0;
  8483  1451  01C5               	clrf	_Solenoid_ON_Times^(0+128)
  8484  1452  01C6               	clrf	(_Solenoid_ON_Times+1)^(0+128)
  8485                           
  8486                           ;pattern_fuction.c: 645: if(Solenoid_ON_Time<65535)
  8487  1453  0A43               	incf	_Solenoid_ON_Time^(0+128),w
  8488  1454  1903               	skipnz
  8489  1455  0A44               	incf	(_Solenoid_ON_Time+1)^(0+128),w
  8490  1456  1903               	skipnz
  8491  1457  2C5B               	goto	l14655
  8492                           
  8493                           ;pattern_fuction.c: 646: Solenoid_ON_Time++;
  8494  1458  0AC3               	incf	_Solenoid_ON_Time^(0+128),f
  8495  1459  1903               	skipnz
  8496  145A  0AC4               	incf	(_Solenoid_ON_Time+1)^(0+128),f
  8497  145B                     l14655:	
  8498                           
  8499                           ;pattern_fuction.c: 647: }
  8500                           ;pattern_fuction.c: 648: Solenoid_OFF_Time=0;
  8501  145B  01BF               	clrf	_Solenoid_OFF_Time^(0+128)
  8502  145C  01C0               	clrf	(_Solenoid_OFF_Time+1)^(0+128)
  8503                           
  8504                           ;pattern_fuction.c: 649: break;
  8505  145D  0008               	return
  8506  145E                     l5340:	
  8507                           ;pattern_fuction.c: 650: case 3:
  8508                           
  8509                           
  8510                           ;pattern_fuction.c: 651: RE2=0;
  8511  145E  1109               	bcf	9,2
  8512                           
  8513                           ;pattern_fuction.c: 652: if(++Solenoid_OFF_Times>=250)
  8514  145F  1683               	bsf	3,5	;RP0=1, select bank1
  8515  1460  0AC1               	incf	_Solenoid_OFF_Times^(0+128),f
  8516  1461  1903               	skipnz
  8517  1462  0AC2               	incf	(_Solenoid_OFF_Times+1)^(0+128),f
  8518  1463  3000               	movlw	0
  8519  1464  0242               	subwf	(_Solenoid_OFF_Times+1)^(0+128),w
  8520  1465  30FA               	movlw	250
  8521  1466  1903               	skipnz
  8522  1467  0241               	subwf	_Solenoid_OFF_Times^(0+128),w
  8523  1468  1C03               	skipc
  8524  1469  2C74               	goto	l14665
  8525                           
  8526                           ;pattern_fuction.c: 653: {
  8527                           ;pattern_fuction.c: 654: Solenoid_OFF_Times=0;
  8528  146A  01C1               	clrf	_Solenoid_OFF_Times^(0+128)
  8529  146B  01C2               	clrf	(_Solenoid_OFF_Times+1)^(0+128)
  8530                           
  8531                           ;pattern_fuction.c: 655: if(Solenoid_OFF_Time<65535)
  8532  146C  0A3F               	incf	_Solenoid_OFF_Time^(0+128),w
  8533  146D  1903               	skipnz
  8534  146E  0A40               	incf	(_Solenoid_OFF_Time+1)^(0+128),w
  8535  146F  1903               	skipnz
  8536  1470  2C74               	goto	l14665
  8537                           
  8538                           ;pattern_fuction.c: 656: Solenoid_OFF_Time++;
  8539  1471  0ABF               	incf	_Solenoid_OFF_Time^(0+128),f
  8540  1472  1903               	skipnz
  8541  1473  0AC0               	incf	(_Solenoid_OFF_Time+1)^(0+128),f
  8542  1474                     l14665:	
  8543                           
  8544                           ;pattern_fuction.c: 657: }
  8545                           ;pattern_fuction.c: 659: Solenoid_ON_Time=0;
  8546  1474  01C3               	clrf	_Solenoid_ON_Time^(0+128)
  8547  1475  01C4               	clrf	(_Solenoid_ON_Time+1)^(0+128)
  8548                           
  8549                           ;pattern_fuction.c: 660: break;
  8550  1476  0008               	return
  8551  1477                     l14669:	
  8552  1477  1283               	bcf	3,5	;RP0=0, select bank0
  8553  1478  0854               	movf	_Solenoid_State,w
  8554                           
  8555                           ; Switch size 1, requested type "space"
  8556                           ; Number of cases is 4, Range of values is 0 to 3
  8557                           ; switch strategies available:
  8558                           ; Name         Instructions Cycles
  8559                           ; simple_byte           13     7 (average)
  8560                           ; direct_byte           20     8 (fixed)
  8561                           ; jumptable            260     6 (fixed)
  8562                           ; rangetable             8     6 (fixed)
  8563                           ; spacedrange           14     9 (fixed)
  8564                           ; locatedrange           4     3 (fixed)
  8565                           ;	Chosen strategy is simple_byte
  8566  1479  3A00               	xorlw	0	; case 0
  8567  147A  1903               	skipnz
  8568  147B  2C41               	goto	l5334
  8569  147C  3A01               	xorlw	1	; case 1
  8570  147D  1903               	skipnz
  8571  147E  2C43               	goto	l5336
  8572  147F  3A03               	xorlw	3	; case 2
  8573  1480  1903               	skipnz
  8574  1481  2C45               	goto	l5337
  8575  1482  3A01               	xorlw	1	; case 3
  8576  1483  1903               	skipnz
  8577  1484  2C5E               	goto	l5340
  8578  1485  2C86               	goto	l5343
  8579  1486                     l5343:	
  8580  1486  0008               	return
  8581  1487                     __end_of_Solenoid_State_F:	
  8582                           
  8583                           	psect	text1295
  8584  0B2F                     __ptext1295:	
  8585 ;; =============== function _Solenoid_State_F ends ============
  8586                           
  8587                           
  8588 ;; *************** function _LED_State *****************
  8589 ;; Defined at:
  8590 ;;		line 54 in file "E:\BBA'DATA\\\V4.7\pattern_fuction.c"
  8591 ;; Parameters:    Size  Location     Type
  8592 ;;		None
  8593 ;; Auto vars:     Size  Location     Type
  8594 ;;		None
  8595 ;; Return value:  Size  Location     Type
  8596 ;;		None               void
  8597 ;; Registers used:
  8598 ;;		wreg, fsr0l, fsr0h, status,2, status,0
  8599 ;; Tracked objects:
  8600 ;;		On entry : 60/0
  8601 ;;		On exit  : 40/0
  8602 ;;		Unchanged: FFF9F/0
  8603 ;; Data sizes:     COMMON   BANK0   BANK1   BANK3   BANK2
  8604 ;;      Params:         0       0       0       0       0
  8605 ;;      Locals:         0       0       0       0       0
  8606 ;;      Temps:          0       0       0       0       0
  8607 ;;      Totals:         0       0       0       0       0
  8608 ;;Total ram usage:        0 bytes
  8609 ;; Hardware stack levels used:    1
  8610 ;; Hardware stack levels required when called:    3
  8611 ;; This function calls:
  8612 ;;		Nothing
  8613 ;; This function is called by:
  8614 ;;		_main
  8615 ;; This function uses a non-reentrant model
  8616 ;;
  8617  0B2F                     _LED_State:	
  8618                           
  8619                           ;pattern_fuction.c: 56: switch(BG_LED_State)
  8620                           
  8621                           ; Regs used in _LED_State: [wreg-fsr0h+status,2+status,0]
  8622  0B2F  2B59               	goto	l14433
  8623  0B30                     l5134:	
  8624                           ;pattern_fuction.c: 57: {
  8625                           ;pattern_fuction.c: 58: case 0:
  8626                           
  8627                           
  8628                           ;pattern_fuction.c: 59: Temp_595[0]&=~(1<<6);
  8629  0B30  1283               	bcf	3,5	;RP0=0, select bank0
  8630  0B31  1325               	bcf	_Temp_595,6	;volatile
  8631                           
  8632                           ;pattern_fuction.c: 60: break;
  8633  0B32  2B77               	goto	l14447
  8634  0B33                     l5136:	
  8635                           ;pattern_fuction.c: 61: case 1:
  8636                           
  8637                           
  8638                           ;pattern_fuction.c: 62: Temp_595[0] |=1<<6;
  8639  0B33  1283               	bcf	3,5	;RP0=0, select bank0
  8640  0B34  1725               	bsf	_Temp_595,6	;volatile
  8641                           
  8642                           ;pattern_fuction.c: 63: break;
  8643  0B35  2B77               	goto	l14447
  8644  0B36                     l14409:	
  8645                           
  8646                           ;pattern_fuction.c: 66: if(LED_Flash_HZ>=125)
  8647  0B36  307D               	movlw	125
  8648  0B37  027B               	subwf	_LED_Flash_HZ,w
  8649  0B38  1C03               	skipc
  8650  0B39  2B77               	goto	l14447
  8651                           
  8652                           ;pattern_fuction.c: 67: {
  8653                           ;pattern_fuction.c: 68: if(BG_LED_Flash_Times<255)
  8654  0B3A  1683               	bsf	3,5	;RP0=1, select bank1
  8655  0B3B  0853               	movf	_BG_LED_Flash_Times^(0+128),w
  8656  0B3C  3AFF               	xorlw	255
  8657  0B3D  1D03               	btfss	3,2
  8658                           
  8659                           ;pattern_fuction.c: 69: BG_LED_Flash_Times++;
  8660  0B3E  0AD3               	incf	_BG_LED_Flash_Times^(0+128),f
  8661                           
  8662                           ;pattern_fuction.c: 71: if(LED_Flash_Bool)
  8663  0B3F  1AF2               	btfsc	_LED_Flash_Bool/(0+8),_LED_Flash_Bool& (0+7)
  8664  0B40  2B30               	goto	l5134
  8665  0B41  2B33               	goto	l5136
  8666  0B42                     l5142:	
  8667                           ;pattern_fuction.c: 82: case 3:
  8668                           
  8669                           
  8670                           ;pattern_fuction.c: 83: Temp_595[0] |=1<<6;
  8671  0B42  1725               	bsf	_Temp_595,6	;volatile
  8672                           
  8673                           ;pattern_fuction.c: 84: if(++BG_LED_ON_Times>=250)
  8674  0B43  1683               	bsf	3,5	;RP0=1, select bank1
  8675  0B44  0AA7               	incf	_BG_LED_ON_Times^(0+128),f
  8676  0B45  1903               	skipnz
  8677  0B46  0AA8               	incf	(_BG_LED_ON_Times+1)^(0+128),f
  8678  0B47  3000               	movlw	0
  8679  0B48  0228               	subwf	(_BG_LED_ON_Times+1)^(0+128),w
  8680  0B49  30FA               	movlw	250
  8681  0B4A  1903               	skipnz
  8682  0B4B  0227               	subwf	_BG_LED_ON_Times^(0+128),w
  8683  0B4C  1C03               	skipc
  8684  0B4D  2B77               	goto	l14447
  8685                           
  8686                           ;pattern_fuction.c: 85: {
  8687                           ;pattern_fuction.c: 86: BG_LED_ON_Times=0;
  8688  0B4E  01A7               	clrf	_BG_LED_ON_Times^(0+128)
  8689  0B4F  01A8               	clrf	(_BG_LED_ON_Times+1)^(0+128)
  8690                           
  8691                           ;pattern_fuction.c: 87: if(BG_LED_ON_Time<255)
  8692  0B50  1283               	bcf	3,5	;RP0=0, select bank0
  8693  0B51  0839               	movf	_BG_LED_ON_Time,w
  8694  0B52  3AFF               	xorlw	255
  8695  0B53  1D03               	btfss	3,2
  8696                           
  8697                           ;pattern_fuction.c: 88: BG_LED_ON_Time++;
  8698  0B54  0AB9               	incf	_BG_LED_ON_Time,f
  8699                           
  8700                           ;pattern_fuction.c: 89: if(BG_LED_ON_Time)
  8701  0B55  0839               	movf	_BG_LED_ON_Time,w
  8702  0B56  1903               	btfsc	3,2
  8703  0B57  2B30               	goto	l5134
  8704  0B58  2B33               	goto	l5136
  8705  0B59                     l14433:	
  8706  0B59  083A               	movf	_BG_LED_State,w
  8707                           
  8708                           ; Switch size 1, requested type "space"
  8709                           ; Number of cases is 4, Range of values is 0 to 3
  8710                           ; switch strategies available:
  8711                           ; Name         Instructions Cycles
  8712                           ; simple_byte           13     7 (average)
  8713                           ; direct_byte           20     8 (fixed)
  8714                           ; jumptable            260     6 (fixed)
  8715                           ; rangetable             8     6 (fixed)
  8716                           ; spacedrange           14     9 (fixed)
  8717                           ; locatedrange           4     3 (fixed)
  8718                           ;	Chosen strategy is simple_byte
  8719  0B5A  3A00               	xorlw	0	; case 0
  8720  0B5B  1903               	skipnz
  8721  0B5C  2B30               	goto	l5134
  8722  0B5D  3A01               	xorlw	1	; case 1
  8723  0B5E  1903               	skipnz
  8724  0B5F  2B33               	goto	l5136
  8725  0B60  3A03               	xorlw	3	; case 2
  8726  0B61  1903               	skipnz
  8727  0B62  2B36               	goto	l14409
  8728  0B63  3A01               	xorlw	1	; case 3
  8729  0B64  1903               	skipnz
  8730  0B65  2B42               	goto	l5142
  8731  0B66  2B77               	goto	l14447
  8732  0B67                     l5148:	
  8733                           ;pattern_fuction.c: 101: {
  8734                           ;pattern_fuction.c: 102: case 0: Temp_595[1]&=~(1<<6);
  8735                           
  8736  0B67  1326               	bcf	_Temp_595+1,6	;volatile
  8737                           
  8738                           ;pattern_fuction.c: 103: break;
  8739  0B68  2B95               	goto	l14461
  8740  0B69                     l5150:	
  8741                           ;pattern_fuction.c: 104: case 1: Temp_595[1]|=1<<6;
  8742                           
  8743  0B69  1726               	bsf	_Temp_595+1,6	;volatile
  8744                           
  8745                           ;pattern_fuction.c: 105: break;
  8746  0B6A  2B95               	goto	l14461
  8747  0B6B                     l14435:	
  8748                           
  8749                           ;pattern_fuction.c: 107: if(LED_Flash_HZ>=125)
  8750  0B6B  307D               	movlw	125
  8751  0B6C  027B               	subwf	_LED_Flash_HZ,w
  8752  0B6D  1C03               	skipc
  8753  0B6E  2B95               	goto	l14461
  8754                           
  8755                           ;pattern_fuction.c: 108: {
  8756                           ;pattern_fuction.c: 109: if(ANNULUS_LIGHT_Flash_Times<255)
  8757  0B6F  087A               	movf	_ANNULUS_LIGHT_Flash_Times,w
  8758  0B70  3AFF               	xorlw	255
  8759  0B71  1903               	skipnz
  8760  0B72  2B74               	goto	l14441
  8761                           
  8762                           ;pattern_fuction.c: 110: ANNULUS_LIGHT_Flash_Times++;
  8763  0B73  0AFA               	incf	_ANNULUS_LIGHT_Flash_Times,f
  8764  0B74                     l14441:	
  8765                           
  8766                           ;pattern_fuction.c: 112: if(LED_Flash_Bool)
  8767  0B74  1AF2               	btfsc	_LED_Flash_Bool/(0+8),_LED_Flash_Bool& (0+7)
  8768  0B75  2B67               	goto	l5148
  8769  0B76  2B69               	goto	l5150
  8770  0B77                     l14447:	
  8771  0B77  1283               	bcf	3,5	;RP0=0, select bank0
  8772  0B78  0837               	movf	_ANNULUS_LIGHT_State,w
  8773                           
  8774                           ; Switch size 1, requested type "space"
  8775                           ; Number of cases is 3, Range of values is 0 to 2
  8776                           ; switch strategies available:
  8777                           ; Name         Instructions Cycles
  8778                           ; simple_byte           10     6 (average)
  8779                           ; direct_byte           17     8 (fixed)
  8780                           ; jumptable            260     6 (fixed)
  8781                           ; rangetable             7     6 (fixed)
  8782                           ; spacedrange           12     9 (fixed)
  8783                           ; locatedrange           3     3 (fixed)
  8784                           ;	Chosen strategy is simple_byte
  8785  0B79  3A00               	xorlw	0	; case 0
  8786  0B7A  1903               	skipnz
  8787  0B7B  2B67               	goto	l5148
  8788  0B7C  3A01               	xorlw	1	; case 1
  8789  0B7D  1903               	skipnz
  8790  0B7E  2B69               	goto	l5150
  8791  0B7F  3A03               	xorlw	3	; case 2
  8792  0B80  1903               	skipnz
  8793  0B81  2B6B               	goto	l14435
  8794  0B82  2B95               	goto	l14461
  8795  0B83                     l5157:	
  8796                           ;pattern_fuction.c: 125: {
  8797                           ;pattern_fuction.c: 126: case 0: Temp_595[1]&=~(1<<7);
  8798                           
  8799  0B83  1283               	bcf	3,5	;RP0=0, select bank0
  8800  0B84  13A6               	bcf	_Temp_595+1,7	;volatile
  8801                           
  8802                           ;pattern_fuction.c: 127: break;
  8803  0B85  2BB0               	goto	l14475
  8804  0B86                     l5159:	
  8805                           ;pattern_fuction.c: 128: case 1: Temp_595[1]|=1<<7;
  8806                           
  8807  0B86  1283               	bcf	3,5	;RP0=0, select bank0
  8808  0B87  17A6               	bsf	_Temp_595+1,7	;volatile
  8809                           
  8810                           ;pattern_fuction.c: 129: break;
  8811  0B88  2BB0               	goto	l14475
  8812  0B89                     l14449:	
  8813                           
  8814                           ;pattern_fuction.c: 131: if(LED_Flash_HZ>=125)
  8815  0B89  307D               	movlw	125
  8816  0B8A  027B               	subwf	_LED_Flash_HZ,w
  8817  0B8B  1C03               	skipc
  8818  0B8C  2BB0               	goto	l14475
  8819                           
  8820                           ;pattern_fuction.c: 132: {
  8821                           ;pattern_fuction.c: 133: if(SHOW_LIGHT_Flash_Times<255)
  8822  0B8D  1683               	bsf	3,5	;RP0=1, select bank1
  8823  0B8E  086C               	movf	_SHOW_LIGHT_Flash_Times^(0+128),w
  8824  0B8F  3AFF               	xorlw	255
  8825  0B90  1D03               	btfss	3,2
  8826                           
  8827                           ;pattern_fuction.c: 134: SHOW_LIGHT_Flash_Times++;
  8828  0B91  0AEC               	incf	_SHOW_LIGHT_Flash_Times^(0+128),f
  8829                           
  8830                           ;pattern_fuction.c: 136: if(LED_Flash_Bool)
  8831  0B92  1AF2               	btfsc	_LED_Flash_Bool/(0+8),_LED_Flash_Bool& (0+7)
  8832  0B93  2B83               	goto	l5157
  8833  0B94  2B86               	goto	l5159
  8834  0B95                     l14461:	
  8835  0B95  0853               	movf	_SHOW_LIGHT_State,w
  8836                           
  8837                           ; Switch size 1, requested type "space"
  8838                           ; Number of cases is 3, Range of values is 0 to 2
  8839                           ; switch strategies available:
  8840                           ; Name         Instructions Cycles
  8841                           ; simple_byte           10     6 (average)
  8842                           ; direct_byte           17     8 (fixed)
  8843                           ; jumptable            260     6 (fixed)
  8844                           ; rangetable             7     6 (fixed)
  8845                           ; spacedrange           12     9 (fixed)
  8846                           ; locatedrange           3     3 (fixed)
  8847                           ;	Chosen strategy is simple_byte
  8848  0B96  3A00               	xorlw	0	; case 0
  8849  0B97  1903               	skipnz
  8850  0B98  2B83               	goto	l5157
  8851  0B99  3A01               	xorlw	1	; case 1
  8852  0B9A  1903               	skipnz
  8853  0B9B  2B86               	goto	l5159
  8854  0B9C  3A03               	xorlw	3	; case 2
  8855  0B9D  1903               	skipnz
  8856  0B9E  2B89               	goto	l14449
  8857  0B9F  2BB0               	goto	l14475
  8858  0BA0                     l5166:	
  8859                           ;pattern_fuction.c: 149: {
  8860                           ;pattern_fuction.c: 150: case 0: Temp_595[0]|=1<<1;
  8861                           
  8862  0BA0  14A5               	bsf	_Temp_595,1	;volatile
  8863                           
  8864                           ;pattern_fuction.c: 151: break;
  8865  0BA1  2BCD               	goto	l14489
  8866  0BA2                     l5168:	
  8867                           ;pattern_fuction.c: 152: case 1: Temp_595[0]&=~(1<<1);
  8868                           
  8869  0BA2  10A5               	bcf	_Temp_595,1	;volatile
  8870                           
  8871                           ;pattern_fuction.c: 153: break;
  8872  0BA3  2BCD               	goto	l14489
  8873  0BA4                     l14463:	
  8874                           
  8875                           ;pattern_fuction.c: 155: if(LED_Flash_HZ>=125)
  8876  0BA4  307D               	movlw	125
  8877  0BA5  027B               	subwf	_LED_Flash_HZ,w
  8878  0BA6  1C03               	skipc
  8879  0BA7  2BCD               	goto	l14489
  8880                           
  8881                           ;pattern_fuction.c: 156: {
  8882                           ;pattern_fuction.c: 157: if(LED1_Flash_Times<255)
  8883  0BA8  0843               	movf	_LED1_Flash_Times,w
  8884  0BA9  3AFF               	xorlw	255
  8885  0BAA  1903               	skipnz
  8886  0BAB  2BAD               	goto	l14469
  8887                           
  8888                           ;pattern_fuction.c: 158: LED1_Flash_Times++;
  8889  0BAC  0AC3               	incf	_LED1_Flash_Times,f
  8890  0BAD                     l14469:	
  8891                           
  8892                           ;pattern_fuction.c: 160: if(LED_Flash_Bool)
  8893  0BAD  1AF2               	btfsc	_LED_Flash_Bool/(0+8),_LED_Flash_Bool& (0+7)
  8894  0BAE  2BA0               	goto	l5166
  8895  0BAF  2BA2               	goto	l5168
  8896  0BB0                     l14475:	
  8897  0BB0  0844               	movf	_LED1_State,w
  8898                           
  8899                           ; Switch size 1, requested type "space"
  8900                           ; Number of cases is 3, Range of values is 0 to 2
  8901                           ; switch strategies available:
  8902                           ; Name         Instructions Cycles
  8903                           ; simple_byte           10     6 (average)
  8904                           ; direct_byte           17     8 (fixed)
  8905                           ; jumptable            260     6 (fixed)
  8906                           ; rangetable             7     6 (fixed)
  8907                           ; spacedrange           12     9 (fixed)
  8908                           ; locatedrange           3     3 (fixed)
  8909                           ;	Chosen strategy is simple_byte
  8910  0BB1  3A00               	xorlw	0	; case 0
  8911  0BB2  1903               	skipnz
  8912  0BB3  2BA0               	goto	l5166
  8913  0BB4  3A01               	xorlw	1	; case 1
  8914  0BB5  1903               	skipnz
  8915  0BB6  2BA2               	goto	l5168
  8916  0BB7  3A03               	xorlw	3	; case 2
  8917  0BB8  1903               	skipnz
  8918  0BB9  2BA4               	goto	l14463
  8919  0BBA  2BCD               	goto	l14489
  8920  0BBB                     l5175:	
  8921                           ;pattern_fuction.c: 173: {
  8922                           ;pattern_fuction.c: 174: case 0: Temp_595[0]|=1<<0;
  8923                           
  8924  0BBB  1283               	bcf	3,5	;RP0=0, select bank0
  8925  0BBC  1425               	bsf	_Temp_595,0	;volatile
  8926                           
  8927                           ;pattern_fuction.c: 175: break;
  8928  0BBD  2BEA               	goto	l14503
  8929  0BBE                     l5177:	
  8930                           ;pattern_fuction.c: 176: case 1: Temp_595[0]&=~(1<<0);
  8931                           
  8932  0BBE  1283               	bcf	3,5	;RP0=0, select bank0
  8933  0BBF  1025               	bcf	_Temp_595,0	;volatile
  8934                           
  8935                           ;pattern_fuction.c: 177: break;
  8936  0BC0  2BEA               	goto	l14503
  8937  0BC1                     l14477:	
  8938  0BC1  307D               	movlw	125
  8939  0BC2  027B               	subwf	_LED_Flash_HZ,w
  8940  0BC3  1C03               	skipc
  8941  0BC4  2BEA               	goto	l14503
  8942                           
  8943                           ;pattern_fuction.c: 179: {
  8944                           ;pattern_fuction.c: 180: if(LED2_Flash_Times<255)
  8945  0BC5  1683               	bsf	3,5	;RP0=1, select bank1
  8946  0BC6  0861               	movf	_LED2_Flash_Times^(0+128),w
  8947  0BC7  3AFF               	xorlw	255
  8948  0BC8  1D03               	btfss	3,2
  8949                           
  8950                           ;pattern_fuction.c: 181: LED2_Flash_Times++;
  8951  0BC9  0AE1               	incf	_LED2_Flash_Times^(0+128),f
  8952                           
  8953                           ;pattern_fuction.c: 183: if(LED_Flash_Bool)
  8954  0BCA  1AF2               	btfsc	_LED_Flash_Bool/(0+8),_LED_Flash_Bool& (0+7)
  8955  0BCB  2BBB               	goto	l5175
  8956  0BCC  2BBE               	goto	l5177
  8957  0BCD                     l14489:	
  8958  0BCD  0845               	movf	_LED2_State,w
  8959                           
  8960                           ; Switch size 1, requested type "space"
  8961                           ; Number of cases is 3, Range of values is 0 to 2
  8962                           ; switch strategies available:
  8963                           ; Name         Instructions Cycles
  8964                           ; simple_byte           10     6 (average)
  8965                           ; direct_byte           17     8 (fixed)
  8966                           ; jumptable            260     6 (fixed)
  8967                           ; rangetable             7     6 (fixed)
  8968                           ; spacedrange           12     9 (fixed)
  8969                           ; locatedrange           3     3 (fixed)
  8970                           ;	Chosen strategy is simple_byte
  8971  0BCE  3A00               	xorlw	0	; case 0
  8972  0BCF  1903               	skipnz
  8973  0BD0  2BBB               	goto	l5175
  8974  0BD1  3A01               	xorlw	1	; case 1
  8975  0BD2  1903               	skipnz
  8976  0BD3  2BBE               	goto	l5177
  8977  0BD4  3A03               	xorlw	3	; case 2
  8978  0BD5  1903               	skipnz
  8979  0BD6  2BC1               	goto	l14477
  8980  0BD7  2BEA               	goto	l14503
  8981  0BD8                     l5184:	
  8982                           ;pattern_fuction.c: 195: {
  8983                           ;pattern_fuction.c: 196: case 0: Temp_595[0]|=1<<5;
  8984                           
  8985  0BD8  1283               	bcf	3,5	;RP0=0, select bank0
  8986  0BD9  16A5               	bsf	_Temp_595,5	;volatile
  8987                           
  8988                           ;pattern_fuction.c: 197: break;
  8989  0BDA  2C07               	goto	l14517
  8990  0BDB                     l5186:	
  8991                           ;pattern_fuction.c: 198: case 1: Temp_595[0]&=~(1<<5);
  8992                           
  8993  0BDB  1283               	bcf	3,5	;RP0=0, select bank0
  8994  0BDC  12A5               	bcf	_Temp_595,5	;volatile
  8995                           
  8996                           ;pattern_fuction.c: 199: break;
  8997  0BDD  2C07               	goto	l14517
  8998  0BDE                     l14491:	
  8999  0BDE  307D               	movlw	125
  9000  0BDF  027B               	subwf	_LED_Flash_HZ,w
  9001  0BE0  1C03               	skipc
  9002  0BE1  2C07               	goto	l14517
  9003                           
  9004                           ;pattern_fuction.c: 201: {
  9005                           ;pattern_fuction.c: 202: if(LED3_Flash_Times<255)
  9006  0BE2  1683               	bsf	3,5	;RP0=1, select bank1
  9007  0BE3  0862               	movf	_LED3_Flash_Times^(0+128),w
  9008  0BE4  3AFF               	xorlw	255
  9009  0BE5  1D03               	btfss	3,2
  9010                           
  9011                           ;pattern_fuction.c: 203: LED3_Flash_Times++;
  9012  0BE6  0AE2               	incf	_LED3_Flash_Times^(0+128),f
  9013                           
  9014                           ;pattern_fuction.c: 205: if(LED_Flash_Bool)
  9015  0BE7  1AF2               	btfsc	_LED_Flash_Bool/(0+8),_LED_Flash_Bool& (0+7)
  9016  0BE8  2BD8               	goto	l5184
  9017  0BE9  2BDB               	goto	l5186
  9018  0BEA                     l14503:	
  9019  0BEA  0846               	movf	_LED3_State,w
  9020                           
  9021                           ; Switch size 1, requested type "space"
  9022                           ; Number of cases is 3, Range of values is 0 to 2
  9023                           ; switch strategies available:
  9024                           ; Name         Instructions Cycles
  9025                           ; simple_byte           10     6 (average)
  9026                           ; direct_byte           17     8 (fixed)
  9027                           ; jumptable            260     6 (fixed)
  9028                           ; rangetable             7     6 (fixed)
  9029                           ; spacedrange           12     9 (fixed)
  9030                           ; locatedrange           3     3 (fixed)
  9031                           ;	Chosen strategy is simple_byte
  9032  0BEB  3A00               	xorlw	0	; case 0
  9033  0BEC  1903               	skipnz
  9034  0BED  2BD8               	goto	l5184
  9035  0BEE  3A01               	xorlw	1	; case 1
  9036  0BEF  1903               	skipnz
  9037  0BF0  2BDB               	goto	l5186
  9038  0BF1  3A03               	xorlw	3	; case 2
  9039  0BF2  1903               	skipnz
  9040  0BF3  2BDE               	goto	l14491
  9041  0BF4  2C07               	goto	l14517
  9042  0BF5                     l5193:	
  9043                           ;pattern_fuction.c: 217: {
  9044                           ;pattern_fuction.c: 218: case 0: Temp_595[0]|=1<<4;
  9045                           
  9046  0BF5  1283               	bcf	3,5	;RP0=0, select bank0
  9047  0BF6  1625               	bsf	_Temp_595,4	;volatile
  9048                           
  9049                           ;pattern_fuction.c: 219: break;
  9050  0BF7  2C2F               	goto	l14535
  9051  0BF8                     l5195:	
  9052                           ;pattern_fuction.c: 220: case 1: Temp_595[0]&=~(1<<4);
  9053                           
  9054  0BF8  1283               	bcf	3,5	;RP0=0, select bank0
  9055  0BF9  1225               	bcf	_Temp_595,4	;volatile
  9056                           
  9057                           ;pattern_fuction.c: 221: break;
  9058  0BFA  2C2F               	goto	l14535
  9059  0BFB                     l14505:	
  9060  0BFB  307D               	movlw	125
  9061  0BFC  027B               	subwf	_LED_Flash_HZ,w
  9062  0BFD  1C03               	skipc
  9063  0BFE  2C2F               	goto	l14535
  9064                           
  9065                           ;pattern_fuction.c: 223: {
  9066                           ;pattern_fuction.c: 224: if(LED4_Flash_Times<255)
  9067  0BFF  1683               	bsf	3,5	;RP0=1, select bank1
  9068  0C00  0863               	movf	_LED4_Flash_Times^(0+128),w
  9069  0C01  3AFF               	xorlw	255
  9070  0C02  1D03               	btfss	3,2
  9071                           
  9072                           ;pattern_fuction.c: 225: LED4_Flash_Times++;
  9073  0C03  0AE3               	incf	_LED4_Flash_Times^(0+128),f
  9074                           
  9075                           ;pattern_fuction.c: 227: if(LED_Flash_Bool)
  9076  0C04  1AF2               	btfsc	_LED_Flash_Bool/(0+8),_LED_Flash_Bool& (0+7)
  9077  0C05  2BF5               	goto	l5193
  9078  0C06  2BF8               	goto	l5195
  9079  0C07                     l14517:	
  9080  0C07  0847               	movf	_LED4_State,w
  9081                           
  9082                           ; Switch size 1, requested type "space"
  9083                           ; Number of cases is 3, Range of values is 0 to 2
  9084                           ; switch strategies available:
  9085                           ; Name         Instructions Cycles
  9086                           ; simple_byte           10     6 (average)
  9087                           ; direct_byte           17     8 (fixed)
  9088                           ; jumptable            260     6 (fixed)
  9089                           ; rangetable             7     6 (fixed)
  9090                           ; spacedrange           12     9 (fixed)
  9091                           ; locatedrange           3     3 (fixed)
  9092                           ;	Chosen strategy is simple_byte
  9093  0C08  3A00               	xorlw	0	; case 0
  9094  0C09  1903               	skipnz
  9095  0C0A  2BF5               	goto	l5193
  9096  0C0B  3A01               	xorlw	1	; case 1
  9097  0C0C  1903               	skipnz
  9098  0C0D  2BF8               	goto	l5195
  9099  0C0E  3A03               	xorlw	3	; case 2
  9100  0C0F  1903               	skipnz
  9101  0C10  2BFB               	goto	l14505
  9102  0C11  2C2F               	goto	l14535
  9103  0C12                     l5202:	
  9104                           ;pattern_fuction.c: 239: {
  9105                           ;pattern_fuction.c: 240: case 0: Temp_595[0]|=1<<3;
  9106                           
  9107  0C12  1283               	bcf	3,5	;RP0=0, select bank0
  9108  0C13  15A5               	bsf	_Temp_595,3	;volatile
  9109                           
  9110                           ;pattern_fuction.c: 241: break;
  9111  0C14  2C5A               	goto	l14553
  9112  0C15                     l5204:	
  9113                           ;pattern_fuction.c: 242: case 1: Temp_595[0]&=~(1<<3);
  9114                           
  9115  0C15  1283               	bcf	3,5	;RP0=0, select bank0
  9116  0C16  11A5               	bcf	_Temp_595,3	;volatile
  9117                           
  9118                           ;pattern_fuction.c: 243: break;
  9119  0C17  2C5A               	goto	l14553
  9120  0C18                     l14519:	
  9121  0C18  307D               	movlw	125
  9122  0C19  027B               	subwf	_LED_Flash_HZ,w
  9123  0C1A  1C03               	skipc
  9124  0C1B  2C5A               	goto	l14553
  9125                           
  9126                           ;pattern_fuction.c: 245: {
  9127                           ;pattern_fuction.c: 246: if(LED5_Flash_Times<255)
  9128  0C1C  1683               	bsf	3,5	;RP0=1, select bank1
  9129  0C1D  0864               	movf	_LED5_Flash_Times^(0+128),w
  9130  0C1E  3AFF               	xorlw	255
  9131  0C1F  1D03               	btfss	3,2
  9132                           
  9133                           ;pattern_fuction.c: 247: LED5_Flash_Times++;
  9134  0C20  0AE4               	incf	_LED5_Flash_Times^(0+128),f
  9135                           
  9136                           ;pattern_fuction.c: 249: if(LED_Flash_Bool)
  9137  0C21  1AF2               	btfsc	_LED_Flash_Bool/(0+8),_LED_Flash_Bool& (0+7)
  9138  0C22  2C12               	goto	l5202
  9139  0C23  2C15               	goto	l5204
  9140  0C24                     l5210:	
  9141                           ;pattern_fuction.c: 259: case 3:
  9142                           
  9143                           
  9144                           ;pattern_fuction.c: 260: Temp_595[0]&=~(1<<3);
  9145  0C24  11A5               	bcf	_Temp_595,3	;volatile
  9146                           
  9147                           ;pattern_fuction.c: 261: if(LED5_On_Times<65535)
  9148  0C25  1683               	bsf	3,5	;RP0=1, select bank1
  9149  0C26  0A33               	incf	_LED5_On_Times^(0+128),w
  9150  0C27  1903               	skipnz
  9151  0C28  0A34               	incf	(_LED5_On_Times+1)^(0+128),w
  9152  0C29  1903               	skipnz
  9153  0C2A  2C5A               	goto	l14553
  9154                           
  9155                           ;pattern_fuction.c: 262: LED5_On_Times++;
  9156  0C2B  0AB3               	incf	_LED5_On_Times^(0+128),f
  9157  0C2C  1903               	skipnz
  9158  0C2D  0AB4               	incf	(_LED5_On_Times+1)^(0+128),f
  9159  0C2E  2C5A               	goto	l14553
  9160  0C2F                     l14535:	
  9161  0C2F  0848               	movf	_LED5_State,w
  9162                           
  9163                           ; Switch size 1, requested type "space"
  9164                           ; Number of cases is 4, Range of values is 0 to 3
  9165                           ; switch strategies available:
  9166                           ; Name         Instructions Cycles
  9167                           ; simple_byte           13     7 (average)
  9168                           ; direct_byte           20     8 (fixed)
  9169                           ; jumptable            260     6 (fixed)
  9170                           ; rangetable             8     6 (fixed)
  9171                           ; spacedrange           14     9 (fixed)
  9172                           ; locatedrange           4     3 (fixed)
  9173                           ;	Chosen strategy is simple_byte
  9174  0C30  3A00               	xorlw	0	; case 0
  9175  0C31  1903               	skipnz
  9176  0C32  2C12               	goto	l5202
  9177  0C33  3A01               	xorlw	1	; case 1
  9178  0C34  1903               	skipnz
  9179  0C35  2C15               	goto	l5204
  9180  0C36  3A03               	xorlw	3	; case 2
  9181  0C37  1903               	skipnz
  9182  0C38  2C18               	goto	l14519
  9183  0C39  3A01               	xorlw	1	; case 3
  9184  0C3A  1903               	skipnz
  9185  0C3B  2C24               	goto	l5210
  9186  0C3C  2C5A               	goto	l14553
  9187  0C3D                     l5213:	
  9188                           ;pattern_fuction.c: 267: {
  9189                           ;pattern_fuction.c: 268: case 0: Temp_595[0]|=1<<2;
  9190                           
  9191  0C3D  1283               	bcf	3,5	;RP0=0, select bank0
  9192  0C3E  1525               	bsf	_Temp_595,2	;volatile
  9193                           
  9194                           ;pattern_fuction.c: 269: break;
  9195  0C3F  2C7B               	goto	l14567
  9196  0C40                     l5215:	
  9197                           ;pattern_fuction.c: 270: case 1: Temp_595[0]&=~(1<<2);
  9198                           
  9199  0C40  1283               	bcf	3,5	;RP0=0, select bank0
  9200  0C41  1125               	bcf	_Temp_595,2	;volatile
  9201                           
  9202                           ;pattern_fuction.c: 271: break;
  9203  0C42  2C7B               	goto	l14567
  9204  0C43                     l14537:	
  9205  0C43  307D               	movlw	125
  9206  0C44  027B               	subwf	_LED_Flash_HZ,w
  9207  0C45  1C03               	skipc
  9208  0C46  2C7B               	goto	l14567
  9209                           
  9210                           ;pattern_fuction.c: 273: {
  9211                           ;pattern_fuction.c: 274: if(LED6_Flash_Times<255)
  9212  0C47  1683               	bsf	3,5	;RP0=1, select bank1
  9213  0C48  0865               	movf	_LED6_Flash_Times^(0+128),w
  9214  0C49  3AFF               	xorlw	255
  9215  0C4A  1D03               	btfss	3,2
  9216                           
  9217                           ;pattern_fuction.c: 275: LED6_Flash_Times++;
  9218  0C4B  0AE5               	incf	_LED6_Flash_Times^(0+128),f
  9219                           
  9220                           ;pattern_fuction.c: 277: if(LED_Flash_Bool)
  9221  0C4C  1AF2               	btfsc	_LED_Flash_Bool/(0+8),_LED_Flash_Bool& (0+7)
  9222  0C4D  2C3D               	goto	l5213
  9223  0C4E  2C40               	goto	l5215
  9224  0C4F                     l5221:	
  9225                           ;pattern_fuction.c: 287: case 3:
  9226                           
  9227                           
  9228                           ;pattern_fuction.c: 288: Temp_595[0]&=~(1<<2);
  9229  0C4F  1125               	bcf	_Temp_595,2	;volatile
  9230                           
  9231                           ;pattern_fuction.c: 289: if(LED6_On_Times<65535)
  9232  0C50  1683               	bsf	3,5	;RP0=1, select bank1
  9233  0C51  0A35               	incf	_LED6_On_Times^(0+128),w
  9234  0C52  1903               	skipnz
  9235  0C53  0A36               	incf	(_LED6_On_Times+1)^(0+128),w
  9236  0C54  1903               	skipnz
  9237  0C55  2C7B               	goto	l14567
  9238                           
  9239                           ;pattern_fuction.c: 290: {
  9240                           ;pattern_fuction.c: 291: LED6_On_Times++;
  9241  0C56  0AB5               	incf	_LED6_On_Times^(0+128),f
  9242  0C57  1903               	skipnz
  9243  0C58  0AB6               	incf	(_LED6_On_Times+1)^(0+128),f
  9244  0C59  2C7B               	goto	l14567
  9245  0C5A                     l14553:	
  9246  0C5A  1283               	bcf	3,5	;RP0=0, select bank0
  9247  0C5B  0849               	movf	_LED6_State,w
  9248                           
  9249                           ; Switch size 1, requested type "space"
  9250                           ; Number of cases is 4, Range of values is 0 to 3
  9251                           ; switch strategies available:
  9252                           ; Name         Instructions Cycles
  9253                           ; simple_byte           13     7 (average)
  9254                           ; direct_byte           20     8 (fixed)
  9255                           ; jumptable            260     6 (fixed)
  9256                           ; rangetable             8     6 (fixed)
  9257                           ; spacedrange           14     9 (fixed)
  9258                           ; locatedrange           4     3 (fixed)
  9259                           ;	Chosen strategy is simple_byte
  9260  0C5C  3A00               	xorlw	0	; case 0
  9261  0C5D  1903               	skipnz
  9262  0C5E  2C3D               	goto	l5213
  9263  0C5F  3A01               	xorlw	1	; case 1
  9264  0C60  1903               	skipnz
  9265  0C61  2C40               	goto	l5215
  9266  0C62  3A03               	xorlw	3	; case 2
  9267  0C63  1903               	skipnz
  9268  0C64  2C43               	goto	l14537
  9269  0C65  3A01               	xorlw	1	; case 3
  9270  0C66  1903               	skipnz
  9271  0C67  2C4F               	goto	l5221
  9272  0C68  2C7B               	goto	l14567
  9273  0C69                     l5224:	
  9274                           ;pattern_fuction.c: 297: {
  9275                           ;pattern_fuction.c: 298: case 0: Temp_595[1]|=1<<5;
  9276                           
  9277  0C69  1283               	bcf	3,5	;RP0=0, select bank0
  9278  0C6A  16A6               	bsf	_Temp_595+1,5	;volatile
  9279                           
  9280                           ;pattern_fuction.c: 299: break;
  9281  0C6B  2C99               	goto	l14581
  9282  0C6C                     l5226:	
  9283                           ;pattern_fuction.c: 300: case 1: Temp_595[1]&=~(1<<5);
  9284                           
  9285  0C6C  1283               	bcf	3,5	;RP0=0, select bank0
  9286  0C6D  12A6               	bcf	_Temp_595+1,5	;volatile
  9287                           
  9288                           ;pattern_fuction.c: 301: break;
  9289  0C6E  2C99               	goto	l14581
  9290  0C6F                     l14555:	
  9291  0C6F  307D               	movlw	125
  9292  0C70  027B               	subwf	_LED_Flash_HZ,w
  9293  0C71  1C03               	skipc
  9294  0C72  2C99               	goto	l14581
  9295                           
  9296                           ;pattern_fuction.c: 303: {
  9297                           ;pattern_fuction.c: 304: if(LED7_Flash_Times<255)
  9298  0C73  1683               	bsf	3,5	;RP0=1, select bank1
  9299  0C74  0866               	movf	_LED7_Flash_Times^(0+128),w
  9300  0C75  3AFF               	xorlw	255
  9301  0C76  1D03               	btfss	3,2
  9302                           
  9303                           ;pattern_fuction.c: 305: LED7_Flash_Times++;
  9304  0C77  0AE6               	incf	_LED7_Flash_Times^(0+128),f
  9305                           
  9306                           ;pattern_fuction.c: 307: if(LED_Flash_Bool)
  9307  0C78  1AF2               	btfsc	_LED_Flash_Bool/(0+8),_LED_Flash_Bool& (0+7)
  9308  0C79  2C69               	goto	l5224
  9309  0C7A  2C6C               	goto	l5226
  9310  0C7B                     l14567:	
  9311  0C7B  1283               	bcf	3,5	;RP0=0, select bank0
  9312  0C7C  084A               	movf	_LED7_State,w
  9313                           
  9314                           ; Switch size 1, requested type "space"
  9315                           ; Number of cases is 3, Range of values is 0 to 2
  9316                           ; switch strategies available:
  9317                           ; Name         Instructions Cycles
  9318                           ; simple_byte           10     6 (average)
  9319                           ; direct_byte           17     8 (fixed)
  9320                           ; jumptable            260     6 (fixed)
  9321                           ; rangetable             7     6 (fixed)
  9322                           ; spacedrange           12     9 (fixed)
  9323                           ; locatedrange           3     3 (fixed)
  9324                           ;	Chosen strategy is simple_byte
  9325  0C7D  3A00               	xorlw	0	; case 0
  9326  0C7E  1903               	skipnz
  9327  0C7F  2C69               	goto	l5224
  9328  0C80  3A01               	xorlw	1	; case 1
  9329  0C81  1903               	skipnz
  9330  0C82  2C6C               	goto	l5226
  9331  0C83  3A03               	xorlw	3	; case 2
  9332  0C84  1903               	skipnz
  9333  0C85  2C6F               	goto	l14555
  9334  0C86  2C99               	goto	l14581
  9335  0C87                     l5233:	
  9336                           ;pattern_fuction.c: 319: {
  9337                           ;pattern_fuction.c: 320: case 0: Temp_595[1]|=1<<4;
  9338                           
  9339  0C87  1283               	bcf	3,5	;RP0=0, select bank0
  9340  0C88  1626               	bsf	_Temp_595+1,4	;volatile
  9341                           
  9342                           ;pattern_fuction.c: 321: break;
  9343  0C89  2CB6               	goto	l14595
  9344  0C8A                     l5235:	
  9345                           ;pattern_fuction.c: 322: case 1: Temp_595[1]&=~(1<<4);
  9346                           
  9347  0C8A  1283               	bcf	3,5	;RP0=0, select bank0
  9348  0C8B  1226               	bcf	_Temp_595+1,4	;volatile
  9349                           
  9350                           ;pattern_fuction.c: 323: break;
  9351  0C8C  2CB6               	goto	l14595
  9352  0C8D                     l14569:	
  9353  0C8D  307D               	movlw	125
  9354  0C8E  027B               	subwf	_LED_Flash_HZ,w
  9355  0C8F  1C03               	skipc
  9356  0C90  2CB6               	goto	l14595
  9357                           
  9358                           ;pattern_fuction.c: 325: {
  9359                           ;pattern_fuction.c: 326: if(LED8_Flash_Times<255)
  9360  0C91  1683               	bsf	3,5	;RP0=1, select bank1
  9361  0C92  0867               	movf	_LED8_Flash_Times^(0+128),w
  9362  0C93  3AFF               	xorlw	255
  9363  0C94  1D03               	btfss	3,2
  9364                           
  9365                           ;pattern_fuction.c: 327: LED8_Flash_Times++;
  9366  0C95  0AE7               	incf	_LED8_Flash_Times^(0+128),f
  9367                           
  9368                           ;pattern_fuction.c: 329: if(LED_Flash_Bool)
  9369  0C96  1AF2               	btfsc	_LED_Flash_Bool/(0+8),_LED_Flash_Bool& (0+7)
  9370  0C97  2C87               	goto	l5233
  9371  0C98  2C8A               	goto	l5235
  9372  0C99                     l14581:	
  9373  0C99  084B               	movf	_LED8_State,w
  9374                           
  9375                           ; Switch size 1, requested type "space"
  9376                           ; Number of cases is 3, Range of values is 0 to 2
  9377                           ; switch strategies available:
  9378                           ; Name         Instructions Cycles
  9379                           ; simple_byte           10     6 (average)
  9380                           ; direct_byte           17     8 (fixed)
  9381                           ; jumptable            260     6 (fixed)
  9382                           ; rangetable             7     6 (fixed)
  9383                           ; spacedrange           12     9 (fixed)
  9384                           ; locatedrange           3     3 (fixed)
  9385                           ;	Chosen strategy is simple_byte
  9386  0C9A  3A00               	xorlw	0	; case 0
  9387  0C9B  1903               	skipnz
  9388  0C9C  2C87               	goto	l5233
  9389  0C9D  3A01               	xorlw	1	; case 1
  9390  0C9E  1903               	skipnz
  9391  0C9F  2C8A               	goto	l5235
  9392  0CA0  3A03               	xorlw	3	; case 2
  9393  0CA1  1903               	skipnz
  9394  0CA2  2C8D               	goto	l14569
  9395  0CA3  2CB6               	goto	l14595
  9396  0CA4                     l5242:	
  9397                           ;pattern_fuction.c: 341: {
  9398                           ;pattern_fuction.c: 342: case 0: Temp_595[1]|=1<<3;
  9399                           
  9400  0CA4  1283               	bcf	3,5	;RP0=0, select bank0
  9401  0CA5  15A6               	bsf	_Temp_595+1,3	;volatile
  9402                           
  9403                           ;pattern_fuction.c: 343: break;
  9404  0CA6  2CD3               	goto	l14609
  9405  0CA7                     l5244:	
  9406                           ;pattern_fuction.c: 344: case 1: Temp_595[1]&=~(1<<3);
  9407                           
  9408  0CA7  1283               	bcf	3,5	;RP0=0, select bank0
  9409  0CA8  11A6               	bcf	_Temp_595+1,3	;volatile
  9410                           
  9411                           ;pattern_fuction.c: 345: break;
  9412  0CA9  2CD3               	goto	l14609
  9413  0CAA                     l14583:	
  9414  0CAA  307D               	movlw	125
  9415  0CAB  027B               	subwf	_LED_Flash_HZ,w
  9416  0CAC  1C03               	skipc
  9417  0CAD  2CD3               	goto	l14609
  9418                           
  9419                           ;pattern_fuction.c: 347: {
  9420                           ;pattern_fuction.c: 348: if(LED9_Flash_Times<255)
  9421  0CAE  1683               	bsf	3,5	;RP0=1, select bank1
  9422  0CAF  0868               	movf	_LED9_Flash_Times^(0+128),w
  9423  0CB0  3AFF               	xorlw	255
  9424  0CB1  1D03               	btfss	3,2
  9425                           
  9426                           ;pattern_fuction.c: 349: LED9_Flash_Times++;
  9427  0CB2  0AE8               	incf	_LED9_Flash_Times^(0+128),f
  9428                           
  9429                           ;pattern_fuction.c: 351: if(LED_Flash_Bool)
  9430  0CB3  1AF2               	btfsc	_LED_Flash_Bool/(0+8),_LED_Flash_Bool& (0+7)
  9431  0CB4  2CA4               	goto	l5242
  9432  0CB5  2CA7               	goto	l5244
  9433  0CB6                     l14595:	
  9434  0CB6  084C               	movf	_LED9_State,w
  9435                           
  9436                           ; Switch size 1, requested type "space"
  9437                           ; Number of cases is 3, Range of values is 0 to 2
  9438                           ; switch strategies available:
  9439                           ; Name         Instructions Cycles
  9440                           ; simple_byte           10     6 (average)
  9441                           ; direct_byte           17     8 (fixed)
  9442                           ; jumptable            260     6 (fixed)
  9443                           ; rangetable             7     6 (fixed)
  9444                           ; spacedrange           12     9 (fixed)
  9445                           ; locatedrange           3     3 (fixed)
  9446                           ;	Chosen strategy is simple_byte
  9447  0CB7  3A00               	xorlw	0	; case 0
  9448  0CB8  1903               	skipnz
  9449  0CB9  2CA4               	goto	l5242
  9450  0CBA  3A01               	xorlw	1	; case 1
  9451  0CBB  1903               	skipnz
  9452  0CBC  2CA7               	goto	l5244
  9453  0CBD  3A03               	xorlw	3	; case 2
  9454  0CBE  1903               	skipnz
  9455  0CBF  2CAA               	goto	l14583
  9456  0CC0  2CD3               	goto	l14609
  9457  0CC1                     l5251:	
  9458                           ;pattern_fuction.c: 363: {
  9459                           ;pattern_fuction.c: 364: case 0: Temp_595[1]|=1<<2;
  9460                           
  9461  0CC1  1283               	bcf	3,5	;RP0=0, select bank0
  9462  0CC2  1526               	bsf	_Temp_595+1,2	;volatile
  9463                           
  9464                           ;pattern_fuction.c: 365: break;
  9465  0CC3  2CF0               	goto	l14623
  9466  0CC4                     l5253:	
  9467                           ;pattern_fuction.c: 366: case 1: Temp_595[1]&=~(1<<2);
  9468                           
  9469  0CC4  1283               	bcf	3,5	;RP0=0, select bank0
  9470  0CC5  1126               	bcf	_Temp_595+1,2	;volatile
  9471                           
  9472                           ;pattern_fuction.c: 367: break;
  9473  0CC6  2CF0               	goto	l14623
  9474  0CC7                     l14597:	
  9475  0CC7  307D               	movlw	125
  9476  0CC8  027B               	subwf	_LED_Flash_HZ,w
  9477  0CC9  1C03               	skipc
  9478  0CCA  2CF0               	goto	l14623
  9479                           
  9480                           ;pattern_fuction.c: 369: {
  9481                           ;pattern_fuction.c: 370: if(LED10_Flash_Times<255)
  9482  0CCB  1683               	bsf	3,5	;RP0=1, select bank1
  9483  0CCC  085D               	movf	_LED10_Flash_Times^(0+128),w
  9484  0CCD  3AFF               	xorlw	255
  9485  0CCE  1D03               	btfss	3,2
  9486                           
  9487                           ;pattern_fuction.c: 371: LED10_Flash_Times++;
  9488  0CCF  0ADD               	incf	_LED10_Flash_Times^(0+128),f
  9489                           
  9490                           ;pattern_fuction.c: 373: if(LED_Flash_Bool)
  9491  0CD0  1AF2               	btfsc	_LED_Flash_Bool/(0+8),_LED_Flash_Bool& (0+7)
  9492  0CD1  2CC1               	goto	l5251
  9493  0CD2  2CC4               	goto	l5253
  9494  0CD3                     l14609:	
  9495  0CD3  0841               	movf	_LED10_State,w
  9496                           
  9497                           ; Switch size 1, requested type "space"
  9498                           ; Number of cases is 3, Range of values is 0 to 2
  9499                           ; switch strategies available:
  9500                           ; Name         Instructions Cycles
  9501                           ; simple_byte           10     6 (average)
  9502                           ; direct_byte           17     8 (fixed)
  9503                           ; jumptable            260     6 (fixed)
  9504                           ; rangetable             7     6 (fixed)
  9505                           ; spacedrange           12     9 (fixed)
  9506                           ; locatedrange           3     3 (fixed)
  9507                           ;	Chosen strategy is simple_byte
  9508  0CD4  3A00               	xorlw	0	; case 0
  9509  0CD5  1903               	skipnz
  9510  0CD6  2CC1               	goto	l5251
  9511  0CD7  3A01               	xorlw	1	; case 1
  9512  0CD8  1903               	skipnz
  9513  0CD9  2CC4               	goto	l5253
  9514  0CDA  3A03               	xorlw	3	; case 2
  9515  0CDB  1903               	skipnz
  9516  0CDC  2CC7               	goto	l14597
  9517  0CDD  2CF0               	goto	l14623
  9518  0CDE                     l5260:	
  9519                           ;pattern_fuction.c: 385: {
  9520                           ;pattern_fuction.c: 386: case 0: Temp_595[1]|=1<<1;
  9521                           
  9522  0CDE  1283               	bcf	3,5	;RP0=0, select bank0
  9523  0CDF  14A6               	bsf	_Temp_595+1,1	;volatile
  9524                           
  9525                           ;pattern_fuction.c: 387: break;
  9526  0CE0  2D0D               	goto	l14637
  9527  0CE1                     l5262:	
  9528                           ;pattern_fuction.c: 388: case 1: Temp_595[1]&=~(1<<1);
  9529                           
  9530  0CE1  1283               	bcf	3,5	;RP0=0, select bank0
  9531  0CE2  10A6               	bcf	_Temp_595+1,1	;volatile
  9532                           
  9533                           ;pattern_fuction.c: 389: break;
  9534  0CE3  2D0D               	goto	l14637
  9535  0CE4                     l14611:	
  9536  0CE4  307D               	movlw	125
  9537  0CE5  027B               	subwf	_LED_Flash_HZ,w
  9538  0CE6  1C03               	skipc
  9539  0CE7  2D0D               	goto	l14637
  9540                           
  9541                           ;pattern_fuction.c: 391: {
  9542                           ;pattern_fuction.c: 392: if(LED11_Flash_Times<255)
  9543  0CE8  1683               	bsf	3,5	;RP0=1, select bank1
  9544  0CE9  085E               	movf	_LED11_Flash_Times^(0+128),w
  9545  0CEA  3AFF               	xorlw	255
  9546  0CEB  1D03               	btfss	3,2
  9547                           
  9548                           ;pattern_fuction.c: 393: LED11_Flash_Times++;
  9549  0CEC  0ADE               	incf	_LED11_Flash_Times^(0+128),f
  9550                           
  9551                           ;pattern_fuction.c: 395: if(LED_Flash_Bool)
  9552  0CED  1AF2               	btfsc	_LED_Flash_Bool/(0+8),_LED_Flash_Bool& (0+7)
  9553  0CEE  2CDE               	goto	l5260
  9554  0CEF  2CE1               	goto	l5262
  9555  0CF0                     l14623:	
  9556  0CF0  0842               	movf	_LED11_State,w
  9557                           
  9558                           ; Switch size 1, requested type "space"
  9559                           ; Number of cases is 3, Range of values is 0 to 2
  9560                           ; switch strategies available:
  9561                           ; Name         Instructions Cycles
  9562                           ; simple_byte           10     6 (average)
  9563                           ; direct_byte           17     8 (fixed)
  9564                           ; jumptable            260     6 (fixed)
  9565                           ; rangetable             7     6 (fixed)
  9566                           ; spacedrange           12     9 (fixed)
  9567                           ; locatedrange           3     3 (fixed)
  9568                           ;	Chosen strategy is simple_byte
  9569  0CF1  3A00               	xorlw	0	; case 0
  9570  0CF2  1903               	skipnz
  9571  0CF3  2CDE               	goto	l5260
  9572  0CF4  3A01               	xorlw	1	; case 1
  9573  0CF5  1903               	skipnz
  9574  0CF6  2CE1               	goto	l5262
  9575  0CF7  3A03               	xorlw	3	; case 2
  9576  0CF8  1903               	skipnz
  9577  0CF9  2CE4               	goto	l14611
  9578  0CFA  2D0D               	goto	l14637
  9579  0CFB                     l5269:	
  9580                           ;pattern_fuction.c: 407: {
  9581                           ;pattern_fuction.c: 408: case 0: Temp_595[1]|=1<<0;
  9582                           
  9583  0CFB  1283               	bcf	3,5	;RP0=0, select bank0
  9584  0CFC  1426               	bsf	_Temp_595+1,0	;volatile
  9585                           
  9586                           ;pattern_fuction.c: 409: break;
  9587  0CFD  2D19               	goto	l14639
  9588  0CFE                     l5271:	
  9589                           ;pattern_fuction.c: 410: case 1: Temp_595[1]&=~(1<<0);
  9590                           
  9591  0CFE  1283               	bcf	3,5	;RP0=0, select bank0
  9592  0CFF  1026               	bcf	_Temp_595+1,0	;volatile
  9593                           
  9594                           ;pattern_fuction.c: 411: break;
  9595  0D00  2D19               	goto	l14639
  9596  0D01                     l14625:	
  9597  0D01  307D               	movlw	125
  9598  0D02  027B               	subwf	_LED_Flash_HZ,w
  9599  0D03  1C03               	skipc
  9600  0D04  2D19               	goto	l14639
  9601                           
  9602                           ;pattern_fuction.c: 413: {
  9603                           ;pattern_fuction.c: 414: if(LED12_Flash_Times<255)
  9604  0D05  085F               	movf	_LED12_Flash_Times^(0+128),w
  9605  0D06  3AFF               	xorlw	255
  9606  0D07  1903               	skipnz
  9607  0D08  2D0A               	goto	l14631
  9608                           
  9609                           ;pattern_fuction.c: 415: LED12_Flash_Times++;
  9610  0D09  0ADF               	incf	_LED12_Flash_Times^(0+128),f
  9611  0D0A                     l14631:	
  9612                           
  9613                           ;pattern_fuction.c: 417: if(LED_Flash_Bool)
  9614  0D0A  1AF2               	btfsc	_LED_Flash_Bool/(0+8),_LED_Flash_Bool& (0+7)
  9615  0D0B  2CFB               	goto	l5269
  9616  0D0C  2CFE               	goto	l5271
  9617  0D0D                     l14637:	
  9618  0D0D  1683               	bsf	3,5	;RP0=1, select bank1
  9619  0D0E  0860               	movf	_LED12_State^(0+128),w
  9620                           
  9621                           ; Switch size 1, requested type "space"
  9622                           ; Number of cases is 3, Range of values is 0 to 2
  9623                           ; switch strategies available:
  9624                           ; Name         Instructions Cycles
  9625                           ; simple_byte           10     6 (average)
  9626                           ; direct_byte           17     8 (fixed)
  9627                           ; jumptable            260     6 (fixed)
  9628                           ; rangetable             7     6 (fixed)
  9629                           ; spacedrange           12     9 (fixed)
  9630                           ; locatedrange           3     3 (fixed)
  9631                           ;	Chosen strategy is simple_byte
  9632  0D0F  3A00               	xorlw	0	; case 0
  9633  0D10  1903               	skipnz
  9634  0D11  2CFB               	goto	l5269
  9635  0D12  3A01               	xorlw	1	; case 1
  9636  0D13  1903               	skipnz
  9637  0D14  2CFE               	goto	l5271
  9638  0D15  3A03               	xorlw	3	; case 2
  9639  0D16  1903               	skipnz
  9640  0D17  2D01               	goto	l14625
  9641  0D18  2D19               	goto	l14639
  9642  0D19                     l14639:	
  9643                           
  9644                           ;pattern_fuction.c: 428: if(LED_Flash_HZ++>=125)
  9645  0D19  307E               	movlw	126
  9646  0D1A  0AFB               	incf	_LED_Flash_HZ,f
  9647  0D1B  027B               	subwf	_LED_Flash_HZ,w
  9648  0D1C  1C03               	skipc
  9649  0D1D  0008               	return
  9650  0D1E  3020               	movlw	(0+1) shl (_LED_Flash_Bool& (0+7))
  9651                           
  9652                           ;pattern_fuction.c: 429: {
  9653                           ;pattern_fuction.c: 430: LED_Flash_HZ=0;
  9654  0D1F  01FB               	clrf	_LED_Flash_HZ
  9655                           
  9656                           ;pattern_fuction.c: 431: LED_Flash_Bool=!LED_Flash_Bool;
  9657  0D20  06F2               	xorwf	_LED_Flash_Bool/(0+8),f
  9658  0D21  0008               	return
  9659  0D22                     __end_of_LED_State:	
  9660                           
  9661                           	psect	text1296
  9662  13CC                     __ptext1296:	
  9663 ;; =============== function _LED_State ends ============
  9664                           
  9665                           
  9666 ;; *************** function _CheckBuzzer *****************
  9667 ;; Defined at:
  9668 ;;		line 11 in file "E:\BBA'DATA\\\V4.7\pattern_fuction.c"
  9669 ;; Parameters:    Size  Location     Type
  9670 ;;		None
  9671 ;; Auto vars:     Size  Location     Type
  9672 ;;		None
  9673 ;; Return value:  Size  Location     Type
  9674 ;;		None               void
  9675 ;; Registers used:
  9676 ;;		wreg, status,2, status,0
  9677 ;; Tracked objects:
  9678 ;;		On entry : 40/20
  9679 ;;		On exit  : 60/0
  9680 ;;		Unchanged: FFF9F/0
  9681 ;; Data sizes:     COMMON   BANK0   BANK1   BANK3   BANK2
  9682 ;;      Params:         0       0       0       0       0
  9683 ;;      Locals:         0       0       0       0       0
  9684 ;;      Temps:          0       0       0       0       0
  9685 ;;      Totals:         0       0       0       0       0
  9686 ;;Total ram usage:        0 bytes
  9687 ;; Hardware stack levels used:    1
  9688 ;; Hardware stack levels required when called:    3
  9689 ;; This function calls:
  9690 ;;		Nothing
  9691 ;; This function is called by:
  9692 ;;		_main
  9693 ;; This function uses a non-reentrant model
  9694 ;;
  9695  13CC                     _CheckBuzzer:	
  9696                           
  9697                           ;pattern_fuction.c: 12: if(Rbeep>0)
  9698                           
  9699                           ; Regs used in _CheckBuzzer: [wreg+status,2+status,0]
  9700  13CC  1283               	bcf	3,5	;RP0=0, select bank0
  9701  13CD  0850               	movf	_Rbeep,w
  9702  13CE  3A80               	xorlw	128
  9703  13CF  3E7F               	addlw	-129
  9704  13D0  1C03               	skipc
  9705  13D1  2BE7               	goto	l5120
  9706                           
  9707                           ;pattern_fuction.c: 13: {
  9708                           ;pattern_fuction.c: 14: if(--BuzzerTime<1)
  9709  13D2  0BED               	decfsz	_BuzzerTime,f
  9710  13D3  0008               	return
  9711                           
  9712                           ;pattern_fuction.c: 15: {
  9713                           ;pattern_fuction.c: 16: Buzzer_CFlag=!Buzzer_CFlag;
  9714  13D4  3002               	movlw	(0+1) shl (_Buzzer_CFlag& (0+7))
  9715  13D5  06F0               	xorwf	_Buzzer_CFlag/(0+8),f
  9716                           
  9717                           ;pattern_fuction.c: 17: if(Buzzer_CFlag)
  9718  13D6  1CF0               	btfss	_Buzzer_CFlag/(0+8),_Buzzer_CFlag& (0+7)
  9719  13D7  2BE1               	goto	l5122
  9720                           
  9721                           ;pattern_fuction.c: 18: {
  9722                           ;pattern_fuction.c: 19: Temp_595[0]|=1<<7;
  9723  13D8  17A5               	bsf	_Temp_595,7	;volatile
  9724                           
  9725                           ;pattern_fuction.c: 20: if(Rbeep&0x01)
  9726  13D9  1C50               	btfss	_Rbeep,0
  9727  13DA  2BDE               	goto	l14401
  9728                           
  9729                           ;pattern_fuction.c: 21: {
  9730                           ;pattern_fuction.c: 22: BuzzerTime = 40;
  9731  13DB  3028               	movlw	40
  9732  13DC  00ED               	movwf	_BuzzerTime
  9733                           
  9734                           ;pattern_fuction.c: 23: }
  9735  13DD  0008               	return
  9736  13DE                     l14401:	
  9737                           
  9738                           ;pattern_fuction.c: 24: else
  9739                           ;pattern_fuction.c: 25: {
  9740                           ;pattern_fuction.c: 26: BuzzerTime = 100;
  9741  13DE  3064               	movlw	100
  9742  13DF  00ED               	movwf	_BuzzerTime
  9743  13E0  0008               	return
  9744  13E1                     l5122:	
  9745                           
  9746                           ;pattern_fuction.c: 29: else
  9747                           ;pattern_fuction.c: 30: {
  9748                           ;pattern_fuction.c: 31: Temp_595[0]&=~(1<<7);
  9749  13E1  13A5               	bcf	_Temp_595,7	;volatile
  9750                           
  9751                           ;pattern_fuction.c: 32: BuzzerTime = 25;
  9752  13E2  3019               	movlw	25
  9753  13E3  00ED               	movwf	_BuzzerTime
  9754                           
  9755                           ;pattern_fuction.c: 33: Rbeep-=2;
  9756  13E4  30FE               	movlw	-2
  9757  13E5  07D0               	addwf	_Rbeep,f
  9758  13E6  0008               	return
  9759  13E7                     l5120:	
  9760                           
  9761                           ;pattern_fuction.c: 37: else
  9762                           ;pattern_fuction.c: 38: {
  9763                           ;pattern_fuction.c: 39: Temp_595[0]&=~(1<<7);
  9764  13E7  13A5               	bcf	_Temp_595,7	;volatile
  9765  13E8  0008               	return
  9766  13E9                     __end_of_CheckBuzzer:	
  9767                           
  9768                           	psect	text1297
  9769  0787                     __ptext1297:	
  9770 ;; =============== function _CheckBuzzer ends ============
  9771                           
  9772                           
  9773 ;; *************** function _LCD_FState *****************
  9774 ;; Defined at:
  9775 ;;		line 438 in file "E:\BBA'DATA\\\V4.7\pattern_fuction.c"
  9776 ;; Parameters:    Size  Location     Type
  9777 ;;		None
  9778 ;; Auto vars:     Size  Location     Type
  9779 ;;		None
  9780 ;; Return value:  Size  Location     Type
  9781 ;;		None               void
  9782 ;; Registers used:
  9783 ;;		wreg, fsr0l, fsr0h, status,2, status,0
  9784 ;; Tracked objects:
  9785 ;;		On entry : 40/20
  9786 ;;		On exit  : 40/0
  9787 ;;		Unchanged: FFF9F/0
  9788 ;; Data sizes:     COMMON   BANK0   BANK1   BANK3   BANK2
  9789 ;;      Params:         0       0       0       0       0
  9790 ;;      Locals:         0       0       0       0       0
  9791 ;;      Temps:          0       0       0       0       0
  9792 ;;      Totals:         0       0       0       0       0
  9793 ;;Total ram usage:        0 bytes
  9794 ;; Hardware stack levels used:    1
  9795 ;; Hardware stack levels required when called:    3
  9796 ;; This function calls:
  9797 ;;		Nothing
  9798 ;; This function is called by:
  9799 ;;		_main
  9800 ;; This function uses a non-reentrant model
  9801 ;;
  9802  0787                     _LCD_FState:	
  9803                           
  9804                           ;pattern_fuction.c: 439: switch(LCD_State)
  9805                           
  9806                           ; Regs used in _LCD_FState: [wreg-fsr0h+status,2+status,0]
  9807  0787  2FEA               	goto	l14387
  9808  0788                     l14331:	
  9809                           
  9810                           ;pattern_fuction.c: 460: if(++LCD_Flash_HZ>=125)
  9811  0788  307D               	movlw	125
  9812  0789  0AD7               	incf	_LCD_Flash_HZ^(0+128),f
  9813  078A  0257               	subwf	_LCD_Flash_HZ^(0+128),w
  9814  078B  1C03               	skipc
  9815  078C  0008               	return
  9816                           
  9817                           ;pattern_fuction.c: 461: {
  9818                           ;pattern_fuction.c: 462: LCD_Flash_HZ=0;
  9819  078D  01D7               	clrf	_LCD_Flash_HZ^(0+128)
  9820                           
  9821                           ;pattern_fuction.c: 463: if(LCD_HOUR_Flash_Times<255)
  9822  078E  0858               	movf	_LCD_HOUR_Flash_Times^(0+128),w
  9823  078F  3AFF               	xorlw	255
  9824  0790  1903               	skipnz
  9825  0791  2FA0               	goto	l5286
  9826                           
  9827                           ;pattern_fuction.c: 464: {
  9828                           ;pattern_fuction.c: 465: LCD_HOUR_Flash_Times++;
  9829  0792  0AD8               	incf	_LCD_HOUR_Flash_Times^(0+128),f
  9830                           
  9831                           ;pattern_fuction.c: 467: if(LCD_Flash_Bool)
  9832  0793  1E72               	btfss	_LCD_Flash_Bool/(0+8),_LCD_Flash_Bool& (0+7)
  9833  0794  2F99               	goto	l14343
  9834                           
  9835                           ;pattern_fuction.c: 468: {
  9836                           ;pattern_fuction.c: 469: display[0]=0X00;
  9837  0795  1283               	bcf	3,5	;RP0=0, select bank0
  9838  0796  01A0               	clrf	_display	;volatile
  9839                           
  9840                           ;pattern_fuction.c: 470: display[1]=0X00;
  9841  0797  01A1               	clrf	_display+1	;volatile
  9842                           
  9843                           ;pattern_fuction.c: 471: }
  9844  0798  2FA0               	goto	l5286
  9845  0799                     l14343:	
  9846                           
  9847                           ;pattern_fuction.c: 472: else
  9848                           ;pattern_fuction.c: 473: {
  9849                           ;pattern_fuction.c: 474: display[0]=Display_Temp[0];
  9850  0799  0820               	movf	_Display_Temp^(0+128),w	;volatile
  9851  079A  1283               	bcf	3,5	;RP0=0, select bank0
  9852  079B  00A0               	movwf	_display	;volatile
  9853                           
  9854                           ;pattern_fuction.c: 475: display[1]=Display_Temp[1];
  9855  079C  1683               	bsf	3,5	;RP0=1, select bank1
  9856  079D  0821               	movf	(_Display_Temp^(0+128)+1),w	;volatile
  9857  079E  1283               	bcf	3,5	;RP0=0, select bank0
  9858  079F  00A1               	movwf	_display+1	;volatile
  9859  07A0                     l5286:	
  9860                           
  9861                           ;pattern_fuction.c: 476: }
  9862                           ;pattern_fuction.c: 477: }
  9863                           ;pattern_fuction.c: 479: if(LCD_MINUTE_Flash_Times<255)
  9864  07A0  1683               	bsf	3,5	;RP0=1, select bank1
  9865  07A1  0859               	movf	_LCD_MINUTE_Flash_Times^(0+128),w
  9866  07A2  3AFF               	xorlw	255
  9867  07A3  1903               	skipnz
  9868  07A4  2FB3               	goto	l5289
  9869                           
  9870                           ;pattern_fuction.c: 480: {
  9871                           ;pattern_fuction.c: 481: LCD_MINUTE_Flash_Times++;
  9872  07A5  0AD9               	incf	_LCD_MINUTE_Flash_Times^(0+128),f
  9873                           
  9874                           ;pattern_fuction.c: 483: if(LCD_Flash_Bool)
  9875  07A6  1E72               	btfss	_LCD_Flash_Bool/(0+8),_LCD_Flash_Bool& (0+7)
  9876  07A7  2FAC               	goto	l14351
  9877                           
  9878                           ;pattern_fuction.c: 484: {
  9879                           ;pattern_fuction.c: 485: display[2]=0X00;
  9880  07A8  1283               	bcf	3,5	;RP0=0, select bank0
  9881  07A9  01A2               	clrf	_display+2	;volatile
  9882                           
  9883                           ;pattern_fuction.c: 486: display[3]=0X00;
  9884  07AA  01A3               	clrf	_display+3	;volatile
  9885                           
  9886                           ;pattern_fuction.c: 488: }
  9887  07AB  2FB3               	goto	l5289
  9888  07AC                     l14351:	
  9889                           
  9890                           ;pattern_fuction.c: 489: else
  9891                           ;pattern_fuction.c: 490: {
  9892                           ;pattern_fuction.c: 491: display[2]=Display_Temp[2];
  9893  07AC  0822               	movf	(_Display_Temp^(0+128)+2),w	;volatile
  9894  07AD  1283               	bcf	3,5	;RP0=0, select bank0
  9895  07AE  00A2               	movwf	_display+2	;volatile
  9896                           
  9897                           ;pattern_fuction.c: 492: display[3]=Display_Temp[3];
  9898  07AF  1683               	bsf	3,5	;RP0=1, select bank1
  9899  07B0  0823               	movf	(_Display_Temp^(0+128)+3),w	;volatile
  9900  07B1  1283               	bcf	3,5	;RP0=0, select bank0
  9901  07B2  00A3               	movwf	_display+3	;volatile
  9902  07B3                     l5289:	
  9903                           
  9904                           ;pattern_fuction.c: 493: }
  9905                           ;pattern_fuction.c: 494: }
  9906                           ;pattern_fuction.c: 496: if(LCD_COL_Flash_Times<255)
  9907  07B3  1683               	bsf	3,5	;RP0=1, select bank1
  9908  07B4  0856               	movf	_LCD_COL_Flash_Times^(0+128),w
  9909  07B5  3AFF               	xorlw	255
  9910  07B6  1903               	skipnz
  9911  07B7  2FC0               	goto	l14359
  9912                           
  9913                           ;pattern_fuction.c: 497: {
  9914                           ;pattern_fuction.c: 498: LCD_COL_Flash_Times++;
  9915  07B8  0AD6               	incf	_LCD_COL_Flash_Times^(0+128),f
  9916                           
  9917                           ;pattern_fuction.c: 499: if(LCD_Flash_Bool)
  9918  07B9  1E72               	btfss	_LCD_Flash_Bool/(0+8),_LCD_Flash_Bool& (0+7)
  9919  07BA  2FBE               	goto	l5293
  9920                           
  9921                           ;pattern_fuction.c: 500: {
  9922                           ;pattern_fuction.c: 501: display[4]&=~(1<<3);
  9923  07BB  1283               	bcf	3,5	;RP0=0, select bank0
  9924  07BC  11A4               	bcf	_display+4,3	;volatile
  9925                           
  9926                           ;pattern_fuction.c: 502: }
  9927  07BD  2FC0               	goto	l14359
  9928  07BE                     l5293:	
  9929                           
  9930                           ;pattern_fuction.c: 503: else
  9931                           ;pattern_fuction.c: 504: {
  9932                           ;pattern_fuction.c: 505: display[4]|=1<<3;
  9933  07BE  1283               	bcf	3,5	;RP0=0, select bank0
  9934  07BF  15A4               	bsf	_display+4,3	;volatile
  9935  07C0                     l14359:	
  9936                           
  9937                           ;pattern_fuction.c: 506: }
  9938                           ;pattern_fuction.c: 507: }
  9939                           ;pattern_fuction.c: 509: if(LCD_TEMP_Flash_Times<255)
  9940  07C0  1683               	bsf	3,5	;RP0=1, select bank1
  9941  07C1  085B               	movf	_LCD_TEMP_Flash_Times^(0+128),w
  9942  07C2  3AFF               	xorlw	255
  9943  07C3  1903               	skipnz
  9944  07C4  2FCD               	goto	l14367
  9945                           
  9946                           ;pattern_fuction.c: 510: {
  9947                           ;pattern_fuction.c: 511: LCD_TEMP_Flash_Times++;
  9948  07C5  0ADB               	incf	_LCD_TEMP_Flash_Times^(0+128),f
  9949                           
  9950                           ;pattern_fuction.c: 513: if(LCD_Flash_Bool)
  9951  07C6  1E72               	btfss	_LCD_Flash_Bool/(0+8),_LCD_Flash_Bool& (0+7)
  9952  07C7  2FCB               	goto	l5296
  9953                           
  9954                           ;pattern_fuction.c: 514: {
  9955                           ;pattern_fuction.c: 515: display[4]&=~(1<<0);
  9956  07C8  1283               	bcf	3,5	;RP0=0, select bank0
  9957  07C9  1024               	bcf	_display+4,0	;volatile
  9958                           
  9959                           ;pattern_fuction.c: 517: }
  9960  07CA  2FCD               	goto	l14367
  9961  07CB                     l5296:	
  9962                           
  9963                           ;pattern_fuction.c: 518: else
  9964                           ;pattern_fuction.c: 519: {
  9965                           ;pattern_fuction.c: 520: display[4]|=1<<0;
  9966  07CB  1283               	bcf	3,5	;RP0=0, select bank0
  9967  07CC  1424               	bsf	_display+4,0	;volatile
  9968  07CD                     l14367:	
  9969                           
  9970                           ;pattern_fuction.c: 521: }
  9971                           ;pattern_fuction.c: 522: }
  9972                           ;pattern_fuction.c: 524: if(LCD_TIMER_Flash_Times<255)
  9973  07CD  1683               	bsf	3,5	;RP0=1, select bank1
  9974  07CE  085C               	movf	_LCD_TIMER_Flash_Times^(0+128),w
  9975  07CF  3AFF               	xorlw	255
  9976  07D0  1903               	skipnz
  9977  07D1  2FDA               	goto	l14375
  9978                           
  9979                           ;pattern_fuction.c: 525: {
  9980                           ;pattern_fuction.c: 526: LCD_TIMER_Flash_Times++;
  9981  07D2  0ADC               	incf	_LCD_TIMER_Flash_Times^(0+128),f
  9982                           
  9983                           ;pattern_fuction.c: 528: if(LCD_Flash_Bool)
  9984  07D3  1E72               	btfss	_LCD_Flash_Bool/(0+8),_LCD_Flash_Bool& (0+7)
  9985  07D4  2FD8               	goto	l5299
  9986                           
  9987                           ;pattern_fuction.c: 529: {
  9988                           ;pattern_fuction.c: 530: display[4]&=~(1<<1);
  9989  07D5  1283               	bcf	3,5	;RP0=0, select bank0
  9990  07D6  10A4               	bcf	_display+4,1	;volatile
  9991                           
  9992                           ;pattern_fuction.c: 532: }
  9993  07D7  2FDA               	goto	l14375
  9994  07D8                     l5299:	
  9995                           
  9996                           ;pattern_fuction.c: 533: else
  9997                           ;pattern_fuction.c: 534: {
  9998                           ;pattern_fuction.c: 535: display[4]|=1<<1;
  9999  07D8  1283               	bcf	3,5	;RP0=0, select bank0
 10000  07D9  14A4               	bsf	_display+4,1	;volatile
 10001  07DA                     l14375:	
 10002                           
 10003                           ;pattern_fuction.c: 536: }
 10004                           ;pattern_fuction.c: 537: }
 10005                           ;pattern_fuction.c: 539: if(LCD_AUTO_Flash_Times<255)
 10006  07DA  1683               	bsf	3,5	;RP0=1, select bank1
 10007  07DB  0855               	movf	_LCD_AUTO_Flash_Times^(0+128),w
 10008  07DC  3AFF               	xorlw	255
 10009  07DD  1903               	skipnz
 10010  07DE  2FE7               	goto	l14383
 10011                           
 10012                           ;pattern_fuction.c: 540: {
 10013                           ;pattern_fuction.c: 541: LCD_AUTO_Flash_Times++;
 10014  07DF  0AD5               	incf	_LCD_AUTO_Flash_Times^(0+128),f
 10015                           
 10016                           ;pattern_fuction.c: 543: if(LCD_Flash_Bool)
 10017  07E0  1E72               	btfss	_LCD_Flash_Bool/(0+8),_LCD_Flash_Bool& (0+7)
 10018  07E1  2FE5               	goto	l5302
 10019                           
 10020                           ;pattern_fuction.c: 544: {
 10021                           ;pattern_fuction.c: 545: display[4]&=~(1<<2);
 10022  07E2  1283               	bcf	3,5	;RP0=0, select bank0
 10023  07E3  1124               	bcf	_display+4,2	;volatile
 10024                           
 10025                           ;pattern_fuction.c: 546: }
 10026  07E4  2FE7               	goto	l14383
 10027  07E5                     l5302:	
 10028                           
 10029                           ;pattern_fuction.c: 547: else
 10030                           ;pattern_fuction.c: 548: {
 10031                           ;pattern_fuction.c: 549: display[4]|=1<<2;
 10032  07E5  1283               	bcf	3,5	;RP0=0, select bank0
 10033  07E6  1524               	bsf	_display+4,2	;volatile
 10034  07E7                     l14383:	
 10035                           
 10036                           ;pattern_fuction.c: 550: }
 10037                           ;pattern_fuction.c: 551: }
 10038                           ;pattern_fuction.c: 553: LCD_Flash_Bool=!LCD_Flash_Bool;
 10039  07E7  3010               	movlw	(0+1) shl (_LCD_Flash_Bool& (0+7))
 10040  07E8  06F2               	xorwf	_LCD_Flash_Bool/(0+8),f
 10041  07E9  0008               	return
 10042  07EA                     l14387:	
 10043  07EA  1683               	bsf	3,5	;RP0=1, select bank1
 10044  07EB  085A               	movf	_LCD_State^(0+128),w
 10045                           
 10046                           ; Switch size 1, requested type "space"
 10047                           ; Number of cases is 2, Range of values is 2 to 5
 10048                           ; switch strategies available:
 10049                           ; Name         Instructions Cycles
 10050                           ; simple_byte            7     4 (average)
 10051                           ; direct_byte           23    11 (fixed)
 10052                           ; jumptable            263     9 (fixed)
 10053                           ;	Chosen strategy is simple_byte
 10054  07EC  3A02               	xorlw	2	; case 2
 10055  07ED  1903               	skipnz
 10056  07EE  2FF3               	goto	l5304
 10057  07EF  3A07               	xorlw	7	; case 5
 10058  07F0  1903               	skipnz
 10059  07F1  2F88               	goto	l14331
 10060  07F2  2FF3               	goto	l5304
 10061  07F3                     l5304:	
 10062  07F3  0008               	return
 10063  07F4                     __end_of_LCD_FState:	
 10064                           
 10065                           	psect	text1298
 10066  13E9                     __ptext1298:	
 10067 ;; =============== function _LCD_FState ends ============
 10068                           
 10069                           
 10070 ;; *************** function _AcTestZero *****************
 10071 ;; Defined at:
 10072 ;;		line 1695 in file "E:\BBA'DATA\\\V4.7\pattern_fuction.c"
 10073 ;; Parameters:    Size  Location     Type
 10074 ;;		None
 10075 ;; Auto vars:     Size  Location     Type
 10076 ;;		None
 10077 ;; Return value:  Size  Location     Type
 10078 ;;		None               void
 10079 ;; Registers used:
 10080 ;;		wreg, status,2, status,0
 10081 ;; Tracked objects:
 10082 ;;		On entry : 0/60
 10083 ;;		On exit  : 60/20
 10084 ;;		Unchanged: FFE00/0
 10085 ;; Data sizes:     COMMON   BANK0   BANK1   BANK3   BANK2
 10086 ;;      Params:         0       0       0       0       0
 10087 ;;      Locals:         0       0       0       0       0
 10088 ;;      Temps:          0       1       0       0       0
 10089 ;;      Totals:         0       1       0       0       0
 10090 ;;Total ram usage:        1 bytes
 10091 ;; Hardware stack levels used:    1
 10092 ;; Hardware stack levels required when called:    3
 10093 ;; This function calls:
 10094 ;;		Nothing
 10095 ;; This function is called by:
 10096 ;;		_main
 10097 ;; This function uses a non-reentrant model
 10098 ;;
 10099  13E9                     _AcTestZero:	
 10100                           
 10101                           ;pattern_fuction.c: 1696: if(RB1!=old_LHResult)
 10102                           
 10103                           ; Regs used in _AcTestZero: [wreg+status,2+status,0]
 10104  13E9  1F73               	btfss	_old_LHResult/(0+8),_old_LHResult& (0+7)
 10105  13EA  2BED               	goto	u4880
 10106  13EB  3001               	movlw	1
 10107  13EC  2BEE               	goto	u4882
 10108  13ED                     u4880:	
 10109  13ED  3000               	movlw	0
 10110  13EE                     u4882:	
 10111  13EE  1283               	bcf	3,5	;RP0=0, select bank0
 10112  13EF  1303               	bcf	3,6	;RP1=0, select bank0
 10113  13F0  00DD               	movwf	??_AcTestZero
 10114  13F1  1C86               	btfss	6,1
 10115  13F2  2BF5               	goto	u4890
 10116  13F3  3001               	movlw	1
 10117  13F4  2BF6               	goto	u4892
 10118  13F5                     u4890:	
 10119  13F5  3000               	movlw	0
 10120  13F6                     u4892:	
 10121  13F6  065D               	xorwf	??_AcTestZero,w
 10122  13F7  1903               	skipnz
 10123  13F8  2C03               	goto	l11871
 10124                           
 10125                           ;pattern_fuction.c: 1697: {
 10126                           ;pattern_fuction.c: 1698: old_LHResult=RB1;
 10127  13F9  1373               	bcf	_old_LHResult/(0+8),_old_LHResult& (0+7)
 10128  13FA  1C86               	btfss	6,1
 10129  13FB  2BFD               	goto	u4915
 10130  13FC  1773               	bsf	_old_LHResult/(0+8),_old_LHResult& (0+7)
 10131  13FD                     u4915:	
 10132                           
 10133                           ;pattern_fuction.c: 1700: No_AC=0;
 10134  13FD  1372               	bcf	_No_AC/(0+8),_No_AC& (0+7)
 10135                           
 10136                           ;pattern_fuction.c: 1701: LH_Count=0;
 10137  13FE  1683               	bsf	3,5	;RP0=1, select bank1
 10138  13FF  1303               	bcf	3,6	;RP1=0, select bank1
 10139  1400  01B7               	clrf	_LH_Count^(0+128)
 10140  1401  01B8               	clrf	(_LH_Count+1)^(0+128)
 10141                           
 10142                           ;pattern_fuction.c: 1702: }
 10143  1402  2C07               	goto	l11873
 10144  1403                     l11871:	
 10145                           
 10146                           ;pattern_fuction.c: 1703: else
 10147                           ;pattern_fuction.c: 1704: {
 10148                           ;pattern_fuction.c: 1705: LH_Count++;
 10149  1403  1683               	bsf	3,5	;RP0=1, select bank1
 10150  1404  0AB7               	incf	_LH_Count^(0+128),f
 10151  1405  1903               	skipnz
 10152  1406  0AB8               	incf	(_LH_Count+1)^(0+128),f
 10153  1407                     l11873:	
 10154                           
 10155                           ;pattern_fuction.c: 1706: }
 10156                           ;pattern_fuction.c: 1708: if(LH_Count>=4)
 10157  1407  3000               	movlw	0
 10158  1408  0238               	subwf	(_LH_Count+1)^(0+128),w
 10159  1409  3004               	movlw	4
 10160  140A  1903               	skipnz
 10161  140B  0237               	subwf	_LH_Count^(0+128),w
 10162  140C  1803               	btfsc	3,0
 10163                           
 10164                           ;pattern_fuction.c: 1709: No_AC=1;
 10165  140D  1772               	bsf	_No_AC/(0+8),_No_AC& (0+7)
 10166  140E  0008               	return
 10167  140F                     __end_of_AcTestZero:	
 10168                           
 10169                           	psect	text1299
 10170  16F0                     __ptext1299:	
 10171 ;; =============== function _AcTestZero ends ============
 10172                           
 10173                           
 10174 ;; *************** function _KeyServer *****************
 10175 ;; Defined at:
 10176 ;;		line 71 in file "E:\BBA'DATA\\\V4.7\main.c"
 10177 ;; Parameters:    Size  Location     Type
 10178 ;;		None
 10179 ;; Auto vars:     Size  Location     Type
 10180 ;;  i               2    0[BANK0 ] unsigned int 
 10181 ;; Return value:  Size  Location     Type
 10182 ;;		None               void
 10183 ;; Registers used:
 10184 ;;		wreg, fsr0l, fsr0h, status,2, status,0
 10185 ;; Tracked objects:
 10186 ;;		On entry : 60/60
 10187 ;;		On exit  : 40/0
 10188 ;;		Unchanged: FFF9F/0
 10189 ;; Data sizes:     COMMON   BANK0   BANK1   BANK3   BANK2
 10190 ;;      Params:         0       0       0       0       0
 10191 ;;      Locals:         0       2       0       0       0
 10192 ;;      Temps:          0       0       0       0       0
 10193 ;;      Totals:         0       2       0       0       0
 10194 ;;Total ram usage:        2 bytes
 10195 ;; Hardware stack levels used:    1
 10196 ;; Hardware stack levels required when called:    3
 10197 ;; This function calls:
 10198 ;;		Nothing
 10199 ;; This function is called by:
 10200 ;;		_main
 10201 ;; This function uses a non-reentrant model
 10202 ;;
 10203  16F0                     _KeyServer:	
 10204  16F0  27FD               	call	PL35	;select bank 0
 10205                           
 10206                           ;main.c: 72: static unsigned int KeyOldFlag = 0;
 10207                           ;main.c: 73: unsigned int i = (KeyFlag[1]<<8) | KeyFlag[0];
 10208                           
 10209                           ; Regs used in _KeyServer: [wreg-fsr0h+status,2+status,0]
 10210  16F1  0831               	movf	_KeyFlag+1,w	;volatile
 10211  16F2  00DE               	movwf	KeyServer@i+1
 10212  16F3  0830               	movf	_KeyFlag,w	;volatile
 10213  16F4  00DD               	movwf	KeyServer@i
 10214  16F5  3000               	movlw	0
 10215                           
 10216                           ;main.c: 74: Add=0;
 10217  16F6  01B8               	clrf	_Add
 10218  16F7  01D1               	clrf	_Reduce
 10219                           
 10220                           ;main.c: 76: if(LED6_On_Times>=80) LED6_State=0;
 10221  16F8  1683               	bsf	3,5	;RP0=1, select bank1
 10222  16F9  0236               	subwf	(_LED6_On_Times+1)^(0+128),w
 10223  16FA  3050               	movlw	80
 10224  16FB  1903               	skipnz
 10225  16FC  0235               	subwf	_LED6_On_Times^(0+128),w
 10226  16FD  1283               	bcf	3,5	;RP0=0, select bank0
 10227  16FE  1803               	btfsc	3,0
 10228  16FF  01C9               	clrf	_LED6_State
 10229                           
 10230                           ;main.c: 78: if(LED5_On_Times>=80) LED5_State=0;
 10231  1700  3000               	movlw	0
 10232  1701  1683               	bsf	3,5	;RP0=1, select bank1
 10233  1702  0234               	subwf	(_LED5_On_Times+1)^(0+128),w
 10234  1703  3050               	movlw	80
 10235  1704  1903               	skipnz
 10236  1705  0233               	subwf	_LED5_On_Times^(0+128),w
 10237  1706  1283               	bcf	3,5	;RP0=0, select bank0
 10238  1707  1803               	btfsc	3,0
 10239  1708  01C8               	clrf	_LED5_State
 10240                           
 10241                           ;main.c: 81: if(i)
 10242  1709  1283               	bcf	3,5	;RP0=0, select bank0
 10243  170A  085E               	movf	KeyServer@i+1,w
 10244  170B  045D               	iorwf	KeyServer@i,w
 10245  170C  1903               	skipnz
 10246  170D  2FEF               	goto	l14297
 10247                           
 10248                           ;main.c: 82: {
 10249                           ;main.c: 83: if(i==16)
 10250  170E  085D               	movf	KeyServer@i,w
 10251  170F  3A10               	xorlw	16
 10252  1710  045E               	iorwf	KeyServer@i+1,w
 10253  1711  1D03               	skipz
 10254  1712  2F21               	goto	l14189
 10255                           
 10256                           ;main.c: 84: {
 10257                           ;main.c: 85: if(Key_ON_Times++>750)
 10258  1713  1683               	bsf	3,5	;RP0=1, select bank1
 10259  1714  27F7  160A  118A   	fcall	PL32	;call to abstracted procedure
 10260  1717  1903               	skipnz
 10261  1718  0231               	subwf	_Key_ON_Times^(0+128),w
 10262  1719  1C03               	skipc
 10263  171A  2F33               	goto	l14199
 10264                           
 10265                           ;main.c: 86: {
 10266                           ;main.c: 87: Key_Add_3S_ON=1;
 10267  171B  1571               	bsf	_Key_Add_3S_ON/(0+8),_Key_Add_3S_ON& (0+7)
 10268  171C                     l14187:	
 10269                           
 10270                           ;main.c: 89: Key_ON_Times=750;
 10271  171C  30EE               	movlw	238
 10272  171D  00B1               	movwf	_Key_ON_Times^(0+128)
 10273  171E  3002               	movlw	2
 10274  171F  00B2               	movwf	(_Key_ON_Times^(0+128)+1)
 10275  1720  2F33               	goto	l14199
 10276  1721                     l14189:	
 10277                           
 10278                           ;main.c: 92: else
 10279                           ;main.c: 93: if(i==32)
 10280  1721  085D               	movf	KeyServer@i,w
 10281  1722  3A20               	xorlw	32
 10282  1723  045E               	iorwf	KeyServer@i+1,w
 10283  1724  1D03               	skipz
 10284  1725  2F30               	goto	l14197
 10285                           
 10286                           ;main.c: 94: {
 10287                           ;main.c: 95: if(Key_ON_Times++>750)
 10288  1726  1683               	bsf	3,5	;RP0=1, select bank1
 10289  1727  27F7  160A  118A   	fcall	PL32	;call to abstracted procedure
 10290  172A  1903               	skipnz
 10291  172B  0231               	subwf	_Key_ON_Times^(0+128),w
 10292  172C  1C03               	skipc
 10293  172D  2F33               	goto	l14199
 10294                           
 10295                           ;main.c: 96: {
 10296                           ;main.c: 97: Key_Reduce_3S_ON=1;
 10297  172E  17F1               	bsf	_Key_Reduce_3S_ON/(0+8),_Key_Reduce_3S_ON& (0+7)
 10298  172F  2F1C               	goto	l14187
 10299  1730                     l14197:	
 10300                           
 10301                           ;main.c: 102: else
 10302                           ;main.c: 103: Key_ON_Times=0;
 10303  1730  1683               	bsf	3,5	;RP0=1, select bank1
 10304  1731  01B1               	clrf	_Key_ON_Times^(0+128)
 10305  1732  01B2               	clrf	(_Key_ON_Times+1)^(0+128)
 10306  1733                     l14199:	
 10307                           
 10308                           ;main.c: 105: if(i != KeyOldFlag)
 10309  1733  1703               	bsf	3,6	;RP1=1, select bank3
 10310  1734  0863               	movf	(KeyServer@KeyOldFlag+1)^(0+384),w
 10311  1735  27FD               	call	PL35	;select bank 0
 10312  1736  065E               	xorwf	KeyServer@i+1,w
 10313  1737  1D03               	skipz
 10314  1738  2F3E               	goto	u7895
 10315  1739  1683               	bsf	3,5	;RP0=1, select bank3
 10316  173A  1703               	bsf	3,6	;RP1=1, select bank3
 10317  173B  0862               	movf	KeyServer@KeyOldFlag^(0+384),w
 10318  173C  27FD               	call	PL35	;select bank 0
 10319  173D  065D               	xorwf	KeyServer@i,w
 10320  173E                     u7895:	
 10321  173E  1903               	skipnz
 10322  173F  0008               	return
 10323                           
 10324                           ;main.c: 106: {
 10325                           ;main.c: 107: KeyOldFlag = i;
 10326  1740  085E               	movf	KeyServer@i+1,w
 10327  1741  1683               	bsf	3,5	;RP0=1, select bank3
 10328  1742  1703               	bsf	3,6	;RP1=1, select bank3
 10329  1743  00E3               	movwf	(KeyServer@KeyOldFlag+1)^(0+384)
 10330  1744  27FD               	call	PL35	;select bank 0
 10331  1745  085D               	movf	KeyServer@i,w
 10332  1746  1683               	bsf	3,5	;RP0=1, select bank3
 10333  1747  1703               	bsf	3,6	;RP1=1, select bank3
 10334  1748  00E2               	movwf	KeyServer@KeyOldFlag^(0+384)
 10335                           
 10336                           ;main.c: 109: switch(i)
 10337  1749  2FAF               	goto	l14295
 10338  174A                     l1281:	
 10339                           ;main.c: 110: {
 10340                           ;main.c: 111: case 1:
 10341                           
 10342                           
 10343                           ;main.c: 112: if(Key_Regular_Lock) break;
 10344  174A  18F2               	btfsc	_Key_Regular_Lock/(0+8),_Key_Regular_Lock& (0+7)
 10345  174B  0008               	return
 10346                           
 10347                           ;main.c: 113: Regular=1;
 10348  174C  01D2               	clrf	_Regular
 10349  174D  0AD2               	incf	_Regular,f
 10350                           
 10351                           ;main.c: 114: Bold=0;
 10352  174E  01BB               	clrf	_Bold
 10353  174F                     L37:	
 10354                           
 10355                           ;main.c: 115: Iced=0;
 10356  174F  01BF               	clrf	_Iced
 10357  1750                     L38:	
 10358                           
 10359                           ;main.c: 116: Tea=0;
 10360  1750  01D6               	clrf	_Tea
 10361  1751                     l14207:	
 10362                           
 10363                           ;main.c: 118: Rbeep=1;
 10364  1751  1283               	bcf	3,5	;RP0=0, select bank0
 10365  1752  01D0               	clrf	_Rbeep
 10366  1753  0AD0               	incf	_Rbeep,f
 10367                           
 10368                           ;main.c: 119: break;
 10369  1754  0008               	return
 10370  1755                     l1284:	
 10371                           ;main.c: 121: case 2:
 10372                           
 10373                           
 10374                           ;main.c: 122: if(Key_Bold_Lock) break;
 10375  1755  1A71               	btfsc	_Key_Bold_Lock/(0+8),_Key_Bold_Lock& (0+7)
 10376  1756  0008               	return
 10377                           
 10378                           ;main.c: 123: Regular=0;
 10379  1757  01D2               	clrf	_Regular
 10380                           
 10381                           ;main.c: 124: Bold=1;
 10382  1758  01BB               	clrf	_Bold
 10383  1759  0ABB               	incf	_Bold,f
 10384  175A  2F4F               	goto	L37
 10385  175B                     l1286:	
 10386                           ;main.c: 131: case 4:
 10387                           
 10388                           ;main.c: 126: Tea=0;
 10389                           
 10390                           ;main.c: 125: Iced=0;
 10391                           
 10392                           
 10393                           ;main.c: 132: if(Key_Iced_Lock) break;
 10394  175B  1AF1               	btfsc	_Key_Iced_Lock/(0+8),_Key_Iced_Lock& (0+7)
 10395  175C  0008               	return
 10396                           
 10397                           ;main.c: 133: Regular=0;
 10398  175D  01D2               	clrf	_Regular
 10399                           
 10400                           ;main.c: 134: Bold=0;
 10401  175E  01BB               	clrf	_Bold
 10402                           
 10403                           ;main.c: 135: Iced=1;
 10404  175F  01BF               	clrf	_Iced
 10405  1760  0ABF               	incf	_Iced,f
 10406  1761  2F50               	goto	L38
 10407  1762                     l1288:	
 10408                           ;main.c: 141: case 8:
 10409                           
 10410                           ;main.c: 136: Tea=0;
 10411                           
 10412                           
 10413                           ;main.c: 142: if(Key_Tea_Lock) break;
 10414  1762  19F2               	btfsc	_Key_Tea_Lock/(0+8),_Key_Tea_Lock& (0+7)
 10415  1763  0008               	return
 10416                           
 10417                           ;main.c: 143: Regular=0;
 10418  1764  01D2               	clrf	_Regular
 10419                           
 10420                           ;main.c: 144: Bold=0;
 10421  1765  01BB               	clrf	_Bold
 10422                           
 10423                           ;main.c: 145: Iced=0;
 10424  1766  01BF               	clrf	_Iced
 10425                           
 10426                           ;main.c: 146: Tea=1;
 10427  1767  01D6               	clrf	_Tea
 10428  1768  0AD6               	incf	_Tea,f
 10429  1769  2F51               	goto	l14207
 10430  176A                     l1290:	
 10431                           ;main.c: 151: case 16:
 10432                           
 10433                           
 10434                           ;main.c: 152: if(Key_Add_Lock) break;
 10435  176A  19F1               	btfsc	_Key_Add_Lock/(0+8),_Key_Add_Lock& (0+7)
 10436  176B  0008               	return
 10437  176C  3003               	movlw	3
 10438                           
 10439                           ;main.c: 153: Add=1;
 10440  176D  01B8               	clrf	_Add
 10441  176E  0AB8               	incf	_Add,f
 10442                           
 10443                           ;main.c: 154: LED5_State=3;
 10444  176F  00C8               	movwf	_LED5_State
 10445                           
 10446                           ;main.c: 155: LED5_On_Times=0;
 10447  1770  1683               	bsf	3,5	;RP0=1, select bank1
 10448  1771  01B3               	clrf	_LED5_On_Times^(0+128)
 10449  1772  01B4               	clrf	(_LED5_On_Times+1)^(0+128)
 10450                           
 10451                           ;main.c: 156: LED6_State=0;
 10452  1773  1283               	bcf	3,5	;RP0=0, select bank0
 10453  1774  01C9               	clrf	_LED6_State
 10454  1775  2F51               	goto	l14207
 10455  1776                     l1292:	
 10456                           ;main.c: 161: case 32:
 10457                           
 10458                           
 10459                           ;main.c: 162: if(Key_Reduce_Lock) break;
 10460  1776  1872               	btfsc	_Key_Reduce_Lock/(0+8),_Key_Reduce_Lock& (0+7)
 10461  1777  0008               	return
 10462  1778  3003               	movlw	3
 10463                           
 10464                           ;main.c: 163: Reduce=1;
 10465  1779  01D1               	clrf	_Reduce
 10466  177A  0AD1               	incf	_Reduce,f
 10467                           
 10468                           ;main.c: 164: LED5_State=0;
 10469  177B  01C8               	clrf	_LED5_State
 10470                           
 10471                           ;main.c: 165: LED6_State=3;
 10472  177C  00C9               	movwf	_LED6_State
 10473                           
 10474                           ;main.c: 166: LED6_On_Times=0;
 10475  177D  1683               	bsf	3,5	;RP0=1, select bank1
 10476  177E  01B5               	clrf	_LED6_On_Times^(0+128)
 10477  177F  01B6               	clrf	(_LED6_On_Times+1)^(0+128)
 10478  1780  2F51               	goto	l14207
 10479  1781                     l1294:	
 10480                           ;main.c: 170: case 64:
 10481                           
 10482                           
 10483                           ;main.c: 171: if(Key_80_Z_Lock) break;
 10484  1781  18F1               	btfsc	_Key_80_Z_Lock/(0+8),_Key_80_Z_Lock& (0+7)
 10485  1782  0008               	return
 10486                           
 10487                           ;main.c: 172: _80_z=1;
 10488  1783  01DC               	clrf	__80_z
 10489  1784  0ADC               	incf	__80_z,f
 10490                           
 10491                           ;main.c: 173: _120_z=0;
 10492  1785  01D9               	clrf	__120_z
 10493  1786  2F8C               	goto	L39
 10494  1787                     l1296:	
 10495                           ;main.c: 181: case 128:
 10496                           
 10497                           ;main.c: 175: _420_z=0;
 10498                           
 10499                           ;main.c: 174: _210_z=0;
 10500                           
 10501                           
 10502                           ;main.c: 182: if(Key_120_Z_Lock) break;
 10503  1787  1B70               	btfsc	_Key_120_Z_Lock/(0+8),_Key_120_Z_Lock& (0+7)
 10504  1788  0008               	return
 10505                           
 10506                           ;main.c: 183: _80_z=0;
 10507  1789  01DC               	clrf	__80_z
 10508                           
 10509                           ;main.c: 184: _120_z=1;
 10510  178A  01D9               	clrf	__120_z
 10511  178B  0AD9               	incf	__120_z,f
 10512  178C                     L39:	
 10513                           
 10514                           ;main.c: 185: _210_z=0;
 10515  178C  01DA               	clrf	__210_z
 10516  178D  2F94               	goto	L40
 10517  178E                     l1298:	
 10518                           ;main.c: 191: case 256:
 10519                           
 10520                           ;main.c: 186: _420_z=0;
 10521                           
 10522                           
 10523                           ;main.c: 192: if(Key_210_Z_Lock) break;
 10524  178E  1BF0               	btfsc	_Key_210_Z_Lock/(0+8),_Key_210_Z_Lock& (0+7)
 10525  178F  0008               	return
 10526                           
 10527                           ;main.c: 193: _80_z=0;
 10528  1790  01DC               	clrf	__80_z
 10529                           
 10530                           ;main.c: 194: _120_z=0;
 10531  1791  01D9               	clrf	__120_z
 10532                           
 10533                           ;main.c: 195: _210_z=1;
 10534  1792  01DA               	clrf	__210_z
 10535  1793  0ADA               	incf	__210_z,f
 10536  1794                     L40:	
 10537                           
 10538                           ;main.c: 196: _420_z=0;
 10539  1794  01DB               	clrf	__420_z
 10540  1795  2F51               	goto	l14207
 10541  1796                     l1300:	
 10542                           ;main.c: 201: case 512:
 10543                           
 10544                           
 10545                           ;main.c: 202: if(Key_420_Z_Lock) break;
 10546  1796  1871               	btfsc	_Key_420_Z_Lock/(0+8),_Key_420_Z_Lock& (0+7)
 10547  1797  0008               	return
 10548                           
 10549                           ;main.c: 203: _80_z=0;
 10550  1798  01DC               	clrf	__80_z
 10551                           
 10552                           ;main.c: 204: _120_z=0;
 10553  1799  01D9               	clrf	__120_z
 10554                           
 10555                           ;main.c: 205: _210_z=0;
 10556  179A  01DA               	clrf	__210_z
 10557                           
 10558                           ;main.c: 206: _420_z=1;
 10559  179B  01DB               	clrf	__420_z
 10560  179C  0ADB               	incf	__420_z,f
 10561  179D  2F51               	goto	l14207
 10562  179E                     l1302:	
 10563                           ;main.c: 211: case 1024:
 10564                           
 10565                           
 10566                           ;main.c: 212: if(Key_Option_Lock) break;
 10567  179E  1B71               	btfsc	_Key_Option_Lock/(0+8),_Key_Option_Lock& (0+7)
 10568  179F  0008               	return
 10569  17A0  3004               	movlw	4
 10570                           
 10571                           ;main.c: 213: Option++;
 10572  17A1  0ACF               	incf	_Option,f
 10573                           
 10574                           ;main.c: 214: if(Option>=4) Option=1;
 10575  17A2  024F               	subwf	_Option,w
 10576  17A3  1C03               	skipc
 10577  17A4  2F51               	goto	l14207
 10578  17A5  01CF               	clrf	_Option
 10579  17A6  0ACF               	incf	_Option,f
 10580  17A7  2F51               	goto	l14207
 10581  17A8                     l1305:	
 10582                           ;main.c: 219: case 2048:
 10583                           
 10584                           
 10585                           ;main.c: 220: if(Key_Start_Lock) break;
 10586  17A8  1972               	btfsc	_Key_Start_Lock/(0+8),_Key_Start_Lock& (0+7)
 10587  17A9  0008               	return
 10588                           
 10589                           ;main.c: 222: Start=1;
 10590  17AA  01D5               	clrf	_Start
 10591  17AB  0AD5               	incf	_Start,f
 10592                           
 10593                           ;main.c: 224: Rbeep=1;
 10594  17AC  01D0               	clrf	_Rbeep
 10595  17AD  0AD0               	incf	_Rbeep,f
 10596                           
 10597                           ;main.c: 225: break;
 10598  17AE  0008               	return
 10599  17AF                     l14295:	
 10600  17AF  27FD               	call	PL35	;select bank 0
 10601                           
 10602                           ; Switch on 2 bytes has been partitioned into a top level switch of size 1, and 5 sub-sw
      +                          itches
 10603                           ; Switch size 1, requested type "space"
 10604                           ; Number of cases is 5, Range of values is 0 to 8
 10605                           ; switch strategies available:
 10606                           ; Name         Instructions Cycles
 10607                           ; simple_byte           16     9 (average)
 10608                           ; direct_byte           35     8 (fixed)
 10609                           ; jumptable            260     6 (fixed)
 10610                           ; rangetable            13     6 (fixed)
 10611                           ; spacedrange           24     9 (fixed)
 10612                           ; locatedrange           9     3 (fixed)
 10613                           ;	Chosen strategy is simple_byte
 10614  17B0  085E               	movf	KeyServer@i+1,w
 10615  17B1  3A00               	xorlw	0	; case 0
 10616  17B2  1903               	skipnz
 10617  17B3  2FC1               	goto	l16483
 10618  17B4  3A01               	xorlw	1	; case 1
 10619  17B5  1903               	skipnz
 10620  17B6  2FDB               	goto	l16485
 10621  17B7  3A03               	xorlw	3	; case 2
 10622  17B8  1903               	skipnz
 10623  17B9  2FE0               	goto	l16487
 10624  17BA  3A06               	xorlw	6	; case 4
 10625  17BB  1903               	skipnz
 10626  17BC  2FE5               	goto	l16489
 10627  17BD  3A0C               	xorlw	12	; case 8
 10628  17BE  1903               	skipnz
 10629  17BF  2FEA               	goto	l16491
 10630  17C0  2FF6               	goto	l1308
 10631  17C1                     l16483:	
 10632                           
 10633                           ; Switch size 1, requested type "space"
 10634                           ; Number of cases is 8, Range of values is 1 to 128
 10635                           ; switch strategies available:
 10636                           ; Name         Instructions Cycles
 10637                           ; simple_byte           25    13 (average)
 10638                           ; jumptable            263     9 (fixed)
 10639                           ;	Chosen strategy is simple_byte
 10640  17C1  085D               	movf	KeyServer@i,w
 10641  17C2  3A01               	xorlw	1	; case 1
 10642  17C3  1903               	skipnz
 10643  17C4  2F4A               	goto	l1281
 10644  17C5  3A03               	xorlw	3	; case 2
 10645  17C6  1903               	skipnz
 10646  17C7  2F55               	goto	l1284
 10647  17C8  3A06               	xorlw	6	; case 4
 10648  17C9  1903               	skipnz
 10649  17CA  2F5B               	goto	l1286
 10650  17CB  3A0C               	xorlw	12	; case 8
 10651  17CC  1903               	skipnz
 10652  17CD  2F62               	goto	l1288
 10653  17CE  3A18               	xorlw	24	; case 16
 10654  17CF  1903               	skipnz
 10655  17D0  2F6A               	goto	l1290
 10656  17D1  3A30               	xorlw	48	; case 32
 10657  17D2  1903               	skipnz
 10658  17D3  2F76               	goto	l1292
 10659  17D4  3A60               	xorlw	96	; case 64
 10660  17D5  1903               	skipnz
 10661  17D6  2F81               	goto	l1294
 10662  17D7  3AC0               	xorlw	192	; case 128
 10663  17D8  1903               	skipnz
 10664  17D9  2F87               	goto	l1296
 10665  17DA  2FF6               	goto	l1308
 10666  17DB                     l16485:	
 10667                           
 10668                           ; Switch size 1, requested type "space"
 10669                           ; Number of cases is 1, Range of values is 0 to 0
 10670                           ; switch strategies available:
 10671                           ; Name         Instructions Cycles
 10672                           ; simple_byte            4     3 (average)
 10673                           ; direct_byte           11     8 (fixed)
 10674                           ; jumptable            260     6 (fixed)
 10675                           ; rangetable             5     6 (fixed)
 10676                           ; spacedrange            8     9 (fixed)
 10677                           ; locatedrange           1     3 (fixed)
 10678                           ;	Chosen strategy is simple_byte
 10679  17DB  085D               	movf	KeyServer@i,w
 10680  17DC  3A00               	xorlw	0	; case 0
 10681  17DD  1903               	skipnz
 10682  17DE  2F8E               	goto	l1298
 10683  17DF  2FF6               	goto	l1308
 10684  17E0                     l16487:	
 10685                           
 10686                           ; Switch size 1, requested type "space"
 10687                           ; Number of cases is 1, Range of values is 0 to 0
 10688                           ; switch strategies available:
 10689                           ; Name         Instructions Cycles
 10690                           ; simple_byte            4     3 (average)
 10691                           ; direct_byte           11     8 (fixed)
 10692                           ; jumptable            260     6 (fixed)
 10693                           ; rangetable             5     6 (fixed)
 10694                           ; spacedrange            8     9 (fixed)
 10695                           ; locatedrange           1     3 (fixed)
 10696                           ;	Chosen strategy is simple_byte
 10697  17E0  085D               	movf	KeyServer@i,w
 10698  17E1  3A00               	xorlw	0	; case 0
 10699  17E2  1903               	skipnz
 10700  17E3  2F96               	goto	l1300
 10701  17E4  2FF6               	goto	l1308
 10702  17E5                     l16489:	
 10703                           
 10704                           ; Switch size 1, requested type "space"
 10705                           ; Number of cases is 1, Range of values is 0 to 0
 10706                           ; switch strategies available:
 10707                           ; Name         Instructions Cycles
 10708                           ; simple_byte            4     3 (average)
 10709                           ; direct_byte           11     8 (fixed)
 10710                           ; jumptable            260     6 (fixed)
 10711                           ; rangetable             5     6 (fixed)
 10712                           ; spacedrange            8     9 (fixed)
 10713                           ; locatedrange           1     3 (fixed)
 10714                           ;	Chosen strategy is simple_byte
 10715  17E5  085D               	movf	KeyServer@i,w
 10716  17E6  3A00               	xorlw	0	; case 0
 10717  17E7  1903               	skipnz
 10718  17E8  2F9E               	goto	l1302
 10719  17E9  2FF6               	goto	l1308
 10720  17EA                     l16491:	
 10721                           
 10722                           ; Switch size 1, requested type "space"
 10723                           ; Number of cases is 1, Range of values is 0 to 0
 10724                           ; switch strategies available:
 10725                           ; Name         Instructions Cycles
 10726                           ; simple_byte            4     3 (average)
 10727                           ; direct_byte           11     8 (fixed)
 10728                           ; jumptable            260     6 (fixed)
 10729                           ; rangetable             5     6 (fixed)
 10730                           ; spacedrange            8     9 (fixed)
 10731                           ; locatedrange           1     3 (fixed)
 10732                           ;	Chosen strategy is simple_byte
 10733  17EA  085D               	movf	KeyServer@i,w
 10734  17EB  3A00               	xorlw	0	; case 0
 10735  17EC  1903               	skipnz
 10736  17ED  2FA8               	goto	l1305
 10737  17EE  2FF6               	goto	l1308
 10738  17EF                     l14297:	
 10739                           
 10740                           ;main.c: 230: else
 10741                           ;main.c: 231: {
 10742                           ;main.c: 232: KeyOldFlag = 0;
 10743  17EF  1683               	bsf	3,5	;RP0=1, select bank3
 10744  17F0  1703               	bsf	3,6	;RP1=1, select bank3
 10745  17F1  01E2               	clrf	KeyServer@KeyOldFlag^(0+384)
 10746  17F2  01E3               	clrf	(KeyServer@KeyOldFlag+1)^(0+384)
 10747                           
 10748                           ;main.c: 233: Key_ON_Times=0;
 10749  17F3  1303               	bcf	3,6	;RP1=0, select bank1
 10750  17F4  01B1               	clrf	_Key_ON_Times^(0+128)
 10751  17F5  01B2               	clrf	(_Key_ON_Times+1)^(0+128)
 10752  17F6                     l1308:	
 10753  17F6  0008               	return
 10754  17F7                     __end_of_KeyServer:	
 10755  17F7                     PL32:	
 10756  17F7  0AB1               	incf	_Key_ON_Times^(0+128),f
 10757  17F8  1903               	skipnz
 10758  17F9  0AB2               	incf	(_Key_ON_Times+1)^(0+128),f
 10759  17FA  3002               	movlw	2
 10760  17FB  0232               	subwf	(_Key_ON_Times+1)^(0+128),w
 10761  17FC  34F0               	retlw	240
 10762  17FD                     PL35:	
 10763  17FD  1283               	bcf	3,5	;RP0=0, select bank0
 10764  17FE  1303               	bcf	3,6	;RP1=0, select bank0
 10765  17FF  0008               	return
 10766                           
 10767                           	psect	text1302
 10768  0982                     __ptext1302:	
 10769 ;; =============== function _DelayX ends ============
 10770                           
 10771                           
 10772 ;; *************** function _Isr_Timer *****************
 10773 ;; Defined at:
 10774 ;;		line 241 in file "E:\BBA'DATA\\\V4.7\main.c"
 10775 ;; Parameters:    Size  Location     Type
 10776 ;;		None
 10777 ;; Auto vars:     Size  Location     Type
 10778 ;;		None
 10779 ;; Return value:  Size  Location     Type
 10780 ;;		None               void
 10781 ;; Registers used:
 10782 ;;		wreg, fsr0l, fsr0h, status,2, status,0, pclath, cstack
 10783 ;; Tracked objects:
 10784 ;;		On entry : 0/0
 10785 ;;		On exit  : 60/0
 10786 ;;		Unchanged: FFE9F/0
 10787 ;; Data sizes:     COMMON   BANK0   BANK1   BANK3   BANK2
 10788 ;;      Params:         0       0       0       0       0
 10789 ;;      Locals:         0       0       0       0       0
 10790 ;;      Temps:          3       0       0       0       0
 10791 ;;      Totals:         3       0       0       0       0
 10792 ;;Total ram usage:        3 bytes
 10793 ;; Hardware stack levels used:    1
 10794 ;; Hardware stack levels required when called:    2
 10795 ;; This function calls:
 10796 ;;		_Set_Disp
 10797 ;; This function is called by:
 10798 ;;		Interrupt level 1
 10799 ;; This function uses a non-reentrant model
 10800 ;;
 10801  0982                     _Isr_Timer:	
 10802  0982  232C               	call	PL36	;select bank 0
 10803                           
 10804                           ;main.c: 242: if(TMR2IF)
 10805  0983  1C8C               	btfss	12,1
 10806  0984  2991               	goto	i1l11633
 10807                           
 10808                           ;main.c: 243: {
 10809                           ;main.c: 244: TMR2IF = 0;
 10810  0985  108C               	bcf	12,1
 10811                           
 10812                           ;main.c: 246: {
 10813                           ;main.c: 247: Set_Disp();
 10814  0986  219D  120A  158A   	fcall	_Set_Disp
 10815                           
 10816                           ;main.c: 248: }
 10817                           ;main.c: 250: if(++MainTime>=2)
 10818  0989  3002               	movlw	2
 10819  098A  0ACD               	incf	_MainTime,f	;volatile
 10820  098B  024D               	subwf	_MainTime,w	;volatile
 10821  098C  1C03               	skipc
 10822  098D  2992               	goto	i1l11635
 10823                           
 10824                           ;main.c: 251: {
 10825                           ;main.c: 252: MainTime=0;
 10826  098E  01CD               	clrf	_MainTime	;volatile
 10827                           
 10828                           ;main.c: 253: B_MainLoop = 1;
 10829  098F  1470               	bsf	_B_MainLoop/(0+8),_B_MainLoop& (0+7)
 10830  0990  2992               	goto	i1l11635
 10831  0991                     i1l11633:	
 10832                           
 10833                           ;main.c: 257: else
 10834                           ;main.c: 258: {
 10835                           ;main.c: 259: PIR1 = 0;
 10836  0991  018C               	clrf	12	;volatile
 10837  0992                     i1l11635:	
 10838                           
 10839                           ;main.c: 261: }
 10840                           ;main.c: 262: if(RBIF)
 10841  0992  180B               	btfsc	11,0
 10842                           
 10843                           ;main.c: 263: {
 10844                           ;main.c: 265: RBIF=0;
 10845  0993  100B               	bcf	11,0
 10846  0994  0879               	movf	??_Isr_Timer+2,w
 10847  0995  008A               	movwf	10
 10848  0996  0878               	movf	??_Isr_Timer+1,w
 10849  0997  0084               	movwf	4
 10850  0998  0E77               	swapf	??_Isr_Timer^(0+-128),w
 10851  0999  0083               	movwf	3
 10852  099A  0EFE               	swapf	126,f
 10853  099B  0E7E               	swapf	126,w
 10854  099C  0009               	retfie
 10855  099D                     __end_of_Isr_Timer:	
 10856  099D                     __ptext1303:	
 10857 ;; =============== function _Isr_Timer ends ============
 10858                           
 10859                           
 10860 ;; *************** function _Set_Disp *****************
 10861 ;; Defined at:
 10862 ;;		line 113 in file "E:\BBA'DATA\\\V4.7\LCD.c"
 10863 ;; Parameters:    Size  Location     Type
 10864 ;;		None
 10865 ;; Auto vars:     Size  Location     Type
 10866 ;;		None
 10867 ;; Return value:  Size  Location     Type
 10868 ;;		None               void
 10869 ;; Registers used:
 10870 ;;		wreg, fsr0l, fsr0h, status,2, status,0, pclath, cstack
 10871 ;; Tracked objects:
 10872 ;;		On entry : 60/0
 10873 ;;		On exit  : 60/0
 10874 ;;		Unchanged: FFE9F/0
 10875 ;; Data sizes:     COMMON   BANK0   BANK1   BANK3   BANK2
 10876 ;;      Params:         0       0       0       0       0
 10877 ;;      Locals:         0       0       0       0       0
 10878 ;;      Temps:          0       0       0       0       0
 10879 ;;      Totals:         0       0       0       0       0
 10880 ;;Total ram usage:        0 bytes
 10881 ;; Hardware stack levels used:    1
 10882 ;; Hardware stack levels required when called:    1
 10883 ;; This function calls:
 10884 ;;		i1__74HC595_SET
 10885 ;; This function is called by:
 10886 ;;		_Isr_Timer
 10887 ;; This function uses a non-reentrant model
 10888 ;;
 10889  099D                     _Set_Disp:	
 10890                           
 10891                           ;LCD.c: 116: TRISC = 0B10111100;
 10892                           
 10893                           ; Regs used in _Set_Disp: [wreg-fsr0h+status,2+status,0+pclath+cstack]
 10894  099D  30BC               	movlw	188
 10895  099E  1683               	bsf	3,5	;RP0=1, select bank1
 10896  099F  0087               	movwf	7	;volatile
 10897                           
 10898                           ;LCD.c: 119: if(com_count&0x01)
 10899  09A0  1C7C               	btfss	_com_count,0
 10900  09A1  29A6               	goto	i1l11645
 10901                           
 10902                           ;LCD.c: 120: {
 10903                           ;LCD.c: 121: Temp_595[2]=0XFF;
 10904  09A2  30FF               	movlw	255
 10905  09A3  1283               	bcf	3,5	;RP0=0, select bank0
 10906  09A4  00A7               	movwf	_Temp_595+2	;volatile
 10907                           
 10908                           ;LCD.c: 122: }
 10909  09A5  2AC9               	goto	i1l11857
 10910  09A6                     i1l11645:	
 10911                           
 10912                           ;LCD.c: 123: else
 10913                           ;LCD.c: 124: {
 10914                           ;LCD.c: 125: Temp_595[2]=0X00;
 10915  09A6  1283               	bcf	3,5	;RP0=0, select bank0
 10916  09A7  01A7               	clrf	_Temp_595+2	;volatile
 10917  09A8  2AC9               	goto	i1l11857
 10918  09A9                     i1l3811:	
 10919                           ;LCD.c: 129: {
 10920                           ;LCD.c: 130: case 0:
 10921                           
 10922                           
 10923                           ;LCD.c: 132: if(display[0] & 0B00000010) {Temp_595[2]|=1<<7;}
 10924  09A9  1CA0               	btfss	_display,1
 10925  09AA  29AC               	goto	i1l3812
 10926  09AB  17A7               	bsf	_Temp_595+2,7	;volatile
 10927  09AC                     i1l3812:	
 10928                           
 10929                           ;LCD.c: 133: if(display[0] & 0B00000001) {Temp_595[2]|=1<<6;}
 10930  09AC  1C20               	btfss	_display,0
 10931  09AD  29AF               	goto	i1l3813
 10932  09AE  1727               	bsf	_Temp_595+2,6	;volatile
 10933  09AF                     i1l3813:	
 10934                           
 10935                           ;LCD.c: 134: if(display[3] & 0B00000010) {Temp_595[2]|=1<<0;}
 10936  09AF  1CA3               	btfss	_display+3,1	;volatile
 10937  09B0  29B2               	goto	i1l3814
 10938  09B1  1427               	bsf	_Temp_595+2,0	;volatile
 10939  09B2                     i1l3814:	
 10940                           
 10941                           ;LCD.c: 135: if(display[3] & 0B00000001) {Temp_595[2]|=1<<1;}
 10942  09B2  1C23               	btfss	_display+3,0	;volatile
 10943  09B3  29B5               	goto	i1l3815
 10944  09B4  14A7               	bsf	_Temp_595+2,1	;volatile
 10945  09B5                     i1l3815:	
 10946                           
 10947                           ;LCD.c: 136: if(display[2] & 0B00000010) {Temp_595[2]|=1<<2;}
 10948  09B5  1CA2               	btfss	_display+2,1	;volatile
 10949  09B6  29B8               	goto	i1l3816
 10950  09B7  1527               	bsf	_Temp_595+2,2	;volatile
 10951  09B8                     i1l3816:	
 10952                           
 10953                           ;LCD.c: 137: if(display[2] & 0B00000001) {Temp_595[2]|=1<<5;}
 10954  09B8  1C22               	btfss	_display+2,0	;volatile
 10955  09B9  29BB               	goto	i1l3817
 10956  09BA  16A7               	bsf	_Temp_595+2,5	;volatile
 10957  09BB                     i1l3817:	
 10958                           
 10959                           ;LCD.c: 138: if(display[1] & 0B00000010) {Temp_595[2]|=1<<4;}
 10960  09BB  1CA1               	btfss	_display+1,1	;volatile
 10961  09BC  29BE               	goto	i1l3818
 10962  09BD  1627               	bsf	_Temp_595+2,4	;volatile
 10963  09BE                     i1l3818:	
 10964                           
 10965                           ;LCD.c: 139: if(display[1] & 0B00000001) {Temp_595[2]|=1<<3;}
 10966  09BE  1C21               	btfss	_display+1,0	;volatile
 10967  09BF  29C1               	goto	i1l11663
 10968  09C0  15A7               	bsf	_Temp_595+2,3	;volatile
 10969  09C1                     i1l11663:	
 10970                           
 10971                           ;LCD.c: 141: _74HC595_SET();
 10972  09C1  22E9  120A  158A   	fcall	i1__74HC595_SET
 10973                           
 10974                           ;LCD.c: 143: COMEN =0B00111000;
 10975                           
 10976                           ;LCD.c: 144: RC2 = 0;
 10977  09C4  2310  120A  158A   	fcall	PL21	;call to abstracted procedure
 10978  09C7  1107               	bcf	7,2
 10979                           
 10980                           ;LCD.c: 145: TRISC = 0B10111000;
 10981  09C8  1683               	bsf	3,5	;RP0=1, select bank1
 10982  09C9  0087               	movwf	7	;volatile
 10983                           
 10984                           ;LCD.c: 146: RC2 = 0;
 10985  09CA  1283               	bcf	3,5	;RP0=0, select bank0
 10986  09CB  1107               	bcf	7,2
 10987                           
 10988                           ;LCD.c: 148: break;
 10989  09CC  2AE3               	goto	i1l11859
 10990  09CD                     i1l3821:	
 10991                           ;LCD.c: 149: case 1:
 10992                           
 10993                           
 10994                           ;LCD.c: 151: if(display[0] & 0B00000010) {Temp_595[2] &=~(1<<7);}
 10995  09CD  1CA0               	btfss	_display,1
 10996  09CE  29D0               	goto	i1l3822
 10997  09CF  13A7               	bcf	_Temp_595+2,7	;volatile
 10998  09D0                     i1l3822:	
 10999                           
 11000                           ;LCD.c: 152: if(display[0] & 0B00000001) {Temp_595[2] &=~(1<<6);}
 11001  09D0  1C20               	btfss	_display,0
 11002  09D1  29D3               	goto	i1l3823
 11003  09D2  1327               	bcf	_Temp_595+2,6	;volatile
 11004  09D3                     i1l3823:	
 11005                           
 11006                           ;LCD.c: 153: if(display[3] & 0B00000010) {Temp_595[2] &=~(1<<0);}
 11007  09D3  1CA3               	btfss	_display+3,1	;volatile
 11008  09D4  29D6               	goto	i1l3824
 11009  09D5  1027               	bcf	_Temp_595+2,0	;volatile
 11010  09D6                     i1l3824:	
 11011                           
 11012                           ;LCD.c: 154: if(display[3] & 0B00000001) {Temp_595[2] &=~(1<<1);}
 11013  09D6  1C23               	btfss	_display+3,0	;volatile
 11014  09D7  29D9               	goto	i1l3825
 11015  09D8  10A7               	bcf	_Temp_595+2,1	;volatile
 11016  09D9                     i1l3825:	
 11017                           
 11018                           ;LCD.c: 155: if(display[2] & 0B00000010) {Temp_595[2] &=~(1<<2);}
 11019  09D9  1CA2               	btfss	_display+2,1	;volatile
 11020  09DA  29DC               	goto	i1l3826
 11021  09DB  1127               	bcf	_Temp_595+2,2	;volatile
 11022  09DC                     i1l3826:	
 11023                           
 11024                           ;LCD.c: 156: if(display[2] & 0B00000001) {Temp_595[2] &=~(1<<5);}
 11025  09DC  1C22               	btfss	_display+2,0	;volatile
 11026  09DD  29DF               	goto	i1l3827
 11027  09DE  12A7               	bcf	_Temp_595+2,5	;volatile
 11028  09DF                     i1l3827:	
 11029                           
 11030                           ;LCD.c: 157: if(display[1] & 0B00000010) {Temp_595[2] &=~(1<<4);}
 11031  09DF  1CA1               	btfss	_display+1,1	;volatile
 11032  09E0  29E2               	goto	i1l3828
 11033  09E1  1227               	bcf	_Temp_595+2,4	;volatile
 11034  09E2                     i1l3828:	
 11035                           
 11036                           ;LCD.c: 158: if(display[1] & 0B00000001) {Temp_595[2] &=~(1<<3);}
 11037  09E2  1C21               	btfss	_display+1,0	;volatile
 11038  09E3  29E5               	goto	i1l11689
 11039  09E4  11A7               	bcf	_Temp_595+2,3	;volatile
 11040  09E5                     i1l11689:	
 11041                           
 11042                           ;LCD.c: 160: _74HC595_SET();
 11043  09E5  22E9  120A  158A   	fcall	i1__74HC595_SET
 11044                           
 11045                           ;LCD.c: 162: COMEN =0B00111000;
 11046                           
 11047                           ;LCD.c: 163: RC2 = 1;
 11048  09E8  2310  120A  158A   	fcall	PL21	;call to abstracted procedure
 11049  09EB  1507               	bsf	7,2
 11050                           
 11051                           ;LCD.c: 164: TRISC = 0B10111000;
 11052  09EC  1683               	bsf	3,5	;RP0=1, select bank1
 11053  09ED  0087               	movwf	7	;volatile
 11054                           
 11055                           ;LCD.c: 165: RC2 = 1;
 11056  09EE  1283               	bcf	3,5	;RP0=0, select bank0
 11057  09EF  1507               	bsf	7,2
 11058                           
 11059                           ;LCD.c: 166: break;
 11060  09F0  2AE3               	goto	i1l11859
 11061  09F1                     i1l3830:	
 11062                           ;LCD.c: 168: case 2:
 11063                           
 11064                           
 11065                           ;LCD.c: 170: if(display[0] & 0B01000000) {Temp_595[2]|=1<<7;}
 11066  09F1  1F20               	btfss	_display,6
 11067  09F2  29F4               	goto	i1l3831
 11068  09F3  17A7               	bsf	_Temp_595+2,7	;volatile
 11069  09F4                     i1l3831:	
 11070                           
 11071                           ;LCD.c: 171: if(display[0] & 0B00100000) {Temp_595[2]|=1<<6;}
 11072  09F4  1EA0               	btfss	_display,5
 11073  09F5  29F7               	goto	i1l3832
 11074  09F6  1727               	bsf	_Temp_595+2,6	;volatile
 11075  09F7                     i1l3832:	
 11076                           
 11077                           ;LCD.c: 172: if(display[3] & 0B01000000) {Temp_595[2]|=1<<0;}
 11078  09F7  1F23               	btfss	_display+3,6	;volatile
 11079  09F8  29FA               	goto	i1l3833
 11080  09F9  1427               	bsf	_Temp_595+2,0	;volatile
 11081  09FA                     i1l3833:	
 11082                           
 11083                           ;LCD.c: 173: if(display[3] & 0B00100000) {Temp_595[2]|=1<<1;}
 11084  09FA  1EA3               	btfss	_display+3,5	;volatile
 11085  09FB  29FD               	goto	i1l3834
 11086  09FC  14A7               	bsf	_Temp_595+2,1	;volatile
 11087  09FD                     i1l3834:	
 11088                           
 11089                           ;LCD.c: 174: if(display[2] & 0B01000000) {Temp_595[2]|=1<<2;}
 11090  09FD  1F22               	btfss	_display+2,6	;volatile
 11091  09FE  2A00               	goto	i1l3835
 11092  09FF  1527               	bsf	_Temp_595+2,2	;volatile
 11093  0A00                     i1l3835:	
 11094                           
 11095                           ;LCD.c: 175: if(display[2] & 0B00100000) {Temp_595[2]|=1<<5;}
 11096  0A00  1EA2               	btfss	_display+2,5	;volatile
 11097  0A01  2A03               	goto	i1l3836
 11098  0A02  16A7               	bsf	_Temp_595+2,5	;volatile
 11099  0A03                     i1l3836:	
 11100                           
 11101                           ;LCD.c: 176: if(display[1] & 0B01000000) {Temp_595[2]|=1<<4;}
 11102  0A03  1F21               	btfss	_display+1,6	;volatile
 11103  0A04  2A06               	goto	i1l3837
 11104  0A05  1627               	bsf	_Temp_595+2,4	;volatile
 11105  0A06                     i1l3837:	
 11106                           
 11107                           ;LCD.c: 177: if(display[1] & 0B00100000) {Temp_595[2]|=1<<3;}
 11108  0A06  1EA1               	btfss	_display+1,5	;volatile
 11109  0A07  2A09               	goto	i1l11715
 11110  0A08  15A7               	bsf	_Temp_595+2,3	;volatile
 11111  0A09                     i1l11715:	
 11112                           
 11113                           ;LCD.c: 179: _74HC595_SET();
 11114  0A09  22E9  120A  158A   	fcall	i1__74HC595_SET
 11115                           
 11116                           ;LCD.c: 181: COMEN =0B00110100;
 11117                           
 11118                           ;LCD.c: 182: RC3 = 0;
 11119  0A0C  2317  120A  158A   	fcall	PL22	;call to abstracted procedure
 11120  0A0F  1187               	bcf	7,3
 11121                           
 11122                           ;LCD.c: 183: TRISC = 0B10110100;
 11123  0A10  1683               	bsf	3,5	;RP0=1, select bank1
 11124  0A11  0087               	movwf	7	;volatile
 11125                           
 11126                           ;LCD.c: 184: RC3 = 0;
 11127  0A12  1283               	bcf	3,5	;RP0=0, select bank0
 11128  0A13  1187               	bcf	7,3
 11129                           
 11130                           ;LCD.c: 186: break;
 11131  0A14  2AE3               	goto	i1l11859
 11132  0A15                     i1l3839:	
 11133                           ;LCD.c: 187: case 3:
 11134                           
 11135                           
 11136                           ;LCD.c: 189: if(display[0] & 0B01000000) {Temp_595[2] &=~(1<<7);}
 11137  0A15  1F20               	btfss	_display,6
 11138  0A16  2A18               	goto	i1l3840
 11139  0A17  13A7               	bcf	_Temp_595+2,7	;volatile
 11140  0A18                     i1l3840:	
 11141                           
 11142                           ;LCD.c: 190: if(display[0] & 0B00100000) {Temp_595[2] &=~(1<<6);}
 11143  0A18  1EA0               	btfss	_display,5
 11144  0A19  2A1B               	goto	i1l3841
 11145  0A1A  1327               	bcf	_Temp_595+2,6	;volatile
 11146  0A1B                     i1l3841:	
 11147                           
 11148                           ;LCD.c: 191: if(display[3] & 0B01000000) {Temp_595[2] &=~(1<<0);}
 11149  0A1B  1F23               	btfss	_display+3,6	;volatile
 11150  0A1C  2A1E               	goto	i1l3842
 11151  0A1D  1027               	bcf	_Temp_595+2,0	;volatile
 11152  0A1E                     i1l3842:	
 11153                           
 11154                           ;LCD.c: 192: if(display[3] & 0B00100000) {Temp_595[2] &=~(1<<1);}
 11155  0A1E  1EA3               	btfss	_display+3,5	;volatile
 11156  0A1F  2A21               	goto	i1l3843
 11157  0A20  10A7               	bcf	_Temp_595+2,1	;volatile
 11158  0A21                     i1l3843:	
 11159                           
 11160                           ;LCD.c: 193: if(display[2] & 0B01000000) {Temp_595[2] &=~(1<<2);}
 11161  0A21  1F22               	btfss	_display+2,6	;volatile
 11162  0A22  2A24               	goto	i1l3844
 11163  0A23  1127               	bcf	_Temp_595+2,2	;volatile
 11164  0A24                     i1l3844:	
 11165                           
 11166                           ;LCD.c: 194: if(display[2] & 0B00100000) {Temp_595[2] &=~(1<<5);}
 11167  0A24  1EA2               	btfss	_display+2,5	;volatile
 11168  0A25  2A27               	goto	i1l3845
 11169  0A26  12A7               	bcf	_Temp_595+2,5	;volatile
 11170  0A27                     i1l3845:	
 11171                           
 11172                           ;LCD.c: 195: if(display[1] & 0B01000000) {Temp_595[2] &=~(1<<4);}
 11173  0A27  1F21               	btfss	_display+1,6	;volatile
 11174  0A28  2A2A               	goto	i1l3846
 11175  0A29  1227               	bcf	_Temp_595+2,4	;volatile
 11176  0A2A                     i1l3846:	
 11177                           
 11178                           ;LCD.c: 196: if(display[1] & 0B00100000) {Temp_595[2] &=~(1<<3);}
 11179  0A2A  1EA1               	btfss	_display+1,5	;volatile
 11180  0A2B  2A2D               	goto	i1l11741
 11181  0A2C  11A7               	bcf	_Temp_595+2,3	;volatile
 11182  0A2D                     i1l11741:	
 11183                           
 11184                           ;LCD.c: 198: _74HC595_SET();
 11185  0A2D  22E9  120A  158A   	fcall	i1__74HC595_SET
 11186                           
 11187                           ;LCD.c: 200: COMEN =0B00110100;
 11188                           
 11189                           ;LCD.c: 201: RC3 = 1;
 11190  0A30  2317  120A  158A   	fcall	PL22	;call to abstracted procedure
 11191  0A33  1587               	bsf	7,3
 11192                           
 11193                           ;LCD.c: 202: TRISC = 0B10110100;
 11194  0A34  1683               	bsf	3,5	;RP0=1, select bank1
 11195  0A35  0087               	movwf	7	;volatile
 11196                           
 11197                           ;LCD.c: 203: RC3 = 1;
 11198  0A36  1283               	bcf	3,5	;RP0=0, select bank0
 11199  0A37  1587               	bsf	7,3
 11200                           
 11201                           ;LCD.c: 204: break;
 11202  0A38  2AE3               	goto	i1l11859
 11203  0A39                     i1l3848:	
 11204                           ;LCD.c: 206: case 4:
 11205                           
 11206                           
 11207                           ;LCD.c: 208: if(display[0] & 0B00000100) {Temp_595[2]|=1<<7;}
 11208  0A39  1D20               	btfss	_display,2
 11209  0A3A  2A3C               	goto	i1l3849
 11210  0A3B  17A7               	bsf	_Temp_595+2,7	;volatile
 11211  0A3C                     i1l3849:	
 11212                           
 11213                           ;LCD.c: 209: if(display[0] & 0B00010000) {Temp_595[2]|=1<<6;}
 11214  0A3C  1E20               	btfss	_display,4
 11215  0A3D  2A3F               	goto	i1l3850
 11216  0A3E  1727               	bsf	_Temp_595+2,6	;volatile
 11217  0A3F                     i1l3850:	
 11218                           
 11219                           ;LCD.c: 210: if(display[3] & 0B00000100) {Temp_595[2]|=1<<0;}
 11220  0A3F  1D23               	btfss	_display+3,2	;volatile
 11221  0A40  2A42               	goto	i1l3851
 11222  0A41  1427               	bsf	_Temp_595+2,0	;volatile
 11223  0A42                     i1l3851:	
 11224                           
 11225                           ;LCD.c: 211: if(display[3] & 0B00010000) {Temp_595[2]|=1<<1;}
 11226  0A42  1E23               	btfss	_display+3,4	;volatile
 11227  0A43  2A45               	goto	i1l3852
 11228  0A44  14A7               	bsf	_Temp_595+2,1	;volatile
 11229  0A45                     i1l3852:	
 11230                           
 11231                           ;LCD.c: 212: if(display[2] & 0B00000100) {Temp_595[2]|=1<<2;}
 11232  0A45  1D22               	btfss	_display+2,2	;volatile
 11233  0A46  2A48               	goto	i1l3853
 11234  0A47  1527               	bsf	_Temp_595+2,2	;volatile
 11235  0A48                     i1l3853:	
 11236                           
 11237                           ;LCD.c: 213: if(display[2] & 0B00010000) {Temp_595[2]|=1<<5;}
 11238  0A48  1E22               	btfss	_display+2,4	;volatile
 11239  0A49  2A4B               	goto	i1l3854
 11240  0A4A  16A7               	bsf	_Temp_595+2,5	;volatile
 11241  0A4B                     i1l3854:	
 11242                           
 11243                           ;LCD.c: 214: if(display[1] & 0B00000100) {Temp_595[2]|=1<<4;}
 11244  0A4B  1D21               	btfss	_display+1,2	;volatile
 11245  0A4C  2A4E               	goto	i1l3855
 11246  0A4D  1627               	bsf	_Temp_595+2,4	;volatile
 11247  0A4E                     i1l3855:	
 11248                           
 11249                           ;LCD.c: 215: if(display[1] & 0B00010000) {Temp_595[2]|=1<<3;}
 11250  0A4E  1E21               	btfss	_display+1,4	;volatile
 11251  0A4F  2A51               	goto	i1l11767
 11252  0A50  15A7               	bsf	_Temp_595+2,3	;volatile
 11253  0A51                     i1l11767:	
 11254                           
 11255                           ;LCD.c: 217: _74HC595_SET();
 11256  0A51  22E9  120A  158A   	fcall	i1__74HC595_SET
 11257                           
 11258                           ;LCD.c: 219: COMEN =0B00101100;
 11259                           
 11260                           ;LCD.c: 220: RC4 = 0;
 11261  0A54  2325  120A  158A   	fcall	PL28	;call to abstracted procedure
 11262  0A57  1207               	bcf	7,4
 11263                           
 11264                           ;LCD.c: 221: TRISC = 0B10101100;
 11265  0A58  1683               	bsf	3,5	;RP0=1, select bank1
 11266  0A59  0087               	movwf	7	;volatile
 11267                           
 11268                           ;LCD.c: 222: RC4 = 0;
 11269  0A5A  1283               	bcf	3,5	;RP0=0, select bank0
 11270  0A5B  1207               	bcf	7,4
 11271                           
 11272                           ;LCD.c: 223: break;
 11273  0A5C  2AE3               	goto	i1l11859
 11274  0A5D                     i1l3857:	
 11275                           ;LCD.c: 224: case 5:
 11276                           
 11277                           
 11278                           ;LCD.c: 226: if(display[0] & 0B00000100) {Temp_595[2] &=~(1<<7);}
 11279  0A5D  1D20               	btfss	_display,2
 11280  0A5E  2A60               	goto	i1l3858
 11281  0A5F  13A7               	bcf	_Temp_595+2,7	;volatile
 11282  0A60                     i1l3858:	
 11283                           
 11284                           ;LCD.c: 227: if(display[0] & 0B00010000) {Temp_595[2] &=~(1<<6);}
 11285  0A60  1E20               	btfss	_display,4
 11286  0A61  2A63               	goto	i1l3859
 11287  0A62  1327               	bcf	_Temp_595+2,6	;volatile
 11288  0A63                     i1l3859:	
 11289                           
 11290                           ;LCD.c: 228: if(display[3] & 0B00000100) {Temp_595[2] &=~(1<<0);}
 11291  0A63  1D23               	btfss	_display+3,2	;volatile
 11292  0A64  2A66               	goto	i1l3860
 11293  0A65  1027               	bcf	_Temp_595+2,0	;volatile
 11294  0A66                     i1l3860:	
 11295                           
 11296                           ;LCD.c: 229: if(display[3] & 0B00010000) {Temp_595[2] &=~(1<<1);}
 11297  0A66  1E23               	btfss	_display+3,4	;volatile
 11298  0A67  2A69               	goto	i1l3861
 11299  0A68  10A7               	bcf	_Temp_595+2,1	;volatile
 11300  0A69                     i1l3861:	
 11301                           
 11302                           ;LCD.c: 230: if(display[2] & 0B00000100) {Temp_595[2] &=~(1<<2);}
 11303  0A69  1D22               	btfss	_display+2,2	;volatile
 11304  0A6A  2A6C               	goto	i1l3862
 11305  0A6B  1127               	bcf	_Temp_595+2,2	;volatile
 11306  0A6C                     i1l3862:	
 11307                           
 11308                           ;LCD.c: 231: if(display[2] & 0B00010000) {Temp_595[2] &=~(1<<5);}
 11309  0A6C  1E22               	btfss	_display+2,4	;volatile
 11310  0A6D  2A6F               	goto	i1l3863
 11311  0A6E  12A7               	bcf	_Temp_595+2,5	;volatile
 11312  0A6F                     i1l3863:	
 11313                           
 11314                           ;LCD.c: 232: if(display[1] & 0B00000100) {Temp_595[2] &=~(1<<4);}
 11315  0A6F  1D21               	btfss	_display+1,2	;volatile
 11316  0A70  2A72               	goto	i1l3864
 11317  0A71  1227               	bcf	_Temp_595+2,4	;volatile
 11318  0A72                     i1l3864:	
 11319                           
 11320                           ;LCD.c: 233: if(display[1] & 0B00010000) {Temp_595[2] &=~(1<<3);}
 11321  0A72  1E21               	btfss	_display+1,4	;volatile
 11322  0A73  2A75               	goto	i1l11793
 11323  0A74  11A7               	bcf	_Temp_595+2,3	;volatile
 11324  0A75                     i1l11793:	
 11325                           
 11326                           ;LCD.c: 235: _74HC595_SET();
 11327  0A75  22E9  120A  158A   	fcall	i1__74HC595_SET
 11328                           
 11329                           ;LCD.c: 237: COMEN =0B00101100;
 11330                           
 11331                           ;LCD.c: 238: RC4 = 1;
 11332  0A78  2325  120A  158A   	fcall	PL28	;call to abstracted procedure
 11333  0A7B  1607               	bsf	7,4
 11334                           
 11335                           ;LCD.c: 239: TRISC = 0B10101100;
 11336  0A7C  1683               	bsf	3,5	;RP0=1, select bank1
 11337  0A7D  0087               	movwf	7	;volatile
 11338                           
 11339                           ;LCD.c: 240: RC4 = 1;
 11340  0A7E  1283               	bcf	3,5	;RP0=0, select bank0
 11341  0A7F  1607               	bsf	7,4
 11342                           
 11343                           ;LCD.c: 241: break;
 11344  0A80  2AE3               	goto	i1l11859
 11345  0A81                     i1l3866:	
 11346                           ;LCD.c: 243: case 6:
 11347                           
 11348                           
 11349                           ;LCD.c: 245: if(display[0] & 0B00001000) {Temp_595[2]|=1<<6;}
 11350  0A81  1DA0               	btfss	_display,3
 11351  0A82  2A84               	goto	i1l3867
 11352  0A83  1727               	bsf	_Temp_595+2,6	;volatile
 11353  0A84                     i1l3867:	
 11354                           
 11355                           ;LCD.c: 246: if(display[1] & 0B00001000) {Temp_595[2]|=1<<3;}
 11356  0A84  1DA1               	btfss	_display+1,3	;volatile
 11357  0A85  2A87               	goto	i1l3868
 11358  0A86  15A7               	bsf	_Temp_595+2,3	;volatile
 11359  0A87                     i1l3868:	
 11360                           
 11361                           ;LCD.c: 247: if(display[2] & 0B00001000) {Temp_595[2]|=1<<5;}
 11362  0A87  1DA2               	btfss	_display+2,3	;volatile
 11363  0A88  2A8A               	goto	i1l3869
 11364  0A89  16A7               	bsf	_Temp_595+2,5	;volatile
 11365  0A8A                     i1l3869:	
 11366                           
 11367                           ;LCD.c: 248: if(display[3] & 0B00001000) {Temp_595[2]|=1<<1;}
 11368  0A8A  1DA3               	btfss	_display+3,3	;volatile
 11369  0A8B  2A8D               	goto	i1l3870
 11370  0A8C  14A7               	bsf	_Temp_595+2,1	;volatile
 11371  0A8D                     i1l3870:	
 11372                           
 11373                           ;LCD.c: 250: if(display[4] & 0X01) {Temp_595[2]|=1<<7;}
 11374  0A8D  1C24               	btfss	_display+4,0	;volatile
 11375  0A8E  2A90               	goto	i1l3871
 11376  0A8F  17A7               	bsf	_Temp_595+2,7	;volatile
 11377  0A90                     i1l3871:	
 11378                           
 11379                           ;LCD.c: 251: if(display[4] & 0X02) {Temp_595[2]|=1<<0;}
 11380  0A90  1CA4               	btfss	_display+4,1	;volatile
 11381  0A91  2A93               	goto	i1l3872
 11382  0A92  1427               	bsf	_Temp_595+2,0	;volatile
 11383  0A93                     i1l3872:	
 11384                           
 11385                           ;LCD.c: 252: if(display[4] & 0X04) {Temp_595[2]|=1<<2;;}
 11386  0A93  1D24               	btfss	_display+4,2	;volatile
 11387  0A94  2A96               	goto	i1l3873
 11388  0A95  1527               	bsf	_Temp_595+2,2	;volatile
 11389  0A96                     i1l3873:	
 11390                           
 11391                           ;LCD.c: 253: if(display[4] & 0X08) {Temp_595[2]|=1<<4;}
 11392  0A96  1DA4               	btfss	_display+4,3	;volatile
 11393  0A97  2A99               	goto	i1l11819
 11394  0A98  1627               	bsf	_Temp_595+2,4	;volatile
 11395  0A99                     i1l11819:	
 11396                           
 11397                           ;LCD.c: 255: _74HC595_SET();
 11398  0A99  22E9  120A  158A   	fcall	i1__74HC595_SET
 11399                           
 11400                           ;LCD.c: 257: COMEN =0B00011100;
 11401                           
 11402                           ;LCD.c: 258: RC5 = 0;
 11403  0A9C  231E  120A  158A   	fcall	PL24	;call to abstracted procedure
 11404  0A9F  1287               	bcf	7,5
 11405                           
 11406                           ;LCD.c: 259: TRISC = 0B10011100;
 11407  0AA0  1683               	bsf	3,5	;RP0=1, select bank1
 11408  0AA1  0087               	movwf	7	;volatile
 11409                           
 11410                           ;LCD.c: 260: RC5 = 0;
 11411  0AA2  1283               	bcf	3,5	;RP0=0, select bank0
 11412  0AA3  1287               	bcf	7,5
 11413                           
 11414                           ;LCD.c: 261: break;
 11415  0AA4  2AE3               	goto	i1l11859
 11416  0AA5                     i1l3875:	
 11417                           ;LCD.c: 262: case 7:
 11418                           
 11419                           
 11420                           ;LCD.c: 264: if(display[0] & 0B00001000) {Temp_595[2] &=~(1<<6);}
 11421  0AA5  1DA0               	btfss	_display,3
 11422  0AA6  2AA8               	goto	i1l3876
 11423  0AA7  1327               	bcf	_Temp_595+2,6	;volatile
 11424  0AA8                     i1l3876:	
 11425                           
 11426                           ;LCD.c: 265: if(display[1] & 0B00001000) {Temp_595[2] &=~(1<<3);}
 11427  0AA8  1DA1               	btfss	_display+1,3	;volatile
 11428  0AA9  2AAB               	goto	i1l3877
 11429  0AAA  11A7               	bcf	_Temp_595+2,3	;volatile
 11430  0AAB                     i1l3877:	
 11431                           
 11432                           ;LCD.c: 266: if(display[2] & 0B00001000) {Temp_595[2] &=~(1<<5);}
 11433  0AAB  1DA2               	btfss	_display+2,3	;volatile
 11434  0AAC  2AAE               	goto	i1l3878
 11435  0AAD  12A7               	bcf	_Temp_595+2,5	;volatile
 11436  0AAE                     i1l3878:	
 11437                           
 11438                           ;LCD.c: 267: if(display[3] & 0B00001000) {Temp_595[2] &=~(1<<1);}
 11439  0AAE  1DA3               	btfss	_display+3,3	;volatile
 11440  0AAF  2AB1               	goto	i1l3879
 11441  0AB0  10A7               	bcf	_Temp_595+2,1	;volatile
 11442  0AB1                     i1l3879:	
 11443                           
 11444                           ;LCD.c: 269: if(display[4] & 0X01) {Temp_595[2] &=~(1<<7);}
 11445  0AB1  1C24               	btfss	_display+4,0	;volatile
 11446  0AB2  2AB4               	goto	i1l3880
 11447  0AB3  13A7               	bcf	_Temp_595+2,7	;volatile
 11448  0AB4                     i1l3880:	
 11449                           
 11450                           ;LCD.c: 270: if(display[4] & 0X02) {Temp_595[2] &=~(1<<0);}
 11451  0AB4  1CA4               	btfss	_display+4,1	;volatile
 11452  0AB5  2AB7               	goto	i1l3881
 11453  0AB6  1027               	bcf	_Temp_595+2,0	;volatile
 11454  0AB7                     i1l3881:	
 11455                           
 11456                           ;LCD.c: 271: if(display[4] & 0X04) {Temp_595[2] &=~(1<<2);}
 11457  0AB7  1D24               	btfss	_display+4,2	;volatile
 11458  0AB8  2ABA               	goto	i1l3882
 11459  0AB9  1127               	bcf	_Temp_595+2,2	;volatile
 11460  0ABA                     i1l3882:	
 11461                           
 11462                           ;LCD.c: 272: if(display[4] & 0X08) {Temp_595[2] &=~(1<<4);}
 11463  0ABA  1DA4               	btfss	_display+4,3	;volatile
 11464  0ABB  2ABD               	goto	i1l11845
 11465  0ABC  1227               	bcf	_Temp_595+2,4	;volatile
 11466  0ABD                     i1l11845:	
 11467                           
 11468                           ;LCD.c: 274: _74HC595_SET();
 11469  0ABD  22E9  120A  158A   	fcall	i1__74HC595_SET
 11470                           
 11471                           ;LCD.c: 276: COMEN =0B00011100;
 11472                           
 11473                           ;LCD.c: 277: RC5 = 1;
 11474  0AC0  231E  120A  158A   	fcall	PL24	;call to abstracted procedure
 11475  0AC3  1687               	bsf	7,5
 11476                           
 11477                           ;LCD.c: 278: TRISC = 0B10011100;
 11478  0AC4  1683               	bsf	3,5	;RP0=1, select bank1
 11479  0AC5  0087               	movwf	7	;volatile
 11480                           
 11481                           ;LCD.c: 279: RC5 = 1;
 11482  0AC6  1283               	bcf	3,5	;RP0=0, select bank0
 11483  0AC7  1687               	bsf	7,5
 11484                           
 11485                           ;LCD.c: 280: break;
 11486  0AC8  2AE3               	goto	i1l11859
 11487  0AC9                     i1l11857:	
 11488  0AC9  087C               	movf	_com_count,w	;volatile
 11489                           
 11490                           ; Switch size 1, requested type "space"
 11491                           ; Number of cases is 8, Range of values is 0 to 7
 11492                           ; switch strategies available:
 11493                           ; Name         Instructions Cycles
 11494                           ; simple_byte           25    13 (average)
 11495                           ; direct_byte           32     8 (fixed)
 11496                           ; jumptable            260     6 (fixed)
 11497                           ; rangetable            12     6 (fixed)
 11498                           ; spacedrange           22     9 (fixed)
 11499                           ; locatedrange           8     3 (fixed)
 11500                           ;	Chosen strategy is simple_byte
 11501  0ACA  3A00               	xorlw	0	; case 0
 11502  0ACB  1903               	skipnz
 11503  0ACC  29A9               	goto	i1l3811
 11504  0ACD  3A01               	xorlw	1	; case 1
 11505  0ACE  1903               	skipnz
 11506  0ACF  29CD               	goto	i1l3821
 11507  0AD0  3A03               	xorlw	3	; case 2
 11508  0AD1  1903               	skipnz
 11509  0AD2  29F1               	goto	i1l3830
 11510  0AD3  3A01               	xorlw	1	; case 3
 11511  0AD4  1903               	skipnz
 11512  0AD5  2A15               	goto	i1l3839
 11513  0AD6  3A07               	xorlw	7	; case 4
 11514  0AD7  1903               	skipnz
 11515  0AD8  2A39               	goto	i1l3848
 11516  0AD9  3A01               	xorlw	1	; case 5
 11517  0ADA  1903               	skipnz
 11518  0ADB  2A5D               	goto	i1l3857
 11519  0ADC  3A03               	xorlw	3	; case 6
 11520  0ADD  1903               	skipnz
 11521  0ADE  2A81               	goto	i1l3866
 11522  0ADF  3A01               	xorlw	1	; case 7
 11523  0AE0  1903               	skipnz
 11524  0AE1  2AA5               	goto	i1l3875
 11525  0AE2  2AE3               	goto	i1l11859
 11526  0AE3                     i1l11859:	
 11527                           
 11528                           ;LCD.c: 283: com_count++;
 11529  0AE3  0AFC               	incf	_com_count,f	;volatile
 11530                           
 11531                           ;LCD.c: 284: if( com_count>=8)
 11532  0AE4  3008               	movlw	8
 11533  0AE5  027C               	subwf	_com_count,w	;volatile
 11534  0AE6  1803               	btfsc	3,0
 11535                           
 11536                           ;LCD.c: 285: {
 11537                           ;LCD.c: 286: com_count = 0;
 11538  0AE7  01FC               	clrf	_com_count	;volatile
 11539  0AE8  0008               	return
 11540  0AE9                     __end_of_Set_Disp:	
 11541  0AE9                     __ptext1304:	
 11542 ;; =============== function _Set_Disp ends ============
 11543                           
 11544                           
 11545 ;; *************** function i1__74HC595_SET *****************
 11546 ;; Defined at:
 11547 ;;		line 6 in file "E:\BBA'DATA\\\V4.7\74HC595.c"
 11548 ;; Parameters:    Size  Location     Type
 11549 ;;		None
 11550 ;; Auto vars:     Size  Location     Type
 11551 ;;  _74HC595_SET    1    2[COMMON] char 
 11552 ;;  _74HC595_SET    1    1[COMMON] char 
 11553 ;; Return value:  Size  Location     Type
 11554 ;;		None               void
 11555 ;; Registers used:
 11556 ;;		wreg, fsr0l, fsr0h, status,2, status,0
 11557 ;; Tracked objects:
 11558 ;;		On entry : 60/0
 11559 ;;		On exit  : 160/0
 11560 ;;		Unchanged: FFE9F/0
 11561 ;; Data sizes:     COMMON   BANK0   BANK1   BANK3   BANK2
 11562 ;;      Params:         0       0       0       0       0
 11563 ;;      Locals:         2       0       0       0       0
 11564 ;;      Temps:          1       0       0       0       0
 11565 ;;      Totals:         3       0       0       0       0
 11566 ;;Total ram usage:        3 bytes
 11567 ;; Hardware stack levels used:    1
 11568 ;; This function calls:
 11569 ;;		Nothing
 11570 ;; This function is called by:
 11571 ;;		_Set_Disp
 11572 ;; This function uses a non-reentrant model
 11573 ;;
 11574  0AE9                     i1__74HC595_SET:	
 11575                           
 11576                           ;74HC595.c: 7: signed char i,j;
 11577                           ;74HC595.c: 8: for(i=0;i<3;i++)
 11578                           
 11579                           ; Regs used in i1__74HC595_SET: [wreg-fsr0h+status,2+status,0]
 11580  0AE9  01F5               	clrf	i1__74HC595_SET@i
 11581  0AEA                     i1l12653:	
 11582                           
 11583                           ;74HC595.c: 9: for(j=0;j<8;j++)
 11584  0AEA  01F6               	clrf	i1__74HC595_SET@j
 11585  0AEB                     i1l12659:	
 11586                           
 11587                           ;74HC595.c: 10: {
 11588                           ;74HC595.c: 11: if(Temp_595[i]&(1<<j))
 11589  0AEB  0875               	movf	i1__74HC595_SET@i,w
 11590  0AEC  3E25               	addlw	_Temp_595& (0+255)
 11591  0AED  0084               	movwf	4
 11592  0AEE  3001               	movlw	1
 11593  0AEF  00F4               	movwf	??i1__74HC595_SET
 11594  0AF0  0A76               	incf	i1__74HC595_SET@j,w
 11595  0AF1  2AF4               	goto	u623_24
 11596  0AF2                     u623_25:	
 11597  0AF2  1003               	clrc
 11598  0AF3  0DF4               	rlf	??i1__74HC595_SET,f
 11599  0AF4                     u623_24:	
 11600  0AF4  3EFF               	addlw	-1
 11601  0AF5  1D03               	skipz
 11602  0AF6  2AF2               	goto	u623_25
 11603  0AF7  0874               	movf	??i1__74HC595_SET,w
 11604  0AF8  1383               	bcf	3,7	;select IRP bank0
 11605  0AF9  0500               	andwf	0,w
 11606  0AFA  1903               	btfsc	3,2
 11607  0AFB  2AFE               	goto	i1l2552
 11608                           
 11609                           ;74HC595.c: 12: {
 11610                           ;74HC595.c: 13: RE3=1;
 11611  0AFC  1589               	bsf	9,3
 11612                           
 11613                           ;74HC595.c: 14: }
 11614  0AFD  2AFF               	goto	i1l2553
 11615  0AFE                     i1l2552:	
 11616                           
 11617                           ;74HC595.c: 15: else
 11618                           ;74HC595.c: 16: {
 11619                           ;74HC595.c: 17: RE3=0;
 11620  0AFE  1189               	bcf	9,3
 11621  0AFF                     i1l2553:	
 11622                           
 11623                           ;74HC595.c: 18: }
 11624                           ;74HC595.c: 19: RC1=1;
 11625  0AFF  1487               	bsf	7,1
 11626                           
 11627                           ;74HC595.c: 20: RC1=0;
 11628  0B00  1087               	bcf	7,1
 11629  0B01  0AF6               	incf	i1__74HC595_SET@j,f
 11630  0B02  0876               	movf	i1__74HC595_SET@j,w
 11631  0B03  3A80               	xorlw	128
 11632  0B04  3E78               	addlw	-136
 11633  0B05  1C03               	skipc
 11634  0B06  2AEB               	goto	i1l12659
 11635  0B07  0AF5               	incf	i1__74HC595_SET@i,f
 11636  0B08  0875               	movf	i1__74HC595_SET@i,w
 11637  0B09  3A80               	xorlw	128
 11638  0B0A  3E7D               	addlw	-131
 11639  0B0B  1C03               	skipc
 11640  0B0C  2AEA               	goto	i1l12653
 11641                           
 11642                           ;74HC595.c: 21: }
 11643                           ;74HC595.c: 23: RC6=1;
 11644  0B0D  1707               	bsf	7,6
 11645                           
 11646                           ;74HC595.c: 24: RC6=0;
 11647  0B0E  1307               	bcf	7,6
 11648  0B0F  0008               	return
 11649  0B10                     __end_ofi1__74HC595_SET:	
 11650  0B10                     PL21:	
 11651  0B10  3038               	movlw	56
 11652  0B11  1683               	bsf	3,5	;RP0=1, select bank3
 11653  0B12  1703               	bsf	3,6	;RP1=1, select bank3
 11654  0B13  0097               	movwf	23	;volatile
 11655  0B14  1283               	bcf	3,5	;RP0=0, select bank0
 11656  0B15  1303               	bcf	3,6	;RP1=0, select bank0
 11657  0B16  34B8               	retlw	184
 11658  0B17                     PL22:	
 11659  0B17  3034               	movlw	52
 11660  0B18  1683               	bsf	3,5	;RP0=1, select bank3
 11661  0B19  1703               	bsf	3,6	;RP1=1, select bank3
 11662  0B1A  0097               	movwf	23	;volatile
 11663  0B1B  1283               	bcf	3,5	;RP0=0, select bank0
 11664  0B1C  1303               	bcf	3,6	;RP1=0, select bank0
 11665  0B1D  34B4               	retlw	180
 11666  0B1E                     PL24:	
 11667  0B1E  301C               	movlw	28
 11668  0B1F  1683               	bsf	3,5	;RP0=1, select bank3
 11669  0B20  1703               	bsf	3,6	;RP1=1, select bank3
 11670  0B21  0097               	movwf	23	;volatile
 11671  0B22  1283               	bcf	3,5	;RP0=0, select bank0
 11672  0B23  1303               	bcf	3,6	;RP1=0, select bank0
 11673  0B24  349C               	retlw	156
 11674  0B25                     PL28:	
 11675  0B25  302C               	movlw	44
 11676  0B26  1683               	bsf	3,5	;RP0=1, select bank3
 11677  0B27  1703               	bsf	3,6	;RP1=1, select bank3
 11678  0B28  0097               	movwf	23	;volatile
 11679  0B29  1283               	bcf	3,5	;RP0=0, select bank0
 11680  0B2A  1303               	bcf	3,6	;RP1=0, select bank0
 11681  0B2B  34AC               	retlw	172
 11682  0B2C                     PL36:	
 11683  0B2C  1283               	bcf	3,5	;RP0=0, select bank0
 11684  0B2D  1303               	bcf	3,6	;RP1=0, select bank0
 11685  0B2E  0008               	return
 11686                           
 11687                           	psect	intentry
 11688  0004                     __pintentry:	
 11689                           ; Regs used in _Isr_Timer: [wreg-fsr0h+status,2+status,0+pclath+cstack]
 11690                           
 11691  0004                     interrupt_function:	
 11692  007E                     saved_w	set	btemp
 11693  0004  00FE               	movwf	btemp
 11694  0005  0E03               	swapf	3,w
 11695  0006  00F7               	movwf	??_Isr_Timer
 11696  0007  0804               	movf	4,w
 11697  0008  00F8               	movwf	??_Isr_Timer+1
 11698  0009  080A               	movf	10,w
 11699  000A  00F9               	movwf	??_Isr_Timer+2
 11700  000B  120A  158A  2982   	ljmp	_Isr_Timer
 11701                           
 11702                           	psect	text1305
 11703  0000                     __ptext1305:	
 11704 ;; =============== function i1__74HC595_SET ends ============
 11705                           
 11706  007E                     btemp	set	126	;btemp
 11707  007E                     wtemp0	set	126


HI-TECH Software PICC Macro Assembler V9.83 build 10920 
Symbol Table                                                                                   Fri Nov 10 16:52:41 2017

         NtcAD_Testing@data 0069                  KeyIsIn@cnt 005E                  KeyHave@cnt 005F  
        NtcAD_Testing@admax 0028          NtcAD_Testing@admin 002A          NtcAD_Testing@adsum 00A5  
               KeyHave@flag 005D     __end_of_ShutDowm_Device 15AA                           pc 0002  
        NtcAD_Testing@range 0036               ??_KeyClearOne 005D                ___awdiv@sign 0062  
          _Key_Regular_Lock 0391       __size_of_TurnKeyFlags 0038                          fsr 0004  
          ??_CheckValidTime 005D        NtcAD_Testing@adtimes 0035                         _RB1 0031  
                       _RC0 0038                         _RC1 0039                         _RC2 003A  
                       _RA6 002E                         _RC3 003B                         _RA7 002F  
                       _RC4 003C                         _RE1 0049                         _RC5 003D  
                       _RE2 004A                         _RC6 003E                         _RE3 004B  
                       _PR2 0092            _LED9_Flash_Times 00E8                         _Add 0038  
                       _Tea 0056                         fsr0 0004                         indf 0000  
              ___awmod@sign 0062         CheckOnceResult@flag 0066           ?_GetTouchKeyValue 0074  
         _LED10_Flash_Times 00DD                  KeyServer@i 005D          ??_GetTouchKeyValue 005E  
           __end_of_LED_Crt 16E4          __size_of_AD_Sample 0019            ??i1__74HC595_SET 0074  
                      l1300 1796                        l1302 179E                        l1305 17A8  
                      l1308 17F6                        l1262 0000                        l1281 174A  
                      l1265 0000                        l1290 176A                        l1292 1776  
                      l1284 1755                        l1294 1781                        l1286 175B  
                      l1296 1787                        l1288 1762                        l1298 178E  
                      l2552 15C0                        l5120 13E7                        l2553 15C1  
                      l2554 0000                        l5122 13E1                        l5210 0C24  
                      l5202 0C12                        l5204 0C15                        l5221 0C4F  
                      l5213 0C3D                        l5302 07E5                        l5150 0B69  
                      l5142 0B42                        l5134 0B30                        l5215 0C40  
                      l5304 07F3                        l5224 0C69                        l5136 0B33  
                      l3800 0000                        l5233 0C87                        l5321 1488  
                      l5242 0CA4                        l5226 0C6C                        l5330 14D1  
                      l5251 0CC1                        l5235 0C8A                        l5323 148A  
                      l5260 0CDE                        l5244 0CA7                        l5148 0B67  
                      l5340 145E                        l5324 148C                        l5253 0CC4  
                      l5157 0B83                        l5262 0CE1                        l5166 0BA0  
                      l5334 1441                        l5430 033F                        l7014 0000  
                      l7006 0D2F                        l5271 0CFE                        l5175 0BBB  
                      l5159 0B86                        l5343 1486                        l5327 14A7  
                      l5503 0566                        l5423 02CE                        l5184 0BD8  
                      l5168 0BA2                        l5336 1443                        l5512 05AA  
                      l5440 03DA                        l5416 028F                        l5360 0017  
                      l5193 0BF5                        l5177 0BBE                        l5337 1445  
                      l5441 03D8                        l5433 0374                        l5425 02E4  
                      l5186 0BDB                        l5450 0427                        l5426 02E9  
                      l5514 05EE                        l5195 0BF8                        l5444 040D  
                      l5293 07BE                        l5269 0CFB                        l5525 161F  
                      l5429 0341                        l5286 07A0                        l5446 041F  
                      l5374 00E0                        l5296 07CB                        l5289 07B3  
                      l5561 16E3                        l5369 00B9                        l5546 1682  
                      l5570 0000                        l5299 07D8                        l3795 0745  
                      l5497 0540                        l6910 0000                        l8167 0000  
                      l6905 0000                        l6818 084F                        l6915 0000  
                      l8099 0000                        l6927 0D52                        l6928 0D76  
                      l6961 0000                        l6797 0940                        l6896 0000  
                      l7962 0000                        l6899 0000                        l6987 0F87  
                      l7982 0000                        l7979 067D                        l7988 0000  
                      _IOCB 0096                        _PIE1 008C                        _RBIF 0058  
                      u3944 15B6                        u3945 15B4                        _PIR1 000C  
                      u4915 13FD                        u4880 13ED                        u4890 13F5  
                      u4882 13EE                        u4892 13F6                        u9085 095C  
                      u9405 090B                        u9325 083C                        u9510 0000  
                      u9255 0657                        u9415 0923                        u9335 0849  
                      u9280 1589                        u9185 0619                        u9515 0DCE  
                      u9365 08AE                        u9375 08CB                        u9535 0E11  
                      u9545 0E27                        u9395 08EF                        u9555 0E34  
                      u7895 173E                        u9585 0E76                        _WPUB 0095  
                      _Iced 003F                        _Bold 003B                        _Hour 003E  
                      _main 14D2              ?_NtcAD_Testing 0074                        btemp 007E  
             ?_KeyStopClear 0074                        start 000E              _Key_Start_Lock 0392  
       _ANNULUS_LIGHT_State 0037                _TurnKeyFlags 0F68          __size_of_LED_State 01F3  
           __end_of_KeyIsIn 0EBC             __end_of_KeyHave 0EDF  CheckKeyOldValue@KeyOldTemp 0063  
             ??_Init_System 0060             __end_of_Pattern 05EF  CheckKeyOldValue@KeyResTemp 0061  
               _CheckBuzzer 13CC         __end_of_Hex_To_Temp 0787             _Key_Option_Lock 038E  
            _LED_Flash_Bool 0395                       l11441 15AC                       l11451 0000  
                     l11435 0000                       l11453 0000                       l11447 15AD  
                     l12431 0000             _HOT_MAJOR_State 003D                       l11457 0000  
                     l12441 0000                       l12433 0000                       l12443 0000  
                     l12435 0000                       l15003 0610                       l14221 0000  
                     l14213 0000                       l14205 0000                       l12445 0000  
                     l12437 0000                       l15013 0000                       l15005 0000  
                     l15101 0000                       l14207 1751                       l12439 0000  
                     l12551 0000                       l15015 0627                       l15031 063E  
                     l15023 0000                       l15111 0000                       l15103 0000  
                     l14401 13DE                       l12561 06A4                       l12553 0690  
                     l15017 0000                       l15009 0000                       l15025 0000  
                     l15121 0000                       l15113 0000                       l15105 0000  
                     l15201 0000                       l16001 0000                       l14163 0000  
                     l14235 0000                       l14171 0000                       l14331 0788  
                     l14403 0000                       l12563 0000                       l12555 0000  
                     l15019 062F                       l15043 0651                       l15051 0664  
                     l15035 0645                       l15131 0000                       l15123 0000  
                     l15115 0000                       l15107 0000                       l15211 084B  
                     l16011 0000                       l16003 0000                       l14165 15D2  
                     l14245 0000                       l14237 0000                       l14229 0000  
                     l14405 0000                       l12557 0000                       l12549 0000  
                     l15053 0000                       l15029 0000                       l15061 0000  
                     l15141 0000                       l15133 0000                       l15125 0000  
                     l15117 0000                       l15109 0000                       l15221 0000  
                     l15213 0000                       l15205 0836                       l15301 0000  
                     l16101 04FD                       l16021 0000                       l16013 0454  
                     l16005 0000                       l14271 0000                       l14263 0000  
                     l14255 0000                       l14247 0000                       l14239 0000  
                     l14167 0000                       l11871 1403                       l14351 07AC  
                     l14343 0799                       l14335 0000                       l14503 0BEA  
                     l14423 0000                       l14407 0000                       l15055 066C  
                     l15071 0000                       l15063 0000                       l15151 158C  
                     l15143 0000                       l15135 0000                       l15127 0000  
                     l15119 0000                       l15231 08CD                       l15311 0000  
                     l15303 0000                       l16111 050D                       l16103 0000  
                     l16015 0000                       l16007 0000                       l14249 0000  
                     l14169 0000                       l11873 1407                       l11865 0000  
                     l14329 0000                       l14505 0BFB                       l14441 0B74  
                     l14409 0B36                       l14433 0B59                       l15049 0000  
                     l15081 0000                       l15073 0000                       l15065 0000  
                     l15161 0000                       l15153 0000                       l15145 0000  
                     l15137 0000                       l15129 0000                       l15233 08CF  
                     l15225 0000                       l15217 0000                       l15209 0843  
                     l15313 0000                       l15305 0000                       l15321 0000  
                     l15401 0000                       l16121 0000                       l16113 0000  
                     l16105 0000                       l16033 0000                       l16025 0000  
                     l16009 0000                       l14187 171C                       l14371 0000  
                     l14363 0000                       l14355 0000                       l14347 0000  
                     l14339 0000                       l14611 0CE4                       l14435 0B6B  
                     l14419 0000                       l15091 0000                       l15083 0000  
                     l15075 0000                       l15067 0000                       l15059 0000  
                     l15171 0000                       l15163 0000                       l15155 0000  
                     l15147 0000                       l15139 0000                       l15243 090D  
                     l15235 0000                       l15251 0927                       l15219 0000  
                     l15307 0000                       l15331 0000                       l15323 0DC0  
                     l15411 0000                       l15403 0000                       l16131 0000  
                     l16123 0000                       l16115 0512                       l16107 0508  
                     l16051 0000                       l16043 0000                       l16035 0000  
                     l16027 0476                       l16211 0000                       l14197 1730  
                     l14189 1721                       l11869 0000                       l14517 0C07  
                     l14461 0B95                       l14701 0000                       l15085 0000  
                     l15077 0000                       l15069 0000                       l15181 0000  
                     l15173 0000                       l15165 0000                       l15157 0000  
                     l15149 0000                       l15093 0000                       l15245 0000  
                     l15253 092A                       l15261 0000                       l15317 0D7F  
                     l15309 0000                       l15333 0000                       l15325 0000  
                     l16141 0000                       l16133 0534                       l16125 0527  
                     l16117 0000                       l16109 0000                       l16061 0000  
                     l16053 0000                       l16045 0000                       l16029 0000  
                     l15501 0000                       l16221 0F8F                       l14287 0000  
                     l14279 0000                       l14295 17AF                       l14199 1733  
                     l14383 07E7                       l14375 07DA                       l14367 07CD  
                     l14359 07C0                       l14631 0D0A                       l14623 0CF0  
                     l14519 0C18                       l14535 0C2F                       l14463 0BA4  
                     l14447 0B77                       l14711 0000                       l14703 0000  
                     l15087 0000                       l15079 0000                       l15191 0000  
                     l15183 0000                       l15175 0000                       l15167 0000  
                     l15159 0000                       l15095 0000                       l15263 0000  
                     l15271 0753                       l15255 0000                       l15319 0000  
                     l15327 0000                       l16135 0000                       l16127 0000  
                     l16119 0517                       l16071 04D8                       l16063 0000  
                     l16047 0000                       l16055 04BF                       l16039 0482  
                     l15511 0000                       l15503 0000                       l15431 0000  
                     l16223 0000                       l16215 0000                       l16207 0000  
                     l14297 17EF                       l14393 0000                       l14625 0D01  
                     l14609 0CD3                       l14537 0C43                       l14529 0000  
                     l14553 0C5A                       l14449 0B89                       l14801 1663  
                     l14721 0000                       l14713 0000                       l14705 0000  
                     l15089 0000                       l15193 0000                       l15185 0000  
                     l15177 0000                       l15169 0000                       l15097 0000  
                     l15249 0887                       l15273 0770                       l15281 0DA9  
                     l15353 0E51                       l15345 0000                       l15329 0000  
                     l15425 0000                       l15417 0000                       l15409 0000  
                     l16161 0000                       l16145 0550                       l16129 052C  
                     l16081 0000                       l16073 04DB                       l16137 053C  
                     l16065 04CC                       l16057 0000                       l16049 0000  
                     l15601 00D6                       l15521 0000                       l15513 0000  
                     l15505 0000                       l15441 0000                       l15433 0000  
                     l16217 0000                       l16209 0000                       l16241 0000  
                     l16233 0000                       l14379 0000                       l14387 07EA  
                     l14395 0000                       l14643 0000                       l14555 0C6F  
                     l14547 0000                       l14491 0BDE                       l14475 0BB0  
                     l14651 0000                       l14811 0000                       l14803 0000  
                     l14731 0000                       l14723 0000                       l14715 0000  
                     l14707 0000                       l15195 0000                       l15187 0000  
                     l15179 0000                       l15099 0000                       l15267 0000  
                     l15259 0000                       l15275 0DA8                       l15339 0E21  
                     l15419 0000                       l16163 0000                       l16171 0590  
                     l16139 0000                       l16091 04F3                       l16075 04DD  
                     l16067 0000                       l16083 04E5                       l16059 0000  
                     l15611 00E7                       l15603 0000                       l15531 0075  
                     l15523 0000                       l15515 0000                       l15507 0000  
                     l15451 0000                       l15443 0000                       l15435 0000  
                     l15427 0000                       l16227 0000                       l16219 0000  
                     l16251 0000                       l16243 0000                       l14389 0000  
                     l14637 0D0D                       l14581 0C99                       l14477 0BC1  
                     l14469 0BAD                       l14661 0000                       l14645 0000  
                     l14821 0000                       l14813 1675                       l14805 0000  
                     l14741 0000                       l14733 0000                       l14725 0000  
                     l14717 0000                       l14709 0000                       l14901 0000  
                     l15189 0000                       l15197 0000                       l15269 0000  
                     l15285 0DB4                       l15381 0E9B                       l15373 0E8A  
                     l15357 0000                       l15349 0000                       l16181 05A1  
                     l16173 0593                       l16165 0584                       l16093 04F5  
                     l16085 0000                       l16069 0000                       l15701 01CD  
                     l15621 0000                       l15613 0000                       l15541 0000  
                     l15533 0000                       l15525 0000                       l15517 0000  
                     l15509 0000                       l15461 0000                       l15453 0000  
                     l15445 0000                       l15437 0000                       l15429 0000  
                     l16261 0000                       l16253 0000                       l16237 0000  
                     l16229 0000                       l14639 0D19                       l14583 0CAA  
                     l14567 0C7B                       l14655 145B                       l14647 0000  
                     l14671 0000                       l14831 1691                       l14823 0000  
                     l14815 0000                       l14807 166C                       l14751 1616  
                     l14743 1608                       l14735 0000                       l14727 0000  
                     l14719 0000                       l14903 0000                       l15287 0000  
                     l15295 0EE3                       l15383 0E9F                       l15359 0E5D  
                     l16183 0000                       l16175 0000                       l16159 0000  
                     l16167 0587                       l16087 0000                       l15711 01D8  
                     l15703 01CF                       l15623 0000                       l15615 0000  
                     l15551 008E                       l15543 0000                       l15527 0000  
                     l15519 0000                       l15471 0000                       l15463 0000  
                     l15455 0000                       l15447 0000                       l15439 0000  
                     l16263 0000                       l16255 0D45                       l16247 0D3F  
                     l16271 0000                       l14569 0C8D                       l14489 0BCD  
                     l14665 1474                       l14657 0000                       l14681 14A4  
                     l14673 0000                       l14841 0000                       l14833 0000  
                     l14825 0000                       l14817 0000                       l14809 0000  
                     l14761 162B                       l14737 0000                       l14729 0000  
                     l14913 0EDC                       l14905 0000                       l15297 0000  
                     l15289 0000                       l15377 0E97                       l15385 0EA6  
                     l16185 0000                       l16177 0000                       l16089 04F0  
                     l15801 02C7                       l15713 0000                       l15721 01FB  
                     l15617 0000                       l15609 0000                       l15545 0000  
                     l15537 0000                       l15529 0000                       l15481 0000  
                     l15473 0000                       l15465 0000                       l15457 0000  
                     l15449 0000                       l16193 05C7                       l16249 0000  
                     l16257 0D47                       l16265 0D4F                       l16281 0000  
                     l16273 0000                       l14595 0CB6                       l14691 14BF  
                     l14683 0000                       l14851 0000                       l14843 16A1  
                     l14835 0000                       l14827 0000                       l14819 167E  
                     l14771 1639                       l14763 0000                       l14747 0000  
                     l14739 0000                       l14907 0000                       l14931 0000  
                     l15299 0000                       l15395 0EFE                       l15387 0000  
                     l16099 0000                       l15731 0209                       l15715 0000  
                     l15651 0000                       l15635 0129                       l15627 011B  
                     l15619 0000                       l15571 00C1                       l15555 009D  
                     l15539 0000                       l15547 0087                       l15491 0000  
                     l15483 0000                       l15475 0000                       l15467 0000  
                     l15459 0000                       l16195 0000                       l16259 0000  
                     l16291 0000                       l16275 14E3                       l16267 0000  
                     l14597 0CC7                       l14669 1477                       l14677 0000  
                     l14861 16B9                       l14853 0000                       l14845 0000  
                     l14837 1699                       l14829 0000                       l14781 0000  
                     l14773 0000                       l14765 1632                       l14757 0000  
                     l14909 0000                       l14925 0FB1                       l14941 0000  
                     l15397 0000                       l15389 0000                       l16189 05B2  
                     l15821 0000                       l15741 0214                       l15725 0000  
                     l15717 0000                       l15733 020A                       l15661 0161  
                     l15653 0000                       l15645 0134                       l15637 012B  
                     l15629 0000                       l15813 02D9                       l15581 0000  
                     l15573 0000                       l15565 00B3                       l15557 0000  
                     l15549 0000                       l15493 0000                       l15485 0000  
                     l15477 0000                       l15469 0000                       l16293 0000  
                     l16285 14F4                       l16269 0000                       l14687 0000  
                     l14695 14C2                       l14871 0000                       l14863 0000  
                     l14855 16B1                       l14847 0000                       l14839 0000  
                     l14791 0000                       l14783 1649                       l14775 0000  
                     l14767 1633                       l14759 0000                       l14919 0FA0  
                     l14951 096A                       l15911 0000                       l15903 0000  
                     l15823 02F2                       l15807 02D5                       l15751 0000  
                     l15743 0000                       l15727 0205                       l15719 0000  
                     l15663 0000                       l15647 0000                       l15655 0157  
                     l15591 0000                       l15583 0000                       l15575 0000  
                     l15567 0000                       l15559 00A4                       l15495 0000  
                     l15487 0000                       l15479 0000                       l16199 0000  
                     l16295 0000                       l16287 0000                       l16279 0000  
                     l16481 16CF                       l14865 0000                       l14857 0000  
                     l14849 16A8                       l14793 0000                       l14785 0000  
                     l14777 1641                       l14769 0000                       l14697 0000  
                     l14945 0000                       l14929 0000                       l14961 0677  
                     l15913 0000                       l15905 0000                       l15841 0000  
                     l15825 0000                       l15809 02D6                       l15761 0000  
                     l15753 0000                       l15745 0232                       l15729 0000  
                     l15681 0190                       l15673 016E                       l15665 0165  
                     l15649 0000                       l15593 0000                       l15585 0000  
                     l15577 0000                       l15569 00BD                       l15497 0000  
                     l15489 0000                       l16297 0000                       l16289 0000  
                     l16491 17EA                       l16483 17C1                       l14867 16C1  
                     l14859 0000                       l14787 0000                       l14779 0000  
                     l14795 165A                       l14699 15EA                       l14875 16C9  
                     l14883 0000                       l14939 0953                       l14955 0000  
                     l15931 0000                       l15923 0000                       l15915 0000  
                     l15907 0000                       l15851 0000                       l15843 0000  
                     l15819 0000                       l15755 0000                       l15747 0000  
                     l15683 0000                       l15659 0000                       l15675 016F  
                     l15595 0000                       l15587 0000                       l15579 0000  
                     l15499 0000                       l16299 0000                       l16485 17DB  
                     l14869 0000                       l14797 0000                       l14789 1652  
                     l14885 0000                       l14949 0000                       l14973 0000  
                     l14965 0000                       l14957 0000                       l14981 0000  
                     l15941 0000                       l15933 0000                       l15925 0000  
                     l15917 0000                       l15909 0000                       l15861 0000  
                     l15853 0000                       l15845 0000                       l15837 0000  
                     l15829 0000                       l15781 0296                       l15773 0286  
                     l15765 0278                       l15757 0000                       l15749 0000  
                     l15693 01BF                       l15685 0000                       l15677 0000  
                     l15597 0000                       l15589 0000                       l16487 17E0  
                     l14799 0000                       l14895 0000                       l14959 0000  
                     l14975 068A                       l14991 0000                       l15935 0000  
                     l15927 0000                       l15943 040E                       l15919 0000  
                     l15871 0000                       l15863 0000                       l15855 0000  
                     l15847 0000                       l15839 0000                       l15783 0000  
                     l15775 0288                       l15767 0000                       l15791 02B9  
                     l15759 0000                       l15695 0000                       l15687 0000  
                     l15679 0000                       l15599 0000                       l16489 17E5  
                     l14889 0EB8                       l14897 0D98                       l14969 0000  
                     l14993 0602                       l14985 0000                       l15953 0000  
                     l15937 0000                       l15929 0000                       l15873 0000  
                     l15865 0000                       l15849 0000                       l15785 0000  
                     l15689 0000                       l14899 0D9A                       l14995 0000  
                     l14987 05F9                       l14979 0000                       l15971 0000  
                     l15963 0000                       l15955 0000                       l15947 0000  
                     l15939 0000                       l15891 038D                       l15875 0000  
                     l15867 0000                       l15859 0000                       l15795 0000  
                     l15787 0000                       l15981 0000                       l15973 0000  
                     l15965 0000                       l15949 0000                       l15885 0000  
                     l15877 0000                       l15869 0000                       l15797 02C3  
                     l15789 0000                       l15991 0000                       l15983 0000  
                     l15975 0000                       l15967 0000                       l15895 0000  
                     l15887 0000                       l15879 0375                       l15799 0000  
                     l15993 0000                       l15985 0000                       l15977 0000  
                     l15969 0000                       l15889 038A                       l15995 0000  
                     l15987 0000                       l15979 0000                       l15997 0000  
                     l15989 0000                       l15999 0000                       ?_main 0074  
           __end_of___awdiv 0634             __end_of___lbdiv 068C             __end_of___awmod 0671  
           __end_of___lbmod 06A8                       _COMEN 0197             ___awdiv@divisor 005D  
                     u10625 0561                       u10635 056D                       u10655 0582  
                     _T2CON 0012                       u10665 058E             __end_of___lwdiv 096F  
           ___awdiv@counter 0061                       __80_z 005C                       _TRISA 0085  
                     _TRISB 0086                       _TRISC 0087                       _TRISE 0089  
                     _No_AC 0396         __end_of_KeyClearOne 0ED3                       _Rbeep 0050  
                     _Start 0055           _LED11_Flash_Times 00DE         __size_of_LCD_FState 006D  
                _KeyClearIn 0DA8                 ?_AcTestZero 0074              __pbitbssCOMMON 0380  
                     pclath 000A                 _ClearResSum 0D98                  _KeyCounter 0040  
                _KeyOldData 0032              ??_KeyStopClear 005E                       status 0003  
                     wtemp0 007E               ?__74HC595_SET 0074             ___lbdiv@divisor 005D  
                _KeyUpShake 0150           _PATTERN_WORK_TIME 00B9             ___lbdiv@counter 005F  
            _Flag_Ntc_OneAd 0382        _LCD_AUTO_Flash_Times 00D5                __end_of_main 1523  
          ?_ShutDowm_Device 0074           __end_of_AD_Sample 0945                      ??_main 006D  
          __end_of_Set_Disp 0AE9                  _BuzzerTime 006D                   ??_LED_Crt 005D  
       __end_of_Init_System 1553           __end_of_LED_State 0D22           _LED12_Flash_Times 00DF  
       _LCD_COL_Flash_Times 00D6                      _ADCON0 001F                      _ADCON1 009F  
                    _ADRESH 001E                      _ADRESL 009E            ___awdiv@dividend 005F  
                    _LCDADD 0192                      _GODONE 00F9             ??_NtcAD_Testing 0064  
                    i1l2552 0AFE                      i1l2553 0AFF                      i1l2554 0000  
                    i1l3811 09A9                      i1l3812 09AC                      i1l3821 09CD  
                    i1l3813 09AF                      i1l3830 09F1                      i1l3822 09D0  
                    i1l3814 09B2                      i1l3831 09F4                      i1l3823 09D3  
                    i1l3815 09B5                      i1l3840 0A18                      i1l3832 09F7  
                    i1l3824 09D6                      i1l3816 09B8                      i1l3841 0A1B  
                    i1l3833 09FA                      i1l3825 09D9                      i1l3817 09BB  
                    i1l3850 0A3F                      i1l3842 0A1E                      i1l3834 09FD  
                    i1l3826 09DC                      i1l3818 09BE                      i1l3851 0A42  
                    i1l3843 0A21                      i1l3835 0A00                      i1l3827 09DF  
                    i1l3860 0A66                      i1l3852 0A45                      i1l3844 0A24  
                    i1l3836 0A03                      i1l3828 09E2                      i1l3861 0A69  
                    i1l3853 0A48                      i1l3845 0A27                      i1l3837 0A06  
                    i1l3870 0A8D                      i1l3862 0A6C                      i1l3854 0A4B  
                    i1l3846 0A2A                      i1l3871 0A90                      i1l3863 0A6F  
                    i1l3855 0A4E                      i1l3839 0A15                      i1l3880 0AB4  
                    i1l3872 0A93                      i1l3864 0A72                      i1l3848 0A39  
                    __120_z 0059                      i1l3881 0AB7                      i1l3873 0A96  
                    i1l3857 0A5D                      i1l3849 0A3C                      i1l3882 0ABA  
                    i1l3866 0A81                      i1l3858 0A60                      i1l3875 0AA5  
                    i1l3867 0A84                      i1l3859 0A63                      i1l3876 0AA8  
                    i1l3868 0A87                      i1l3877 0AAB                      i1l3869 0A8A  
                    i1l3878 0AAE                      i1l3879 0AB1                      __210_z 005A  
                    _INTCON 000B                      __420_z 005B          __size_of_KeyServer 0107  
                    u623_24 0AF4                      u623_25 0AF2                      _OSCCON 008F  
            ??__74HC595_SET 005D                      _TMR2IF 0061                      _WDTCON 0105  
 _ANNULUS_LIGHT_Flash_Times 007A                   ??_KeyIsIn 005D                   ??_KeyHave 005F  
                    _DelayX 15D2         _HOT_MAJOR_OFF_Times 00AB          __size_of_Isr_Timer 001B  
               _Hex_To_Temp 073A                   ??_Pattern 0068                      _Reduce 0051  
                    _Minute 004E                      _Second 00ED   CheckOnceResult@KeyResTemp 006A  
    CheckOnceResult@KeyDown 0069                      _Option 004F   __size_of_CheckKeyOldValue 0073  
                    _b_kclr 0398                      _b_kerr 0399                   ??___awdiv 0061  
                 ??___lbdiv 005E                   ??___awmod 0061                   ??___lbmod 005E  
                 ??___lwdiv 0061        _LCD_TEMP_Flash_Times 00DB                 _KeyClearOne 0EBC  
          ___awdiv@quotient 0063             ___awmod@divisor 005D         __size_of_AcTestZero 0026  
                _Water_Temp 006F             ___awmod@counter 0061               _WortTimeCount 01E4  
                    clrloop 07F5               _Table_KeyFalg 11EB              _BG_LED_ON_Time 0039  
             _Table_KeyDown 11DF           ?_Solenoid_State_F 0074                      saved_w 007E  
    __size_of_CheckTouchKey 002E          ??_Solenoid_State_F 005D                 ?_KeyClearIn 0074  
           _CheckOnceResult 0DBA            ___lbdiv@dividend 005E             ___lbmod@divisor 005D  
           ___lbmod@counter 0060                ??_LCD_FState 005D                  _WorkMinute 0057  
                _WorkSecond 0058                _Flag_RT_High 0383              __pcstackCOMMON 0074  
              _Flag_RT_Open 0384                __pidataBANK0 0000              _Timer_3S_Times 00CD  
               _Init_System 1523            ___lbdiv@quotient 0060           __end_of_KeyServer 17F7  
              _BreakTimeOut 003C        __end_of_KeyStopClear 0EF5           __end_of_Isr_Timer 099D  
        __end_of_LCD_FState 07F4           _HOT_MAJOR_ON_Time 00AD                  __pbssBANK0 0020  
                __pbssBANK1 00A0                  __pbssBANK2 0120                  __pbssBANK3 0198  
              _BG_LED_State 003A                     ?_DelayX 005D   __size_of_GetTouchKeyValue 0048  
                 ?_Set_Disp 0074               _CheckTouchKey 0D22                  __pmaintext 14D2  
         _HOT_MAJOR_State_F 1487                  __pintentry 0004                ?_CheckBuzzer 0074  
        ?_HOT_MAJOR_State_F 0074         __size_of_KeyClearIn 0012                  __ptext1300 15AA  
                __ptext1301 15D2                  __ptext1302 0982                  __ptext1303 099D  
                __ptext1304 0AE9                  __ptext1305 0000                  __ptext1270 0F68  
                __ptext1271 0011                  __ptext1280 1523                  __ptext1272 0EF5  
                __ptext1281 0634                  __ptext1273 0DBA                  __ptext1290 0EAC  
                __ptext1282 05EF                  __ptext1274 0D50                  __ptext1291 092C  
                __ptext1283 068C                  __ptext1275 0EDF                  __ptext1292 15E9  
                __ptext1284 0671                  __ptext1276 0DA8                  __ptext1293 1487  
                __ptext1285 0945                  __ptext1277 073A                  __ptext1269 0D22  
                __ptext1294 1440                  __ptext1286 0FA0                  __ptext1278 0814  
                __ptext1295 0B2F                  __ptext1287 0ED3                  __ptext1279 1553  
                __ptext1296 13CC                  __ptext1288 0D98                  __ptext1297 0787  
                __ptext1289 0EBC                  __ptext1298 13E9                  __ptext1299 16F0  
           Hex_To_Temp@data 0067                     _LCDCON0 0190        __end_of__74HC595_SET 15D2  
            _Key_120_Z_Lock 0386                     _LCDCode 11BA                     i1l11621 0000  
                   i1l11631 0000                     i1l11801 0000                     i1l11721 0000  
                   i1l11641 0000                     i1l11625 0000                     i1l11633 0991  
                   i1l11723 0000                     i1l11715 0A09                     i1l11635 0992  
                   i1l11627 0000                     i1l11821 0000                     i1l11741 0A2D  
                   i1l11717 0000                     i1l11645 09A6                     i1l11823 0000  
                   i1l11743 0000                     i1l11719 0000                     i1l11671 0000  
                   i1l11663 09C1                     i1l11639 0000                     i1l11825 0000  
                   i1l11745 0000                     i1l11665 0000                     i1l11851 0000  
                   i1l11827 0000                     i1l11819 0A99                     i1l11771 0000  
                   i1l11747 0000                     i1l11691 0000                     i1l11667 0000  
                   i1l12653 0AEA                     i1l11861 0000                     i1l11853 0000  
                   i1l11845 0ABD                     i1l11773 0000                     i1l11749 0000  
                   i1l11693 0000                     i1l11669 0000                     i1l12663 0000  
                   i1l12647 0000                     i1l11847 0000                     i1l11775 0000  
                   i1l11767 0A51                     i1l11695 0000                     i1l12665 0000  
                   i1l11849 0000                     i1l11793 0A75                     i1l11769 0000  
                   i1l11697 0000                     i1l11689 09E5                     i1l11857 0AC9  
                   i1l12659 0AEB                     i1l11795 0000                     i1l11859 0AE3  
            __74HC595_SET@i 005E              __74HC595_SET@j 005F                     i1l12669 0000  
                   i1l11797 0000                     i1l11799 0000              _Key_210_Z_Lock 0387  
   __end_of_CheckOnceResult 0EAC                     _KEYCON0 0113                     _KEYCON1 0114  
                   _LED_Crt 15E9         ??_HOT_MAJOR_State_F 005D                     DelayX@i 005D  
             KeyStopClear@i 005E           _Pattern_Work_Time 00BD           _Solenoid_OFF_Time 00BF  
              ??_AcTestZero 005D              _Key_420_Z_Lock 0388                ?_ClearResSum 0074  
                   _KeyData 002E                     _KeyFlag 0030                     _KeyIsIn 0EAC  
                   _KeyHave 0ED3              ClearResSum@cnt 005D                 _TimeCounter 00EE  
           __size_of_DelayX 000F                  ??_Set_Disp 0077              ?_CheckTouchKey 0074  
 __end_of_HOT_MAJOR_State_F 14D2           _Solenoid_ON_Times 00C5             _bool_TimeChange 039C  
                   _Pattern 0011               _Pattern_State 00E9                     _Regular 0052  
                   _TempTab 1012     CheckOnceResult@KeyValue 0067            _CheckKeyOldValue 0EF5  
              _Display_Temp 00A0                     ___awdiv 05EF                     ___lbdiv 0671  
                   ___awmod 0634                     ___lbmod 068C     CheckOnceResult@OldValue 0064  
    TurnKeyFlags@KeyNoTimes 00D1                     ___lwdiv 0945        GetTouchKeyValue@temp 005E  
                   _b_kover 039A          __end_of_AcTestZero 140F                     _display 0020  
                 _AD_Sample 092C      _LCD_MINUTE_Flash_Times 00D9            ___awmod@dividend 005F  
   __size_of_CheckValidTime 0016                   _LCD_State 00DA        end_of_initialization 143C  
                 _LED_State 0B2F             _BG_LED_ON_Times 00A7                _Key_Add_Lock 038B  
              _Key_ON_Times 00B1                ?_Hex_To_Temp 0074     __size_ofi1__74HC595_SET 0027  
              _KeyOldValue0 0120                _KeyOldValue1 0198                _KeyOldValue2 0138  
     __size_of_KeyStopClear 0016       _LCD_TIMER_Flash_Times 00DC                __pstringtext 1000  
              ?_KeyClearOne 0074            _LED1_Flash_Times 0043                _KeyReference 01B0  
              _LCD_Flash_HZ 00D7                  ?_AD_Sample 0074                _Key_Tea_Lock 0393  
          ?_CheckOnceResult 0074    __size_of_ShutDowm_Device 0057            ___lbmod@dividend 005F  
            NtcAD_Testing@i 0068                ??_KeyClearIn 005F                  ?_LED_State 0074  
        CheckOnceResult@cnt 006C                 ___lbmod@rem 0061       __end_of_NtcAD_Testing 092C  
              _LED_Flash_HZ 007B             ??_CheckTouchKey 006D                _KeyStopClear 0EDF  
 __size_of_Solenoid_State_F 0047            _GetTouchKeyValue 0D50  __size_of_HOT_MAJOR_State_F 004B  
            __end_of_DelayX 15E1        _bool_WaterTempChange 039D               _Flag_RT_Short 0385  
     __size_of__74HC595_SET 0028                ?_Init_System 0074             _Pattern_LED_Crt 00BB  
        __end_of_KeyClearIn 0DBA            _LED2_Flash_Times 00E1        __size_of_CheckBuzzer 001D  
                 _KeyMaxSub 00D4                   _KeyResSum 01C8         start_initialization 140F  
                 _KeyServer 16F0      _SHOW_LIGHT_Flash_Times 00EC                   _Isr_Timer 0982  
              __74HC595_SET 15AA                    ??_DelayX 005F        __size_of_ClearResSum 0010  
             ?_TurnKeyFlags 0074          _HOT_MAJOR_OFF_Time 00A9           __size_of_Set_Disp 014C  
              _old_LHResult 039E               _Time_Temp_Dis 0397    TurnKeyFlags@KeyHaveTimes 00D0  
               __pdataBANK0 006D                _Table_KeyCap 11C7            _LED3_Flash_Times 00E2  
        _HOT_MAJOR_ON_Times 00AF                 ??_AD_Sample 005D                _Buzzer_CFlag 0381  
           _Temperature_Dat 006E                    ?_LED_Crt 0074                 __pbssCOMMON 007A  
                ?_KeyServer 0074                 _LED10_State 0041                 _LED11_State 0042  
             __pcstackBANK0 005D                 _LED12_State 00E0              _CheckValidTime 0FA0  
  __end_of_CheckKeyOldValue 0F68        _LCD_HOUR_Flash_Times 00D8                  ?_Isr_Timer 0074  
               ??_LED_State 005D           ??_ShutDowm_Device 0060         KeyServer@KeyOldFlag 01E2  
          i1__74HC595_SET@i 0075            i1__74HC595_SET@j 0076                    ?_KeyIsIn 0074  
                  ?_KeyHave 005D              ??_TurnKeyFlags 0060                    ?_Pattern 0074  
            i1__74HC595_SET 0AE9            ___lwdiv@dividend 005F        __size_of_Hex_To_Temp 004D  
            Hex_To_Temp@BCD 0064                    ?___awdiv 005D                    ?___lbdiv 005D  
                  ?___awmod 005D                    ?___lbmod 005D                    ?___lwdiv 005D  
                 _com_count 007C              _Solenoid_State 0054            _LED4_Flash_Times 00E3  
      __size_of_KeyClearOne 0017           _Time_Temp_Counter 00CB              _AdResult_12bit 002C  
    __end_of_CheckValidTime 0FB6            _Solenoid_ON_Time 00C3            ___lwdiv@quotient 0062  
       GetTouchKeyValue@cnt 005F                    _KEYDATAH 0116                    _KEYDATAL 0115  
         interrupt_function 0004      __end_ofi1__74HC595_SET 0B10            _Solenoid_State_F 1440  
          _SHOW_LIGHT_State 0053               _LED5_On_Times 00B3                    _LH_Count 00B7  
             _LED6_On_Times 00B5         CheckKeyOldValue@cnt 0065          _Pattern_Work_Times 00EB  
        _Pattern_Work_State 00EA          _Solenoid_OFF_Times 00C1                    KeyIsIn@i 005D  
             _Key_80_Z_Lock 0389            _LED5_Flash_Times 00E4                 __stringbase 1012  
      __size_of_Init_System 0030               AD_Sample@adch 005E    __end_of_GetTouchKeyValue 0D98  
           ?_CheckValidTime 0074                 ??_KeyServer 005D            __size_of_LED_Crt 00FB  
        _BG_LED_Flash_Times 00D3                 ??_Isr_Timer 0077                    _MainTime 004D  
           ?i1__74HC595_SET 0074            __size_of_KeyIsIn 0010            __size_of_KeyHave 000C  
                  _Set_Disp 099D                    _Temp_595 0025            __size_of_Pattern 05DE  
          _Table_KeyChannel 11D3            __size_of___awdiv 0045            __size_of___lbdiv 001B  
          __size_of___awmod 003D            __size_of___lbmod 001C            __size_of___lwdiv 002A  
          _LED6_Flash_Times 00E5                    _b_kover1 039B        __end_of_TurnKeyFlags 0FA0  
   CheckValidTime@validtime 01E0             ___lwdiv@divisor 005D             ___lwdiv@counter 0061  
                _LED1_State 0044                  _LED2_State 0045                  _LED3_State 0046  
                _LED4_State 0047                  _LED5_State 0048                  _LED6_State 0049  
                _LED7_State 004A    __size_of_CheckOnceResult 00F2                  _LED8_State 004B  
                _LED9_State 004C               _AdResult_8bit 00D2               __size_of_main 0051  
     __end_of_CheckTouchKey 0D50                    clear_ram 07F4                  _LCD_FState 0787  
             ??_CheckBuzzer 005D            _LED7_Flash_Times 00E6             _ShutDowm_Device 1553  
    __size_of_NtcAD_Testing 0118               _Key_Add_3S_ON 038A     CheckKeyOldValue@counter 00CF  
         ?_CheckKeyOldValue 0074                    intlevel1 0000               ??_ClearResSum 005D  
        _Solenoid_Stop_Time 00C7          ??_CheckKeyOldValue 005F                Hex_To_Temp@i 0063  
        _Solenoid_Work_Time 00C9                   stringcode 100A               _Key_Iced_Lock 038D  
                _B_MainLoop 0380               _Key_Bold_Lock 038C              _LCD_Flash_Bool 0394  
          _Key_Reduce_3S_ON 038F            _LED8_Flash_Times 00E7                  _OPTION_REG 0081  
  __end_of_Solenoid_State_F 1487         __end_of_CheckBuzzer 13E9                    stringtab 1000  
      NtcAD_Testing@TAB_pos 0034              KeyClearOne@cnt 005D                  _AcTestZero 13E9  
           _Key_Reduce_Lock 0390               KeyClearIn@cnt 005F               _NtcAD_Testing 0814  
             ??_Hex_To_Temp 0063         __end_of_ClearResSum 0DA8           ??_CheckOnceResult 0060  
               ?_LCD_FState 0074  
